ARM GAS  /tmp/ccORYvFR.s 			page 1


   1              		.cpu cortex-m4
   2              		.eabi_attribute 27, 1
   3              		.eabi_attribute 28, 1
   4              		.eabi_attribute 20, 1
   5              		.eabi_attribute 21, 1
   6              		.eabi_attribute 23, 3
   7              		.eabi_attribute 24, 1
   8              		.eabi_attribute 25, 1
   9              		.eabi_attribute 26, 1
  10              		.eabi_attribute 30, 1
  11              		.eabi_attribute 34, 1
  12              		.eabi_attribute 18, 4
  13              		.file	"stc3115.c"
  14              		.text
  15              	.Ltext0:
  16              		.cfi_sections	.debug_frame
  17              		.section	.text.STC3115_conv,"ax",%progbits
  18              		.align	1
  19              		.syntax unified
  20              		.thumb
  21              		.thumb_func
  22              		.fpu fpv4-sp-d16
  24              	STC3115_conv:
  25              	.LFB137:
  26              		.file 1 "../../core/drivers/STC3115/src/stc3115.c"
   1:../../core/drivers/STC3115/src/stc3115.c **** /******************** (C) COPYRIGHT 2011 STMicroelectronics ********************
   2:../../core/drivers/STC3115/src/stc3115.c **** * File Name          : stc3115_Driver.c
   3:../../core/drivers/STC3115/src/stc3115.c **** * Author             : AMS - IMS application
   4:../../core/drivers/STC3115/src/stc3115.c **** * Version            : V01
   5:../../core/drivers/STC3115/src/stc3115.c **** * Date               : 10 October 2014
   6:../../core/drivers/STC3115/src/stc3115.c **** * Description        : STC3115 driver source code
   7:../../core/drivers/STC3115/src/stc3115.c **** ********************************************************************************
   8:../../core/drivers/STC3115/src/stc3115.c **** * THE PRESENT SOFTWARE WHICH IS FOR GUIDANCE ONLY AIMS AT PROVIDING CUSTOMERS
   9:../../core/drivers/STC3115/src/stc3115.c **** * WITH CODING INFORMATION REGARDING THEIR PRODUCTS IN ORDER FOR THEM TO SAVE TIME.
  10:../../core/drivers/STC3115/src/stc3115.c **** * AS A RESULT, STMICROELECTRONICS SHALL NOT BE HELD LIABLE FOR ANY DIRECT,
  11:../../core/drivers/STC3115/src/stc3115.c **** * INDIRECT OR CONSEQUENTIAL DAMAGES WITH RESPECT TO ANY CLAIMS ARISING FROM THE
  12:../../core/drivers/STC3115/src/stc3115.c **** * CONTENT OF SUCH SOFTWARE AND/OR THE USE MADE BY CUSTOMERS OF THE CODING
  13:../../core/drivers/STC3115/src/stc3115.c **** * INFORMATION CONTAINED HEREIN IN CONNECTION WITH THEIR PRODUCTS.
  14:../../core/drivers/STC3115/src/stc3115.c **** 
  15:../../core/drivers/STC3115/src/stc3115.c **** * THIS SOURCE CODE IS PROTECTED BY A LICENSE.
  16:../../core/drivers/STC3115/src/stc3115.c **** * FOR MORE INFORMATION PLEASE CAREFULLY READ THE LICENSE AGREEMENT FILE LOCATED
  17:../../core/drivers/STC3115/src/stc3115.c **** * IN THE ROOT DIRECTORY OF THIS FIRMWARE PACKAGE.
  18:../../core/drivers/STC3115/src/stc3115.c **** *******************************************************************************/
  19:../../core/drivers/STC3115/src/stc3115.c **** 
  20:../../core/drivers/STC3115/src/stc3115.c **** /* Includes ------------------------------------------------------------------*/
  21:../../core/drivers/STC3115/src/stc3115.c **** #include "stc3115.h" 
  22:../../core/drivers/STC3115/src/stc3115.c **** #include "stc3115_Battery.h" 
  23:../../core/drivers/STC3115/src/stc3115.c **** #include "stm32l4xx_hal.h"
  24:../../core/drivers/STC3115/src/stc3115.c **** 
  25:../../core/drivers/STC3115/src/stc3115.c **** /*
  26:../../core/drivers/STC3115/src/stc3115.c ****   ===============================================================================
  27:../../core/drivers/STC3115/src/stc3115.c ****                    ##### STC3115 driver description #####
  28:../../core/drivers/STC3115/src/stc3115.c ****   ===============================================================================
  29:../../core/drivers/STC3115/src/stc3115.c **** 
  30:../../core/drivers/STC3115/src/stc3115.c **** 	This driver is dedicated to STC3115 battery monitoring IC management, it allows
  31:../../core/drivers/STC3115/src/stc3115.c **** 	the stc3115 to be configured, and used without external software.
  32:../../core/drivers/STC3115/src/stc3115.c **** 	
ARM GAS  /tmp/ccORYvFR.s 			page 2


  33:../../core/drivers/STC3115/src/stc3115.c **** 	++ stc3115_Driver.c file contains the functions to initialize and report the 
  34:../../core/drivers/STC3115/src/stc3115.c **** 			battery state based on STC3115 algorithms.
  35:../../core/drivers/STC3115/src/stc3115.c **** 		- Driver contains its own I2C access functions, they have to be linked with 
  36:../../core/drivers/STC3115/src/stc3115.c **** 			I2C driver interface  functions. HW system have to support multi I2C access 
  37:../../core/drivers/STC3115/src/stc3115.c **** 			commands to guaranty the data integrity during the 16 bits register R/W 
  38:../../core/drivers/STC3115/src/stc3115.c **** 			operations.
  39:../../core/drivers/STC3115/src/stc3115.c **** 		- First part of the driver is composed by driver own functions, which should 
  40:../../core/drivers/STC3115/src/stc3115.c **** 			not be accessed by external functions.
  41:../../core/drivers/STC3115/src/stc3115.c **** 		- Then the GasGauge functions are the main interface functions which have to 
  42:../../core/drivers/STC3115/src/stc3115.c **** 			be used by the application to initialize, monitor and stop the STC3115 
  43:../../core/drivers/STC3115/src/stc3115.c **** 			device.
  44:../../core/drivers/STC3115/src/stc3115.c **** 		- Power saving functions can be used to manage the STC3115 operating mode 
  45:../../core/drivers/STC3115/src/stc3115.c **** 			(mixed mode or Voltage mode). These two functions have to be called by 
  46:../../core/drivers/STC3115/src/stc3115.c **** 			external program to switch the STC3115 operating mode after STC3115 
  47:../../core/drivers/STC3115/src/stc3115.c **** 			initialization.
  48:../../core/drivers/STC3115/src/stc3115.c **** 		- Alarm management functions have to be called to set, stop, get, clear and
  49:../../core/drivers/STC3115/src/stc3115.c **** 			change alarm thresholds after STC3115 initialization.
  50:../../core/drivers/STC3115/src/stc3115.c **** 		- The relaxation register can also be updated after initialization thanks to 
  51:../../core/drivers/STC3115/src/stc3115.c **** 			the STC3115_RelxTmrSet.
  52:../../core/drivers/STC3115/src/stc3115.c **** 	
  53:../../core/drivers/STC3115/src/stc3115.c **** 	++ stc3115_Driver.h file defines the STC3115 static numbers, driver API 
  54:../../core/drivers/STC3115/src/stc3115.c **** 			structures and driver API functions.	
  55:../../core/drivers/STC3115/src/stc3115.c **** 		- STC3115_BatteryData_TypeDef is filled by the driver with battery state.
  56:../../core/drivers/STC3115/src/stc3115.c **** 		- STC3115_ConfigData_TypeDef is filled by the driver with battery 
  57:../../core/drivers/STC3115/src/stc3115.c **** 			configuration data from stc3115_Battery.h
  58:../../core/drivers/STC3115/src/stc3115.c **** 		- RAMData is the RAM memory map description, used internally of the driver.
  59:../../core/drivers/STC3115/src/stc3115.c **** 			Have no to be modified by external accesses.
  60:../../core/drivers/STC3115/src/stc3115.c **** 	
  61:../../core/drivers/STC3115/src/stc3115.c **** 	++ stc3115_Battery.h file is used to describe the battery and application 
  62:../../core/drivers/STC3115/src/stc3115.c **** 			configurations.
  63:../../core/drivers/STC3115/src/stc3115.c **** 	
  64:../../core/drivers/STC3115/src/stc3115.c **** 	++ stc3115_I2C.c file is used to interface STC3115 driver I2C functions with 
  65:../../core/drivers/STC3115/src/stc3115.c **** 		application I2C functions.
  66:../../core/drivers/STC3115/src/stc3115.c **** 		
  67:../../core/drivers/STC3115/src/stc3115.c **** 	++ stc3115_I2C.h file contains the stc3115_I2C.c function declarations.
  68:../../core/drivers/STC3115/src/stc3115.c **** 
  69:../../core/drivers/STC3115/src/stc3115.c ****   ===============================================================================
  70:../../core/drivers/STC3115/src/stc3115.c ****                     ##### How to use STC3115 driver #####
  71:../../core/drivers/STC3115/src/stc3115.c ****   ===============================================================================
  72:../../core/drivers/STC3115/src/stc3115.c **** 
  73:../../core/drivers/STC3115/src/stc3115.c **** 	++ 	Update 	I2C_Write and I2C_Read functions with application I2C driver functions 
  74:../../core/drivers/STC3115/src/stc3115.c **** 		in stc3115_I2C.C file.
  75:../../core/drivers/STC3115/src/stc3115.c **** 							
  76:../../core/drivers/STC3115/src/stc3115.c **** 	++	Initialize STC3115 dedicated hardware externally of the driver (I2C 
  77:../../core/drivers/STC3115/src/stc3115.c **** 			interface, GPIOs...)			
  78:../../core/drivers/STC3115/src/stc3115.c **** 	
  79:../../core/drivers/STC3115/src/stc3115.c **** 	++	Fill STC3115_Battery.h with battery and application parameters
  80:../../core/drivers/STC3115/src/stc3115.c **** 	
  81:../../core/drivers/STC3115/src/stc3115.c **** 	++  Call one time the the GasGauge_Initialization function
  82:../../core/drivers/STC3115/src/stc3115.c **** 	
  83:../../core/drivers/STC3115/src/stc3115.c **** 			Parameters:
  84:../../core/drivers/STC3115/src/stc3115.c **** 				- STC3115_ConfigData_TypeDef parameter is filled with STC3115_Battery.h 
  85:../../core/drivers/STC3115/src/stc3115.c **** 					data by the driver
  86:../../core/drivers/STC3115/src/stc3115.c **** 				- STC3115_BatteryData_TypeDef parameter is filled with STC3115 algorithm 
  87:../../core/drivers/STC3115/src/stc3115.c **** 					results and returns the battery state to application
  88:../../core/drivers/STC3115/src/stc3115.c **** 				
  89:../../core/drivers/STC3115/src/stc3115.c **** 			Function description:
ARM GAS  /tmp/ccORYvFR.s 			page 3


  90:../../core/drivers/STC3115/src/stc3115.c **** 				- Initialize SW structures
  91:../../core/drivers/STC3115/src/stc3115.c **** 				- Check battery history: new battery, swapped battery, already connected 
  92:../../core/drivers/STC3115/src/stc3115.c **** 					battery
  93:../../core/drivers/STC3115/src/stc3115.c **** 				- Initializes STC3115 registers accordingly to battery history
  94:../../core/drivers/STC3115/src/stc3115.c **** 				- Initializes STC3115 RAM memory accordingly to battery history
  95:../../core/drivers/STC3115/src/stc3115.c **** 			
  96:../../core/drivers/STC3115/src/stc3115.c **** 			Returns:
  97:../../core/drivers/STC3115/src/stc3115.c **** 				- (-1) is returned when STC3115 cannot be accessed: I2C bus is not 
  98:../../core/drivers/STC3115/src/stc3115.c **** 					properly configured or STC3115 is not power supplied
  99:../../core/drivers/STC3115/src/stc3115.c **** 				- (0) is returned if initialization succeeds.
 100:../../core/drivers/STC3115/src/stc3115.c **** 			
 101:../../core/drivers/STC3115/src/stc3115.c **** 	++ Call the GasGauge_Task function when battery information is needed: 
 102:../../core/drivers/STC3115/src/stc3115.c **** 			every 1 to 30 seconds (no frequency accuracy needed)
 103:../../core/drivers/STC3115/src/stc3115.c **** 		
 104:../../core/drivers/STC3115/src/stc3115.c **** 			Parameters:
 105:../../core/drivers/STC3115/src/stc3115.c **** 				- STC3115_ConfigData_TypeDef parameter is used in case of STC3115 has to be 
 106:../../core/drivers/STC3115/src/stc3115.c **** 					initialized again
 107:../../core/drivers/STC3115/src/stc3115.c **** 				- STC3115_BatteryData_TypeDef parameter is filled with STC3115 algorithm 
 108:../../core/drivers/STC3115/src/stc3115.c **** 					results and returns the battery state to application
 109:../../core/drivers/STC3115/src/stc3115.c **** 				
 110:../../core/drivers/STC3115/src/stc3115.c **** 			Function description:
 111:../../core/drivers/STC3115/src/stc3115.c **** 				- Check STC3115, battery and application state
 112:../../core/drivers/STC3115/src/stc3115.c **** 				- if battery is well present battery data are updated
 113:../../core/drivers/STC3115/src/stc3115.c **** 				- Available battery state information are returned
 114:../../core/drivers/STC3115/src/stc3115.c **** 			
 115:../../core/drivers/STC3115/src/stc3115.c **** 			Returns:
 116:../../core/drivers/STC3115/src/stc3115.c **** 				- (-1) is returned when STC3115 cannot be accessed (I2C bus is busy or 
 117:../../core/drivers/STC3115/src/stc3115.c **** 					STC3115 is not power supplied) or when BATD/CD pin is in high level state.
 118:../../core/drivers/STC3115/src/stc3115.c **** 				- (0) is returned if only battery SOC,Voltage and OCV data are available
 119:../../core/drivers/STC3115/src/stc3115.c **** 				- (1) is returned if every STC3115_BatteryData_TypeDef data are available.
 120:../../core/drivers/STC3115/src/stc3115.c **** 				
 121:../../core/drivers/STC3115/src/stc3115.c **** 	++ call the GasGauge_Stop function during the application switch off sequence
 122:../../core/drivers/STC3115/src/stc3115.c **** 		 This will stop the STC3115 and save energy. This will help to recover the
 123:../../core/drivers/STC3115/src/stc3115.c **** 		 battery context during the next GasGauge_Initialization function.
 124:../../core/drivers/STC3115/src/stc3115.c **** 				
 125:../../core/drivers/STC3115/src/stc3115.c **** 	++ GasGauge_Reset function has not to be used by default.
 126:../../core/drivers/STC3115/src/stc3115.c **** 		 This function has to be called only in abnormal use cases.
 127:../../core/drivers/STC3115/src/stc3115.c **** 				- (-1) is returned when STC3115 cannot be stopped
 128:../../core/drivers/STC3115/src/stc3115.c **** 				- (0) is returned if reset operation succeeds
 129:../../core/drivers/STC3115/src/stc3115.c **** 				
 130:../../core/drivers/STC3115/src/stc3115.c **** */
 131:../../core/drivers/STC3115/src/stc3115.c **** static I2C_HandleTypeDef *hi2cLib;
 132:../../core/drivers/STC3115/src/stc3115.c **** 
 133:../../core/drivers/STC3115/src/stc3115.c **** /* ---- STC3115 I2C R/W interface --------------------------------------------- */
 134:../../core/drivers/STC3115/src/stc3115.c **** 
 135:../../core/drivers/STC3115/src/stc3115.c **** /*******************************************************************************
 136:../../core/drivers/STC3115/src/stc3115.c **** * Function Name  : STC3115_ReadByte
 137:../../core/drivers/STC3115/src/stc3115.c **** * Description    : utility function to read the value stored in one register
 138:../../core/drivers/STC3115/src/stc3115.c **** * Input          : RegAddress: STC3115 register,
 139:../../core/drivers/STC3115/src/stc3115.c **** * Return         : 8-bit value, or 0 if error
 140:../../core/drivers/STC3115/src/stc3115.c **** *******************************************************************************/
 141:../../core/drivers/STC3115/src/stc3115.c **** static int STC3115_ReadByte(int RegAddress)
 142:../../core/drivers/STC3115/src/stc3115.c **** {
 143:../../core/drivers/STC3115/src/stc3115.c ****   int value;
 144:../../core/drivers/STC3115/src/stc3115.c ****   unsigned char data[2];
 145:../../core/drivers/STC3115/src/stc3115.c ****   int res;
 146:../../core/drivers/STC3115/src/stc3115.c ****   res = HAL_I2C_Mem_Read(hi2cLib, STC3115_SLAVE_ADDRESS_7BIT << 1, RegAddress, 1, (uint8_t *)data, 
ARM GAS  /tmp/ccORYvFR.s 			page 4


 147:../../core/drivers/STC3115/src/stc3115.c **** 	
 148:../../core/drivers/STC3115/src/stc3115.c ****   if (res >= 0)
 149:../../core/drivers/STC3115/src/stc3115.c ****   {
 150:../../core/drivers/STC3115/src/stc3115.c ****     /* no error */
 151:../../core/drivers/STC3115/src/stc3115.c ****     value = data[0];
 152:../../core/drivers/STC3115/src/stc3115.c ****   }
 153:../../core/drivers/STC3115/src/stc3115.c ****   else
 154:../../core/drivers/STC3115/src/stc3115.c ****     value=-1;
 155:../../core/drivers/STC3115/src/stc3115.c **** 
 156:../../core/drivers/STC3115/src/stc3115.c ****   return(value);
 157:../../core/drivers/STC3115/src/stc3115.c **** }
 158:../../core/drivers/STC3115/src/stc3115.c **** 
 159:../../core/drivers/STC3115/src/stc3115.c **** 
 160:../../core/drivers/STC3115/src/stc3115.c **** 
 161:../../core/drivers/STC3115/src/stc3115.c **** /*******************************************************************************
 162:../../core/drivers/STC3115/src/stc3115.c **** * Function Name  : STC3115_WriteByte
 163:../../core/drivers/STC3115/src/stc3115.c **** * Description    : utility function to write a 8-bit value into a register
 164:../../core/drivers/STC3115/src/stc3115.c **** * Input          : RegAddress: STC3115 register, Value: 8-bit value to write
 165:../../core/drivers/STC3115/src/stc3115.c **** * Return         : error status (STC3115_OK, !STC3115_OK)
 166:../../core/drivers/STC3115/src/stc3115.c **** *******************************************************************************/
 167:../../core/drivers/STC3115/src/stc3115.c **** static int STC3115_WriteByte(int RegAddress, unsigned char Value)
 168:../../core/drivers/STC3115/src/stc3115.c **** {
 169:../../core/drivers/STC3115/src/stc3115.c ****   int res;
 170:../../core/drivers/STC3115/src/stc3115.c ****   unsigned char data[2];
 171:../../core/drivers/STC3115/src/stc3115.c **** 
 172:../../core/drivers/STC3115/src/stc3115.c ****   data[0]= Value;
 173:../../core/drivers/STC3115/src/stc3115.c ****   res = HAL_I2C_Mem_Write(hi2cLib, STC3115_SLAVE_ADDRESS_7BIT << 1, RegAddress, 1, (uint8_t *)data,
 174:../../core/drivers/STC3115/src/stc3115.c **** 	
 175:../../core/drivers/STC3115/src/stc3115.c ****   return(res);
 176:../../core/drivers/STC3115/src/stc3115.c **** 
 177:../../core/drivers/STC3115/src/stc3115.c **** }
 178:../../core/drivers/STC3115/src/stc3115.c **** 
 179:../../core/drivers/STC3115/src/stc3115.c **** 
 180:../../core/drivers/STC3115/src/stc3115.c **** /*******************************************************************************
 181:../../core/drivers/STC3115/src/stc3115.c **** * Function Name  : STC3115_ReadWord
 182:../../core/drivers/STC3115/src/stc3115.c **** * Description    : utility function to read the value stored in one register pair
 183:../../core/drivers/STC3115/src/stc3115.c **** * Input          : RegAddress: STC3115 register,
 184:../../core/drivers/STC3115/src/stc3115.c **** * Return         : 16-bit value, or 0 if error
 185:../../core/drivers/STC3115/src/stc3115.c **** *******************************************************************************/
 186:../../core/drivers/STC3115/src/stc3115.c **** static int STC3115_ReadWord(int RegAddress)
 187:../../core/drivers/STC3115/src/stc3115.c **** {
 188:../../core/drivers/STC3115/src/stc3115.c ****   int value;
 189:../../core/drivers/STC3115/src/stc3115.c ****   unsigned char data[2];
 190:../../core/drivers/STC3115/src/stc3115.c ****   int res;
 191:../../core/drivers/STC3115/src/stc3115.c **** 
 192:../../core/drivers/STC3115/src/stc3115.c ****   res = HAL_I2C_Mem_Read(hi2cLib, STC3115_SLAVE_ADDRESS_7BIT << 1, RegAddress, 1, (uint8_t *)data, 
 193:../../core/drivers/STC3115/src/stc3115.c ****   
 194:../../core/drivers/STC3115/src/stc3115.c ****   if (res >= 0)
 195:../../core/drivers/STC3115/src/stc3115.c ****   {
 196:../../core/drivers/STC3115/src/stc3115.c ****     /* no error */
 197:../../core/drivers/STC3115/src/stc3115.c ****     value = data[1];
 198:../../core/drivers/STC3115/src/stc3115.c ****     value = (value <<8) | data[0];
 199:../../core/drivers/STC3115/src/stc3115.c ****   }
 200:../../core/drivers/STC3115/src/stc3115.c ****   else
 201:../../core/drivers/STC3115/src/stc3115.c ****     value=-1;
 202:../../core/drivers/STC3115/src/stc3115.c **** 
 203:../../core/drivers/STC3115/src/stc3115.c ****   return(value);
ARM GAS  /tmp/ccORYvFR.s 			page 5


 204:../../core/drivers/STC3115/src/stc3115.c **** }
 205:../../core/drivers/STC3115/src/stc3115.c **** 
 206:../../core/drivers/STC3115/src/stc3115.c **** int STC3115_ReadUnsignedWord(unsigned short RegAddress, unsigned short * RegData)
 207:../../core/drivers/STC3115/src/stc3115.c **** {
 208:../../core/drivers/STC3115/src/stc3115.c ****   unsigned short data16;
 209:../../core/drivers/STC3115/src/stc3115.c ****   unsigned char data8[2];
 210:../../core/drivers/STC3115/src/stc3115.c ****   int status;
 211:../../core/drivers/STC3115/src/stc3115.c **** 
 212:../../core/drivers/STC3115/src/stc3115.c ****   status = HAL_I2C_Mem_Read(hi2cLib, STC3115_SLAVE_ADDRESS_7BIT << 1, RegAddress, 1, (uint8_t *)dat
 213:../../core/drivers/STC3115/src/stc3115.c ****   
 214:../../core/drivers/STC3115/src/stc3115.c ****   if (status >= 0)
 215:../../core/drivers/STC3115/src/stc3115.c ****   {
 216:../../core/drivers/STC3115/src/stc3115.c ****     /* no error */
 217:../../core/drivers/STC3115/src/stc3115.c ****     data16 = data8[1];
 218:../../core/drivers/STC3115/src/stc3115.c ****     data16 = (data16 <<8) | data8[0];
 219:../../core/drivers/STC3115/src/stc3115.c ****     *RegData = data16;
 220:../../core/drivers/STC3115/src/stc3115.c ****   }
 221:../../core/drivers/STC3115/src/stc3115.c ****   else
 222:../../core/drivers/STC3115/src/stc3115.c ****     status = -1;
 223:../../core/drivers/STC3115/src/stc3115.c **** 
 224:../../core/drivers/STC3115/src/stc3115.c ****   return(status);
 225:../../core/drivers/STC3115/src/stc3115.c **** }
 226:../../core/drivers/STC3115/src/stc3115.c **** 
 227:../../core/drivers/STC3115/src/stc3115.c **** /*******************************************************************************
 228:../../core/drivers/STC3115/src/stc3115.c **** * Function Name  : STC3115_WriteWord
 229:../../core/drivers/STC3115/src/stc3115.c **** * Description    : utility function to write a 16-bit value into a register pair
 230:../../core/drivers/STC3115/src/stc3115.c **** * Input          : RegAddress: STC3115 register, Value: 16-bit value to write
 231:../../core/drivers/STC3115/src/stc3115.c **** * Return         : error status (STC3115_OK, !STC3115_OK)
 232:../../core/drivers/STC3115/src/stc3115.c **** *******************************************************************************/
 233:../../core/drivers/STC3115/src/stc3115.c **** static int STC3115_WriteWord(int RegAddress, int Value)
 234:../../core/drivers/STC3115/src/stc3115.c **** {
 235:../../core/drivers/STC3115/src/stc3115.c ****   int res;
 236:../../core/drivers/STC3115/src/stc3115.c ****   unsigned char data[2];
 237:../../core/drivers/STC3115/src/stc3115.c **** 
 238:../../core/drivers/STC3115/src/stc3115.c ****   data[0]= Value & 0xff; 
 239:../../core/drivers/STC3115/src/stc3115.c ****   data[1]= (Value>>8) & 0xff;
 240:../../core/drivers/STC3115/src/stc3115.c ****   
 241:../../core/drivers/STC3115/src/stc3115.c ****   res = HAL_I2C_Mem_Write(hi2cLib, STC3115_SLAVE_ADDRESS_7BIT << 1, RegAddress, 1, (uint8_t *)data,
 242:../../core/drivers/STC3115/src/stc3115.c **** 	
 243:../../core/drivers/STC3115/src/stc3115.c ****   return(res);
 244:../../core/drivers/STC3115/src/stc3115.c **** 
 245:../../core/drivers/STC3115/src/stc3115.c **** }
 246:../../core/drivers/STC3115/src/stc3115.c **** 
 247:../../core/drivers/STC3115/src/stc3115.c **** /*******************************************************************************
 248:../../core/drivers/STC3115/src/stc3115.c **** * Function Name  : STC3115_ReadWord
 249:../../core/drivers/STC3115/src/stc3115.c **** * Description    : utility function to read the value stored in one register pair
 250:../../core/drivers/STC3115/src/stc3115.c **** * Input          : RegAddress: STC3115 register, nbr: number of bytes to read
 251:../../core/drivers/STC3115/src/stc3115.c **** * Return         : 16-bit value, or 0 if error
 252:../../core/drivers/STC3115/src/stc3115.c **** *******************************************************************************/
 253:../../core/drivers/STC3115/src/stc3115.c **** static int STC3115_ReadBytes(unsigned char *data,int RegAddress,int nbr)
 254:../../core/drivers/STC3115/src/stc3115.c **** {
 255:../../core/drivers/STC3115/src/stc3115.c ****   int res;
 256:../../core/drivers/STC3115/src/stc3115.c **** 
 257:../../core/drivers/STC3115/src/stc3115.c ****   res = HAL_I2C_Mem_Read(hi2cLib, STC3115_SLAVE_ADDRESS_7BIT << 1, RegAddress, 1, (uint8_t *)data, 
 258:../../core/drivers/STC3115/src/stc3115.c ****   
 259:../../core/drivers/STC3115/src/stc3115.c ****   return(res);
 260:../../core/drivers/STC3115/src/stc3115.c **** }
ARM GAS  /tmp/ccORYvFR.s 			page 6


 261:../../core/drivers/STC3115/src/stc3115.c **** 
 262:../../core/drivers/STC3115/src/stc3115.c **** 
 263:../../core/drivers/STC3115/src/stc3115.c **** /*******************************************************************************
 264:../../core/drivers/STC3115/src/stc3115.c **** * Function Name  : STC3115_WriteWord
 265:../../core/drivers/STC3115/src/stc3115.c **** * Description    : utility function to write a 16-bit value into a register pair
 266:../../core/drivers/STC3115/src/stc3115.c **** * Input          : RegAddress: STC3115 register, Value: 16-bit value to write, nbr: number of bytes
 267:../../core/drivers/STC3115/src/stc3115.c **** * Return         : error status (STC3115_OK, !STC3115_OK)
 268:../../core/drivers/STC3115/src/stc3115.c **** *******************************************************************************/
 269:../../core/drivers/STC3115/src/stc3115.c **** static int STC3115_WriteBytes(unsigned char *data,int RegAddress,int nbr)
 270:../../core/drivers/STC3115/src/stc3115.c **** {
 271:../../core/drivers/STC3115/src/stc3115.c ****   int res;
 272:../../core/drivers/STC3115/src/stc3115.c **** 
 273:../../core/drivers/STC3115/src/stc3115.c ****   res = HAL_I2C_Mem_Write(hi2cLib, STC3115_SLAVE_ADDRESS_7BIT << 1, RegAddress, 1, (uint8_t *)data,
 274:../../core/drivers/STC3115/src/stc3115.c **** 	
 275:../../core/drivers/STC3115/src/stc3115.c ****   return(res);
 276:../../core/drivers/STC3115/src/stc3115.c **** }
 277:../../core/drivers/STC3115/src/stc3115.c **** 
 278:../../core/drivers/STC3115/src/stc3115.c **** 
 279:../../core/drivers/STC3115/src/stc3115.c **** 
 280:../../core/drivers/STC3115/src/stc3115.c **** /* ---- End of I2C R/W interface --------------------------------------------- */
 281:../../core/drivers/STC3115/src/stc3115.c **** 
 282:../../core/drivers/STC3115/src/stc3115.c **** /* ---- Internal functions --------------------------------------------------- */
 283:../../core/drivers/STC3115/src/stc3115.c **** 
 284:../../core/drivers/STC3115/src/stc3115.c **** /*******************************************************************************
 285:../../core/drivers/STC3115/src/stc3115.c **** * Function Name  : STC3115_GetStatusWord
 286:../../core/drivers/STC3115/src/stc3115.c **** * Description    :  Read the STC3115 status
 287:../../core/drivers/STC3115/src/stc3115.c **** * Input          : None
 288:../../core/drivers/STC3115/src/stc3115.c **** * Return         : status word (16bit: REG_MODE and REG_CTRL), -1 if error
 289:../../core/drivers/STC3115/src/stc3115.c **** *******************************************************************************/
 290:../../core/drivers/STC3115/src/stc3115.c **** static int STC3115_GetStatusWord(void)
 291:../../core/drivers/STC3115/src/stc3115.c **** {
 292:../../core/drivers/STC3115/src/stc3115.c ****   int value;
 293:../../core/drivers/STC3115/src/stc3115.c **** 
 294:../../core/drivers/STC3115/src/stc3115.c ****   /* first, check the presence of the STC3115 by reading first byte of dev. ID */
 295:../../core/drivers/STC3115/src/stc3115.c ****   if (STC3115_ReadByte(STC3115_REG_ID)!= STC3115_ID) return (-1);
 296:../../core/drivers/STC3115/src/stc3115.c **** 
 297:../../core/drivers/STC3115/src/stc3115.c ****   /* read REG_MODE and REG_CTRL */
 298:../../core/drivers/STC3115/src/stc3115.c ****   value = STC3115_ReadWord(STC3115_REG_MODE);
 299:../../core/drivers/STC3115/src/stc3115.c ****   value &= 0x7fff;   //(MSbit is unused, but used for error dectection here)
 300:../../core/drivers/STC3115/src/stc3115.c **** 
 301:../../core/drivers/STC3115/src/stc3115.c ****   return (value);
 302:../../core/drivers/STC3115/src/stc3115.c **** }
 303:../../core/drivers/STC3115/src/stc3115.c **** 
 304:../../core/drivers/STC3115/src/stc3115.c **** 
 305:../../core/drivers/STC3115/src/stc3115.c **** /*******************************************************************************
 306:../../core/drivers/STC3115/src/stc3115.c **** * Function Name  : STC3115_CheckI2cDeviceId
 307:../../core/drivers/STC3115/src/stc3115.c **** * Description    :  Read the hardcoded STC3115 ID number
 308:../../core/drivers/STC3115/src/stc3115.c **** * Input          : pointer to char
 309:../../core/drivers/STC3115/src/stc3115.c **** * Return         : status, -1 if error, -2 if bad ID
 310:../../core/drivers/STC3115/src/stc3115.c **** *******************************************************************************/
 311:../../core/drivers/STC3115/src/stc3115.c **** int STC3115_CheckI2cDeviceId(void)
 312:../../core/drivers/STC3115/src/stc3115.c **** {
 313:../../core/drivers/STC3115/src/stc3115.c ****   unsigned char RegAddress;
 314:../../core/drivers/STC3115/src/stc3115.c ****   unsigned char data8;
 315:../../core/drivers/STC3115/src/stc3115.c ****   int status;
 316:../../core/drivers/STC3115/src/stc3115.c **** 
 317:../../core/drivers/STC3115/src/stc3115.c ****   RegAddress = STC3115_REG_ID;
ARM GAS  /tmp/ccORYvFR.s 			page 7


 318:../../core/drivers/STC3115/src/stc3115.c ****   status = HAL_I2C_Mem_Read(hi2cLib, STC3115_SLAVE_ADDRESS_7BIT << 1, RegAddress, 1, (uint8_t *)dat
 319:../../core/drivers/STC3115/src/stc3115.c **** 
 320:../../core/drivers/STC3115/src/stc3115.c ****   if (status >= 0)
 321:../../core/drivers/STC3115/src/stc3115.c ****   {
 322:../../core/drivers/STC3115/src/stc3115.c **** 	  if(data8 == STC3115_ID)
 323:../../core/drivers/STC3115/src/stc3115.c **** 	  {
 324:../../core/drivers/STC3115/src/stc3115.c **** 		  status = 0; //OK
 325:../../core/drivers/STC3115/src/stc3115.c **** 	  }
 326:../../core/drivers/STC3115/src/stc3115.c **** 	  else
 327:../../core/drivers/STC3115/src/stc3115.c **** 	  {
 328:../../core/drivers/STC3115/src/stc3115.c **** 		  status = -2; //I2C is working, but the ID doesn't match.
 329:../../core/drivers/STC3115/src/stc3115.c **** 	  }
 330:../../core/drivers/STC3115/src/stc3115.c ****   }
 331:../../core/drivers/STC3115/src/stc3115.c ****   else
 332:../../core/drivers/STC3115/src/stc3115.c ****   {
 333:../../core/drivers/STC3115/src/stc3115.c **** 	  status = -1; // I2C error
 334:../../core/drivers/STC3115/src/stc3115.c ****   }
 335:../../core/drivers/STC3115/src/stc3115.c **** 
 336:../../core/drivers/STC3115/src/stc3115.c ****   return(status);
 337:../../core/drivers/STC3115/src/stc3115.c **** }
 338:../../core/drivers/STC3115/src/stc3115.c **** 
 339:../../core/drivers/STC3115/src/stc3115.c **** /*******************************************************************************
 340:../../core/drivers/STC3115/src/stc3115.c **** * Function Name  : STC3115_GetRunningCounter
 341:../../core/drivers/STC3115/src/stc3115.c **** * Description    :  Get the STC3115 Convertion counter value
 342:../../core/drivers/STC3115/src/stc3115.c **** * Input          : None
 343:../../core/drivers/STC3115/src/stc3115.c **** * Return         : status word (REG_COUNTER), -1 if error
 344:../../core/drivers/STC3115/src/stc3115.c **** *******************************************************************************/
 345:../../core/drivers/STC3115/src/stc3115.c **** int STC3115_GetRunningCounter(void)
 346:../../core/drivers/STC3115/src/stc3115.c **** {
 347:../../core/drivers/STC3115/src/stc3115.c ****   unsigned short value;
 348:../../core/drivers/STC3115/src/stc3115.c ****   int status;
 349:../../core/drivers/STC3115/src/stc3115.c **** 
 350:../../core/drivers/STC3115/src/stc3115.c ****   /* read STC3115_REG_COUNTER */
 351:../../core/drivers/STC3115/src/stc3115.c ****   status = STC3115_ReadUnsignedWord(STC3115_REG_COUNTER, &value);
 352:../../core/drivers/STC3115/src/stc3115.c **** 
 353:../../core/drivers/STC3115/src/stc3115.c ****   if(status < 0) //error
 354:../../core/drivers/STC3115/src/stc3115.c **** 	  value = -1;
 355:../../core/drivers/STC3115/src/stc3115.c **** 
 356:../../core/drivers/STC3115/src/stc3115.c ****   return ((int)value);
 357:../../core/drivers/STC3115/src/stc3115.c **** }
 358:../../core/drivers/STC3115/src/stc3115.c **** 
 359:../../core/drivers/STC3115/src/stc3115.c **** /*******************************************************************************
 360:../../core/drivers/STC3115/src/stc3115.c **** * Function Name  : STC3115_SetParamAndRun
 361:../../core/drivers/STC3115/src/stc3115.c **** * Description    :  initialize the STC3115 parameters and Start the device to monitor the battery
 362:../../core/drivers/STC3115/src/stc3115.c **** * Input          : rst: init algo param
 363:../../core/drivers/STC3115/src/stc3115.c **** * Return         : 0
 364:../../core/drivers/STC3115/src/stc3115.c **** *******************************************************************************/
 365:../../core/drivers/STC3115/src/stc3115.c **** static void STC3115_SetParamAndRun(STC3115_ConfigData_TypeDef *ConfigData)
 366:../../core/drivers/STC3115/src/stc3115.c **** {
 367:../../core/drivers/STC3115/src/stc3115.c ****   int value;
 368:../../core/drivers/STC3115/src/stc3115.c ****   
 369:../../core/drivers/STC3115/src/stc3115.c ****   /* set GG_RUN=0 before changing algo parameters */
 370:../../core/drivers/STC3115/src/stc3115.c ****   STC3115_WriteByte(STC3115_REG_MODE, STC3115_REGMODE_DEFAULT_STANDBY);
 371:../../core/drivers/STC3115/src/stc3115.c ****   
 372:../../core/drivers/STC3115/src/stc3115.c ****   /* init OCV curve */
 373:../../core/drivers/STC3115/src/stc3115.c **** 	STC3115_WriteBytes((unsigned char*) ConfigData->OCVOffset, STC3115_REG_OCVTAB, STC3115_OCVTAB_SIZE
 374:../../core/drivers/STC3115/src/stc3115.c ****   
ARM GAS  /tmp/ccORYvFR.s 			page 8


 375:../../core/drivers/STC3115/src/stc3115.c ****   /* set alm level if different from default */
 376:../../core/drivers/STC3115/src/stc3115.c ****   if (ConfigData->Alm_SOC !=0 )   
 377:../../core/drivers/STC3115/src/stc3115.c ****      STC3115_WriteByte(STC3115_REG_ALARM_SOC,ConfigData->Alm_SOC*2); 
 378:../../core/drivers/STC3115/src/stc3115.c ****   if (ConfigData->Alm_Vbat !=0 ) 
 379:../../core/drivers/STC3115/src/stc3115.c ****   {
 380:../../core/drivers/STC3115/src/stc3115.c ****     value= ((long)(ConfigData->Alm_Vbat << 9) / VoltageFactor); /* LSB=8*2.2mV */
 381:../../core/drivers/STC3115/src/stc3115.c ****     STC3115_WriteByte(STC3115_REG_ALARM_VOLTAGE, value);
 382:../../core/drivers/STC3115/src/stc3115.c ****   }
 383:../../core/drivers/STC3115/src/stc3115.c ****     
 384:../../core/drivers/STC3115/src/stc3115.c ****   /* relaxation timer */
 385:../../core/drivers/STC3115/src/stc3115.c ****   if (ConfigData->Rsense !=0 )  
 386:../../core/drivers/STC3115/src/stc3115.c ****   {
 387:../../core/drivers/STC3115/src/stc3115.c ****     value= ((long)(ConfigData->RelaxCurrent << 9) / (CurrentFactor / ConfigData->Rsense));   /* LSB
 388:../../core/drivers/STC3115/src/stc3115.c ****     STC3115_WriteByte(STC3115_REG_CURRENT_THRES,value); 
 389:../../core/drivers/STC3115/src/stc3115.c ****   }
 390:../../core/drivers/STC3115/src/stc3115.c ****   
 391:../../core/drivers/STC3115/src/stc3115.c ****   /* set parameters VM_CNF and CC_CNF */
 392:../../core/drivers/STC3115/src/stc3115.c ****   if (ConfigData->CC_cnf != 0 ) STC3115_WriteWord(STC3115_REG_CC_CNF, ConfigData->CC_cnf);
 393:../../core/drivers/STC3115/src/stc3115.c ****   else STC3115_WriteWord(STC3115_REG_CC_CNF, 395); //force writing a default value at startup
 394:../../core/drivers/STC3115/src/stc3115.c ****   
 395:../../core/drivers/STC3115/src/stc3115.c ****   if (ConfigData->VM_cnf !=0 ) STC3115_WriteWord(STC3115_REG_VM_CNF, ConfigData->VM_cnf);
 396:../../core/drivers/STC3115/src/stc3115.c ****   else STC3115_WriteWord(STC3115_REG_VM_CNF, 321); //force writing a default value at startup
 397:../../core/drivers/STC3115/src/stc3115.c **** 
 398:../../core/drivers/STC3115/src/stc3115.c ****   //if (RAMData.reg.CC_cnf != 0) STC3115_WriteWord(STC3115_REG_CC_CNF, RAMData.reg.CC_cnf);
 399:../../core/drivers/STC3115/src/stc3115.c ****   //if (RAMData.reg.VM_cnf != 0) STC3115_WriteWord(STC3115_REG_VM_CNF, RAMData.reg.VM_cnf);
 400:../../core/drivers/STC3115/src/stc3115.c **** 
 401:../../core/drivers/STC3115/src/stc3115.c ****   STC3115_WriteByte(STC3115_REG_CTRL,0x03);  /*   clear PORDET, BATFAIL, free ALM pin, reset conv c
 402:../../core/drivers/STC3115/src/stc3115.c ****   STC3115_WriteByte(STC3115_REG_MODE, STC3115_GG_RUN | (STC3115_VMODE * ConfigData->Vmode) | (STC31
 403:../../core/drivers/STC3115/src/stc3115.c ****  
 404:../../core/drivers/STC3115/src/stc3115.c **** }
 405:../../core/drivers/STC3115/src/stc3115.c **** 
 406:../../core/drivers/STC3115/src/stc3115.c **** 
 407:../../core/drivers/STC3115/src/stc3115.c **** 
 408:../../core/drivers/STC3115/src/stc3115.c **** 
 409:../../core/drivers/STC3115/src/stc3115.c **** /*******************************************************************************
 410:../../core/drivers/STC3115/src/stc3115.c **** * Function Name  : STC3115_Startup
 411:../../core/drivers/STC3115/src/stc3115.c **** * Description    :  initialize and start the STC3115 at application startup
 412:../../core/drivers/STC3115/src/stc3115.c **** * Input          : None
 413:../../core/drivers/STC3115/src/stc3115.c **** * Return         : 0 if ok, -1 if error
 414:../../core/drivers/STC3115/src/stc3115.c **** *******************************************************************************/
 415:../../core/drivers/STC3115/src/stc3115.c **** static int STC3115_Startup(STC3115_ConfigData_TypeDef *ConfigData)
 416:../../core/drivers/STC3115/src/stc3115.c **** {
 417:../../core/drivers/STC3115/src/stc3115.c **** 	int res, HRSOC;
 418:../../core/drivers/STC3115/src/stc3115.c **** 	int ocv, ocv_min;
 419:../../core/drivers/STC3115/src/stc3115.c **** 	int OCVOffset[16] = OCV_OFFSET_TAB;
 420:../../core/drivers/STC3115/src/stc3115.c **** 
 421:../../core/drivers/STC3115/src/stc3115.c **** 	/* check STC31xx status */
 422:../../core/drivers/STC3115/src/stc3115.c **** 	res = STC3115_GetStatusWord();
 423:../../core/drivers/STC3115/src/stc3115.c **** 	if (res<0) return(res);
 424:../../core/drivers/STC3115/src/stc3115.c **** 
 425:../../core/drivers/STC3115/src/stc3115.c **** 	/* read OCV */
 426:../../core/drivers/STC3115/src/stc3115.c **** 	ocv = STC3115_ReadWord(STC3115_REG_OCV);
 427:../../core/drivers/STC3115/src/stc3115.c **** 
 428:../../core/drivers/STC3115/src/stc3115.c **** 	/* Check OCV integrity after reset: it must be above or equal to OCV min = 3300 (mV) + OCVOffset[0
 429:../../core/drivers/STC3115/src/stc3115.c **** 	ocv_min = 6000 + OCVOffset[0];
 430:../../core/drivers/STC3115/src/stc3115.c **** 	if (ocv <= ocv_min) 
 431:../../core/drivers/STC3115/src/stc3115.c **** 	{
ARM GAS  /tmp/ccORYvFR.s 			page 9


 432:../../core/drivers/STC3115/src/stc3115.c **** 		HRSOC = 0;
 433:../../core/drivers/STC3115/src/stc3115.c **** 		res = STC3115_WriteWord(STC3115_REG_SOC, HRSOC); //force both SOC and OCV to 0
 434:../../core/drivers/STC3115/src/stc3115.c **** 		STC3115_SetParamAndRun(ConfigData);  /* set STC3115 parameters and run it  */
 435:../../core/drivers/STC3115/src/stc3115.c **** 	}
 436:../../core/drivers/STC3115/src/stc3115.c **** 	else 
 437:../../core/drivers/STC3115/src/stc3115.c **** 	{
 438:../../core/drivers/STC3115/src/stc3115.c **** 		STC3115_SetParamAndRun(ConfigData);  /* set STC3115 parameters and run it  */
 439:../../core/drivers/STC3115/src/stc3115.c **** 		
 440:../../core/drivers/STC3115/src/stc3115.c **** 		/* rewrite ocv to start SOC with updated OCV curve */
 441:../../core/drivers/STC3115/src/stc3115.c **** 		res = STC3115_WriteWord(STC3115_REG_OCV, ocv);
 442:../../core/drivers/STC3115/src/stc3115.c **** 	}
 443:../../core/drivers/STC3115/src/stc3115.c **** 
 444:../../core/drivers/STC3115/src/stc3115.c **** 	return(0);
 445:../../core/drivers/STC3115/src/stc3115.c **** }
 446:../../core/drivers/STC3115/src/stc3115.c **** 
 447:../../core/drivers/STC3115/src/stc3115.c **** 
 448:../../core/drivers/STC3115/src/stc3115.c **** /*******************************************************************************
 449:../../core/drivers/STC3115/src/stc3115.c **** * Function Name  : STC3115_Restore
 450:../../core/drivers/STC3115/src/stc3115.c **** * Description    :  Restore STC3115 previous good state from values stored in internal 16byte RAM
 451:../../core/drivers/STC3115/src/stc3115.c **** * Input          : None
 452:../../core/drivers/STC3115/src/stc3115.c **** * Return         : 
 453:../../core/drivers/STC3115/src/stc3115.c **** *******************************************************************************/
 454:../../core/drivers/STC3115/src/stc3115.c **** static int STC3115_Restore(STC3115_ConfigData_TypeDef *ConfigData)
 455:../../core/drivers/STC3115/src/stc3115.c **** {
 456:../../core/drivers/STC3115/src/stc3115.c ****   int res;
 457:../../core/drivers/STC3115/src/stc3115.c **** 
 458:../../core/drivers/STC3115/src/stc3115.c ****   /* check STC31xx status */
 459:../../core/drivers/STC3115/src/stc3115.c ****   res = STC3115_GetStatusWord();
 460:../../core/drivers/STC3115/src/stc3115.c ****   if (res<0) return(res);
 461:../../core/drivers/STC3115/src/stc3115.c ****  
 462:../../core/drivers/STC3115/src/stc3115.c ****   STC3115_SetParamAndRun(ConfigData);  /* set STC3115 parameters and run it  */
 463:../../core/drivers/STC3115/src/stc3115.c **** 
 464:../../core/drivers/STC3115/src/stc3115.c ****   /* restore last SOC from STC3115 embedded RAM data for better accuracy */
 465:../../core/drivers/STC3115/src/stc3115.c ****   // Note: The latest SOC is saved every time GasGauge_Task() is called (i.e every 5s).
 466:../../core/drivers/STC3115/src/stc3115.c ****   STC3115_WriteWord(STC3115_REG_SOC,RAMData.reg.HRSOC); //force a new SoC to the fuel gauge
 467:../../core/drivers/STC3115/src/stc3115.c **** 
 468:../../core/drivers/STC3115/src/stc3115.c ****   return(0);
 469:../../core/drivers/STC3115/src/stc3115.c **** }
 470:../../core/drivers/STC3115/src/stc3115.c **** 
 471:../../core/drivers/STC3115/src/stc3115.c **** 
 472:../../core/drivers/STC3115/src/stc3115.c **** 
 473:../../core/drivers/STC3115/src/stc3115.c **** 
 474:../../core/drivers/STC3115/src/stc3115.c **** /*******************************************************************************
 475:../../core/drivers/STC3115/src/stc3115.c **** * Function Name  : STC3115_Powerdown
 476:../../core/drivers/STC3115/src/stc3115.c **** * Description    :  stop the STC3115 at application power down (i.e Standby mode with RAM content r
 477:../../core/drivers/STC3115/src/stc3115.c **** * Input          : None
 478:../../core/drivers/STC3115/src/stc3115.c **** * Return         : error status (STC3115_OK, !STC3115_OK)
 479:../../core/drivers/STC3115/src/stc3115.c **** *******************************************************************************/
 480:../../core/drivers/STC3115/src/stc3115.c **** static int STC3115_Powerdown(void)
 481:../../core/drivers/STC3115/src/stc3115.c **** {
 482:../../core/drivers/STC3115/src/stc3115.c ****   int res;
 483:../../core/drivers/STC3115/src/stc3115.c ****   
 484:../../core/drivers/STC3115/src/stc3115.c ****   /* write 0x01 into the REG_CTRL to release IO0 pin open, */
 485:../../core/drivers/STC3115/src/stc3115.c ****   STC3115_WriteByte(STC3115_REG_CTRL, 0x01);
 486:../../core/drivers/STC3115/src/stc3115.c **** 
 487:../../core/drivers/STC3115/src/stc3115.c ****   /* write 0 into the REG_MODE register to put the STC3115 in standby mode */
 488:../../core/drivers/STC3115/src/stc3115.c ****    res = STC3115_WriteByte(STC3115_REG_MODE, 0);
ARM GAS  /tmp/ccORYvFR.s 			page 10


 489:../../core/drivers/STC3115/src/stc3115.c ****    if (res!= STC3115_OK) return (res);
 490:../../core/drivers/STC3115/src/stc3115.c **** 
 491:../../core/drivers/STC3115/src/stc3115.c ****    return (STC3115_OK);
 492:../../core/drivers/STC3115/src/stc3115.c **** }
 493:../../core/drivers/STC3115/src/stc3115.c **** 
 494:../../core/drivers/STC3115/src/stc3115.c **** 
 495:../../core/drivers/STC3115/src/stc3115.c **** 
 496:../../core/drivers/STC3115/src/stc3115.c **** 
 497:../../core/drivers/STC3115/src/stc3115.c **** /*******************************************************************************
 498:../../core/drivers/STC3115/src/stc3115.c **** * Function Name  : STC3115_conv
 499:../../core/drivers/STC3115/src/stc3115.c **** * Description    : conversion utility 
 500:../../core/drivers/STC3115/src/stc3115.c **** *  convert a raw 16-bit value from STC3115 registers into user units (mA, mAh, mV, °C)
 501:../../core/drivers/STC3115/src/stc3115.c **** *  (optimized routine for efficient operation on 8-bit processors such as STM8)
 502:../../core/drivers/STC3115/src/stc3115.c **** * Input          : value, factor
 503:../../core/drivers/STC3115/src/stc3115.c **** * Return         : result = value * factor / 4096
 504:../../core/drivers/STC3115/src/stc3115.c **** *******************************************************************************/
 505:../../core/drivers/STC3115/src/stc3115.c **** static int STC3115_conv(short value, unsigned short factor)
 506:../../core/drivers/STC3115/src/stc3115.c **** {
  27              		.loc 1 506 0
  28              		.cfi_startproc
  29              		@ args = 0, pretend = 0, frame = 0
  30              		@ frame_needed = 0, uses_anonymous_args = 0
  31              		@ link register save eliminated.
  32              	.LVL0:
 507:../../core/drivers/STC3115/src/stc3115.c ****   int v;
 508:../../core/drivers/STC3115/src/stc3115.c ****   
 509:../../core/drivers/STC3115/src/stc3115.c ****   v= ( (long) value * factor ) >> 11;
  33              		.loc 1 509 0
  34 0000 00FB01F0 		mul	r0, r0, r1
  35              	.LVL1:
  36 0004 C012     		asrs	r0, r0, #11
  37              	.LVL2:
 510:../../core/drivers/STC3115/src/stc3115.c ****   v= (v+1)/2;
  38              		.loc 1 510 0
  39 0006 0130     		adds	r0, r0, #1
  40              	.LVL3:
  41 0008 00EBD070 		add	r0, r0, r0, lsr #31
  42              	.LVL4:
 511:../../core/drivers/STC3115/src/stc3115.c ****   
 512:../../core/drivers/STC3115/src/stc3115.c ****   return (v);
 513:../../core/drivers/STC3115/src/stc3115.c **** }
  43              		.loc 1 513 0
  44 000c 4010     		asrs	r0, r0, #1
  45              	.LVL5:
  46 000e 7047     		bx	lr
  47              		.cfi_endproc
  48              	.LFE137:
  50              		.section	.text.STC3115_CalcRamCRC8,"ax",%progbits
  51              		.align	1
  52              		.syntax unified
  53              		.thumb
  54              		.thumb_func
  55              		.fpu fpv4-sp-d16
  57              	STC3115_CalcRamCRC8:
  58              	.LFB141:
 514:../../core/drivers/STC3115/src/stc3115.c **** 
 515:../../core/drivers/STC3115/src/stc3115.c **** /*******************************************************************************
ARM GAS  /tmp/ccORYvFR.s 			page 11


 516:../../core/drivers/STC3115/src/stc3115.c **** * Function Name  : STC3115_ReadBatteryData
 517:../../core/drivers/STC3115/src/stc3115.c **** * Description    :  utility function to read the battery data from STC3115
 518:../../core/drivers/STC3115/src/stc3115.c **** *                  to be called every 5s or so
 519:../../core/drivers/STC3115/src/stc3115.c **** * Input          : ref to BatteryData structure
 520:../../core/drivers/STC3115/src/stc3115.c **** * Return         : error status (STC3115_OK, !STC3115_OK)
 521:../../core/drivers/STC3115/src/stc3115.c **** *******************************************************************************/
 522:../../core/drivers/STC3115/src/stc3115.c **** static int STC3115_ReadBatteryData(STC3115_BatteryData_TypeDef *BatteryData)
 523:../../core/drivers/STC3115/src/stc3115.c **** {
 524:../../core/drivers/STC3115/src/stc3115.c ****   unsigned char data[16];
 525:../../core/drivers/STC3115/src/stc3115.c ****   int res;
 526:../../core/drivers/STC3115/src/stc3115.c ****   int value;
 527:../../core/drivers/STC3115/src/stc3115.c **** 
 528:../../core/drivers/STC3115/src/stc3115.c **** 
 529:../../core/drivers/STC3115/src/stc3115.c ****   /* read STC3115 registers 0 to 14 */
 530:../../core/drivers/STC3115/src/stc3115.c **** 	res = STC3115_ReadBytes(data, 0, 15);
 531:../../core/drivers/STC3115/src/stc3115.c **** 	
 532:../../core/drivers/STC3115/src/stc3115.c ****   if (res<0) return(res);  /* read failed */
 533:../../core/drivers/STC3115/src/stc3115.c **** 	
 534:../../core/drivers/STC3115/src/stc3115.c ****   /* fill the battery status data */
 535:../../core/drivers/STC3115/src/stc3115.c ****   /* SOC */
 536:../../core/drivers/STC3115/src/stc3115.c ****   value=data[3]; value = (value<<8) + data[2];
 537:../../core/drivers/STC3115/src/stc3115.c ****   BatteryData->HRSOC = value;     /* result in 1/512% */
 538:../../core/drivers/STC3115/src/stc3115.c ****   BatteryData->SOC = (value * 10 + 256) / 512; /* result in 0.1% */
 539:../../core/drivers/STC3115/src/stc3115.c **** 
 540:../../core/drivers/STC3115/src/stc3115.c ****   /* conversion counter */
 541:../../core/drivers/STC3115/src/stc3115.c ****   value=data[5]; value = (value<<8) + data[4];
 542:../../core/drivers/STC3115/src/stc3115.c ****   BatteryData->ConvCounter = value;
 543:../../core/drivers/STC3115/src/stc3115.c **** 
 544:../../core/drivers/STC3115/src/stc3115.c ****   /* current */
 545:../../core/drivers/STC3115/src/stc3115.c ****   value=data[7]; value = (value<<8) + data[6];
 546:../../core/drivers/STC3115/src/stc3115.c ****   value &= 0x3fff;   /* mask unused bits */
 547:../../core/drivers/STC3115/src/stc3115.c ****   if (value>=0x2000) value = value - 0x4000;  /* convert to signed value */
 548:../../core/drivers/STC3115/src/stc3115.c ****   BatteryData->Current = STC3115_conv(value, CurrentFactor/RSENSE);  /* result in mA */
 549:../../core/drivers/STC3115/src/stc3115.c **** 
 550:../../core/drivers/STC3115/src/stc3115.c ****   /* voltage */
 551:../../core/drivers/STC3115/src/stc3115.c ****   value=data[9]; value = (value<<8) + data[8];
 552:../../core/drivers/STC3115/src/stc3115.c ****   value &= 0x0fff; /* mask unused bits */
 553:../../core/drivers/STC3115/src/stc3115.c ****   if (value>=0x0800) value -= 0x1000;  /* convert to signed value */
 554:../../core/drivers/STC3115/src/stc3115.c ****   value = STC3115_conv(value,VoltageFactor);  /* result in mV */
 555:../../core/drivers/STC3115/src/stc3115.c ****   BatteryData->Voltage = value;  /* result in mV */
 556:../../core/drivers/STC3115/src/stc3115.c **** 
 557:../../core/drivers/STC3115/src/stc3115.c ****   /* temperature */
 558:../../core/drivers/STC3115/src/stc3115.c ****   value=data[10]; 
 559:../../core/drivers/STC3115/src/stc3115.c ****   if (value>=0x80) value -= 0x100;  /* convert to signed value */
 560:../../core/drivers/STC3115/src/stc3115.c ****   BatteryData->Temperature = value*10;  /* result in 0.1°C */
 561:../../core/drivers/STC3115/src/stc3115.c **** 
 562:../../core/drivers/STC3115/src/stc3115.c ****   /* OCV */
 563:../../core/drivers/STC3115/src/stc3115.c ****   value=data[14]; value = (value<<8) + data[13];
 564:../../core/drivers/STC3115/src/stc3115.c ****   value &= 0x3fff; /* mask unused bits */
 565:../../core/drivers/STC3115/src/stc3115.c ****   if (value>=0x02000) value -= 0x4000;  /* convert to signed value */
 566:../../core/drivers/STC3115/src/stc3115.c ****   value = STC3115_conv(value,VoltageFactor);  
 567:../../core/drivers/STC3115/src/stc3115.c ****   value = (value+2) / 4;  /* divide by 4 with rounding */
 568:../../core/drivers/STC3115/src/stc3115.c ****   BatteryData->OCV = value;  /* result in mV */
 569:../../core/drivers/STC3115/src/stc3115.c ****   
 570:../../core/drivers/STC3115/src/stc3115.c **** //  res=STC3115_Read(1, STC3115_REG_RELAX_COUNT, data);
 571:../../core/drivers/STC3115/src/stc3115.c **** //  if (res<0) return(res);  /* read failed */
 572:../../core/drivers/STC3115/src/stc3115.c **** //  BatteryData->RelaxTimer = data[0];
ARM GAS  /tmp/ccORYvFR.s 			page 12


 573:../../core/drivers/STC3115/src/stc3115.c **** 
 574:../../core/drivers/STC3115/src/stc3115.c ****   
 575:../../core/drivers/STC3115/src/stc3115.c ****   return(STC3115_OK);
 576:../../core/drivers/STC3115/src/stc3115.c **** }
 577:../../core/drivers/STC3115/src/stc3115.c **** 
 578:../../core/drivers/STC3115/src/stc3115.c **** 
 579:../../core/drivers/STC3115/src/stc3115.c **** /*******************************************************************************
 580:../../core/drivers/STC3115/src/stc3115.c **** * Function Name  : STC3115_ReadRamData
 581:../../core/drivers/STC3115/src/stc3115.c **** * Description    : utility function to read the internal RAM data from STC3115
 582:../../core/drivers/STC3115/src/stc3115.c **** * Input          : ref to RAM data array
 583:../../core/drivers/STC3115/src/stc3115.c **** * Return         : error status (STC3115_OK, !STC3115_OK)
 584:../../core/drivers/STC3115/src/stc3115.c **** *******************************************************************************/
 585:../../core/drivers/STC3115/src/stc3115.c **** static int STC3115_ReadRamData(unsigned char *RamData)
 586:../../core/drivers/STC3115/src/stc3115.c **** {
 587:../../core/drivers/STC3115/src/stc3115.c **** 	return STC3115_ReadBytes(RamData, STC3115_REG_RAM, STC3115_RAM_SIZE);
 588:../../core/drivers/STC3115/src/stc3115.c **** }
 589:../../core/drivers/STC3115/src/stc3115.c **** 
 590:../../core/drivers/STC3115/src/stc3115.c **** /*******************************************************************************
 591:../../core/drivers/STC3115/src/stc3115.c **** * Function Name  : STC3115_WriteRamData
 592:../../core/drivers/STC3115/src/stc3115.c **** * Description    : utility function to write the RAM data into STC3115
 593:../../core/drivers/STC3115/src/stc3115.c **** * Input          : ref to RAM data array
 594:../../core/drivers/STC3115/src/stc3115.c **** * Return         : error status (STC3115_OK, !STC3115_OK)
 595:../../core/drivers/STC3115/src/stc3115.c **** *******************************************************************************/
 596:../../core/drivers/STC3115/src/stc3115.c **** static int STC3115_WriteRamData(unsigned char *RamData)
 597:../../core/drivers/STC3115/src/stc3115.c **** {
 598:../../core/drivers/STC3115/src/stc3115.c **** 	return STC3115_WriteBytes(RamData, STC3115_REG_RAM, STC3115_RAM_SIZE);
 599:../../core/drivers/STC3115/src/stc3115.c **** }
 600:../../core/drivers/STC3115/src/stc3115.c **** 
 601:../../core/drivers/STC3115/src/stc3115.c **** /*******************************************************************************
 602:../../core/drivers/STC3115/src/stc3115.c **** * Function Name  : STC3115_CalcRamCRC8
 603:../../core/drivers/STC3115/src/stc3115.c **** * Description    : calculate the CRC8
 604:../../core/drivers/STC3115/src/stc3115.c **** * Input          : data: pointer to byte array, n: number of vytes
 605:../../core/drivers/STC3115/src/stc3115.c **** * Return         : CRC calue
 606:../../core/drivers/STC3115/src/stc3115.c **** *******************************************************************************/
 607:../../core/drivers/STC3115/src/stc3115.c **** static int STC3115_CalcRamCRC8(unsigned char *data, int n)
 608:../../core/drivers/STC3115/src/stc3115.c **** {
  59              		.loc 1 608 0
  60              		.cfi_startproc
  61              		@ args = 0, pretend = 0, frame = 0
  62              		@ frame_needed = 0, uses_anonymous_args = 0
  63              		@ link register save eliminated.
  64              	.LVL6:
  65 0000 10B4     		push	{r4}
  66              	.LCFI0:
  67              		.cfi_def_cfa_offset 4
  68              		.cfi_offset 4, -4
  69              	.LVL7:
 609:../../core/drivers/STC3115/src/stc3115.c ****   int crc=0;   /* initial value */
 610:../../core/drivers/STC3115/src/stc3115.c ****   int i, j;
 611:../../core/drivers/STC3115/src/stc3115.c **** 
 612:../../core/drivers/STC3115/src/stc3115.c ****   for (i=0;i<n;i++)
  70              		.loc 1 612 0
  71 0002 0024     		movs	r4, #0
 609:../../core/drivers/STC3115/src/stc3115.c ****   int crc=0;   /* initial value */
  72              		.loc 1 609 0
  73 0004 2346     		mov	r3, r4
  74              		.loc 1 612 0
ARM GAS  /tmp/ccORYvFR.s 			page 13


  75 0006 0AE0     		b	.L3
  76              	.LVL8:
  77              	.L5:
 613:../../core/drivers/STC3115/src/stc3115.c ****   {
 614:../../core/drivers/STC3115/src/stc3115.c ****     crc ^= data[i];
 615:../../core/drivers/STC3115/src/stc3115.c ****     for (j=0;j<8;j++) 
  78              		.loc 1 615 0 discriminator 2
  79 0008 0132     		adds	r2, r2, #1
  80              	.LVL9:
  81              	.L4:
  82              		.loc 1 615 0 is_stmt 0 discriminator 1
  83 000a 072A     		cmp	r2, #7
  84 000c 06DC     		bgt	.L9
 616:../../core/drivers/STC3115/src/stc3115.c ****     {
 617:../../core/drivers/STC3115/src/stc3115.c ****       crc <<= 1;
  85              		.loc 1 617 0 is_stmt 1
  86 000e 5B00     		lsls	r3, r3, #1
  87              	.LVL10:
 618:../../core/drivers/STC3115/src/stc3115.c ****       if (crc & 0x100)  crc ^= 7;
  88              		.loc 1 618 0
  89 0010 13F4807F 		tst	r3, #256
  90 0014 F8D0     		beq	.L5
  91              		.loc 1 618 0 is_stmt 0 discriminator 1
  92 0016 83F00703 		eor	r3, r3, #7
  93              	.LVL11:
  94 001a F5E7     		b	.L5
  95              	.L9:
 612:../../core/drivers/STC3115/src/stc3115.c ****   {
  96              		.loc 1 612 0 is_stmt 1 discriminator 2
  97 001c 0134     		adds	r4, r4, #1
  98              	.LVL12:
  99              	.L3:
 612:../../core/drivers/STC3115/src/stc3115.c ****   {
 100              		.loc 1 612 0 is_stmt 0 discriminator 1
 101 001e 8C42     		cmp	r4, r1
 102 0020 03DA     		bge	.L10
 614:../../core/drivers/STC3115/src/stc3115.c ****     for (j=0;j<8;j++) 
 103              		.loc 1 614 0 is_stmt 1
 104 0022 025D     		ldrb	r2, [r0, r4]	@ zero_extendqisi2
 105 0024 5340     		eors	r3, r3, r2
 106              	.LVL13:
 615:../../core/drivers/STC3115/src/stc3115.c ****     {
 107              		.loc 1 615 0
 108 0026 0022     		movs	r2, #0
 109 0028 EFE7     		b	.L4
 110              	.LVL14:
 111              	.L10:
 619:../../core/drivers/STC3115/src/stc3115.c ****     }
 620:../../core/drivers/STC3115/src/stc3115.c ****   }
 621:../../core/drivers/STC3115/src/stc3115.c ****   return(crc & 255);
 622:../../core/drivers/STC3115/src/stc3115.c **** 
 623:../../core/drivers/STC3115/src/stc3115.c **** }
 112              		.loc 1 623 0
 113 002a D8B2     		uxtb	r0, r3
 114              	.LVL15:
 115 002c 5DF8044B 		ldr	r4, [sp], #4
 116              	.LCFI1:
ARM GAS  /tmp/ccORYvFR.s 			page 14


 117              		.cfi_restore 4
 118              		.cfi_def_cfa_offset 0
 119              	.LVL16:
 120 0030 7047     		bx	lr
 121              		.cfi_endproc
 122              	.LFE141:
 124              		.section	.text.STC3115_UpdateRamCRC,"ax",%progbits
 125              		.align	1
 126              		.syntax unified
 127              		.thumb
 128              		.thumb_func
 129              		.fpu fpv4-sp-d16
 131              	STC3115_UpdateRamCRC:
 132              	.LFB142:
 624:../../core/drivers/STC3115/src/stc3115.c **** 
 625:../../core/drivers/STC3115/src/stc3115.c **** /*******************************************************************************
 626:../../core/drivers/STC3115/src/stc3115.c **** * Function Name  : STC3115_UpdateRamCRC
 627:../../core/drivers/STC3115/src/stc3115.c **** * Description    : calculate the RAM CRC
 628:../../core/drivers/STC3115/src/stc3115.c **** * Input          : none
 629:../../core/drivers/STC3115/src/stc3115.c **** * Return         : CRC value
 630:../../core/drivers/STC3115/src/stc3115.c **** *******************************************************************************/
 631:../../core/drivers/STC3115/src/stc3115.c **** static int STC3115_UpdateRamCRC(void)
 632:../../core/drivers/STC3115/src/stc3115.c **** {
 133              		.loc 1 632 0
 134              		.cfi_startproc
 135              		@ args = 0, pretend = 0, frame = 0
 136              		@ frame_needed = 0, uses_anonymous_args = 0
 137 0000 10B5     		push	{r4, lr}
 138              	.LCFI2:
 139              		.cfi_def_cfa_offset 8
 140              		.cfi_offset 4, -8
 141              		.cfi_offset 14, -4
 633:../../core/drivers/STC3115/src/stc3115.c ****   int res;
 634:../../core/drivers/STC3115/src/stc3115.c ****   
 635:../../core/drivers/STC3115/src/stc3115.c ****   res=STC3115_CalcRamCRC8(RAMData.db,STC3115_RAM_SIZE-1);
 142              		.loc 1 635 0
 143 0002 034C     		ldr	r4, .L13
 144 0004 0F21     		movs	r1, #15
 145 0006 2046     		mov	r0, r4
 146 0008 FFF7FEFF 		bl	STC3115_CalcRamCRC8
 147              	.LVL17:
 636:../../core/drivers/STC3115/src/stc3115.c ****   RAMData.db[STC3115_RAM_SIZE-1] = res;   /* last byte holds the CRC */
 148              		.loc 1 636 0
 149 000c E073     		strb	r0, [r4, #15]
 637:../../core/drivers/STC3115/src/stc3115.c ****   return(res);
 638:../../core/drivers/STC3115/src/stc3115.c **** }
 150              		.loc 1 638 0
 151 000e 10BD     		pop	{r4, pc}
 152              	.L14:
 153              		.align	2
 154              	.L13:
 155 0010 00000000 		.word	.LANCHOR0
 156              		.cfi_endproc
 157              	.LFE142:
 159              		.section	.text.STC3115_InitRamData,"ax",%progbits
 160              		.align	1
 161              		.syntax unified
ARM GAS  /tmp/ccORYvFR.s 			page 15


 162              		.thumb
 163              		.thumb_func
 164              		.fpu fpv4-sp-d16
 166              	STC3115_InitRamData:
 167              	.LFB143:
 639:../../core/drivers/STC3115/src/stc3115.c **** 
 640:../../core/drivers/STC3115/src/stc3115.c **** /*******************************************************************************
 641:../../core/drivers/STC3115/src/stc3115.c **** * Function Name  : STC3115_InitRamData
 642:../../core/drivers/STC3115/src/stc3115.c **** * Description    : Init the STC3115 RAM registers with valid test word and CRC
 643:../../core/drivers/STC3115/src/stc3115.c **** * Input          : STC3115_ConfigData_TypeDef structure
 644:../../core/drivers/STC3115/src/stc3115.c **** * Return         : none
 645:../../core/drivers/STC3115/src/stc3115.c **** *******************************************************************************/
 646:../../core/drivers/STC3115/src/stc3115.c **** static void STC3115_InitRamData(STC3115_ConfigData_TypeDef *ConfigData)
 647:../../core/drivers/STC3115/src/stc3115.c **** {
 168              		.loc 1 647 0
 169              		.cfi_startproc
 170              		@ args = 0, pretend = 0, frame = 0
 171              		@ frame_needed = 0, uses_anonymous_args = 0
 172              	.LVL18:
 173 0000 08B5     		push	{r3, lr}
 174              	.LCFI3:
 175              		.cfi_def_cfa_offset 8
 176              		.cfi_offset 3, -8
 177              		.cfi_offset 14, -4
 178              	.LVL19:
 648:../../core/drivers/STC3115/src/stc3115.c ****   int index;
 649:../../core/drivers/STC3115/src/stc3115.c **** 
 650:../../core/drivers/STC3115/src/stc3115.c ****   //Set full RAM tab to 0
 651:../../core/drivers/STC3115/src/stc3115.c ****   for (index=0;index<STC3115_RAM_SIZE;index++) 
 179              		.loc 1 651 0
 180 0002 0023     		movs	r3, #0
 181 0004 03E0     		b	.L16
 182              	.LVL20:
 183              	.L17:
 652:../../core/drivers/STC3115/src/stc3115.c ****     RAMData.db[index]=0;
 184              		.loc 1 652 0 discriminator 3
 185 0006 0021     		movs	r1, #0
 186 0008 074A     		ldr	r2, .L19
 187 000a D154     		strb	r1, [r2, r3]
 651:../../core/drivers/STC3115/src/stc3115.c ****     RAMData.db[index]=0;
 188              		.loc 1 651 0 discriminator 3
 189 000c 0133     		adds	r3, r3, #1
 190              	.LVL21:
 191              	.L16:
 651:../../core/drivers/STC3115/src/stc3115.c ****     RAMData.db[index]=0;
 192              		.loc 1 651 0 is_stmt 0 discriminator 1
 193 000e 0F2B     		cmp	r3, #15
 194 0010 F9DD     		ble	.L17
 653:../../core/drivers/STC3115/src/stc3115.c ****   
 654:../../core/drivers/STC3115/src/stc3115.c ****   //Fill RAM regs
 655:../../core/drivers/STC3115/src/stc3115.c ****   RAMData.reg.TestWord=RAM_TESTWORD;  /* Fixed word to check RAM integrity */
 195              		.loc 1 655 0 is_stmt 1
 196 0012 054B     		ldr	r3, .L19
 197              	.LVL22:
 198 0014 45F2A932 		movw	r2, #21417
 199 0018 1A80     		strh	r2, [r3]	@ movhi
 656:../../core/drivers/STC3115/src/stc3115.c ****   RAMData.reg.CC_cnf = ConfigData->CC_cnf;
ARM GAS  /tmp/ccORYvFR.s 			page 16


 200              		.loc 1 656 0
 201 001a C268     		ldr	r2, [r0, #12]
 202 001c 9A80     		strh	r2, [r3, #4]	@ movhi
 657:../../core/drivers/STC3115/src/stc3115.c ****   RAMData.reg.VM_cnf = ConfigData->VM_cnf;
 203              		.loc 1 657 0
 204 001e 0269     		ldr	r2, [r0, #16]
 205 0020 DA80     		strh	r2, [r3, #6]	@ movhi
 658:../../core/drivers/STC3115/src/stc3115.c ****   
 659:../../core/drivers/STC3115/src/stc3115.c ****   /* update the crc */
 660:../../core/drivers/STC3115/src/stc3115.c ****   STC3115_UpdateRamCRC();
 206              		.loc 1 660 0
 207 0022 FFF7FEFF 		bl	STC3115_UpdateRamCRC
 208              	.LVL23:
 209 0026 08BD     		pop	{r3, pc}
 210              	.L20:
 211              		.align	2
 212              	.L19:
 213 0028 00000000 		.word	.LANCHOR0
 214              		.cfi_endproc
 215              	.LFE143:
 217              		.section	.text.STC3115_ReadBytes,"ax",%progbits
 218              		.align	1
 219              		.syntax unified
 220              		.thumb
 221              		.thumb_func
 222              		.fpu fpv4-sp-d16
 224              	STC3115_ReadBytes:
 225              	.LFB128:
 254:../../core/drivers/STC3115/src/stc3115.c ****   int res;
 226              		.loc 1 254 0
 227              		.cfi_startproc
 228              		@ args = 0, pretend = 0, frame = 0
 229              		@ frame_needed = 0, uses_anonymous_args = 0
 230              	.LVL24:
 231 0000 10B5     		push	{r4, lr}
 232              	.LCFI4:
 233              		.cfi_def_cfa_offset 8
 234              		.cfi_offset 4, -8
 235              		.cfi_offset 14, -4
 236 0002 84B0     		sub	sp, sp, #16
 237              	.LCFI5:
 238              		.cfi_def_cfa_offset 24
 257:../../core/drivers/STC3115/src/stc3115.c ****   
 239              		.loc 1 257 0
 240 0004 074B     		ldr	r3, .L23
 241 0006 1C68     		ldr	r4, [r3]
 242 0008 4FF47A73 		mov	r3, #1000
 243 000c 0293     		str	r3, [sp, #8]
 244 000e 92B2     		uxth	r2, r2
 245              	.LVL25:
 246 0010 0192     		str	r2, [sp, #4]
 247 0012 0090     		str	r0, [sp]
 248 0014 0123     		movs	r3, #1
 249 0016 8AB2     		uxth	r2, r1
 250 0018 E021     		movs	r1, #224
 251              	.LVL26:
 252 001a 2046     		mov	r0, r4
ARM GAS  /tmp/ccORYvFR.s 			page 17


 253              	.LVL27:
 254 001c FFF7FEFF 		bl	HAL_I2C_Mem_Read
 255              	.LVL28:
 260:../../core/drivers/STC3115/src/stc3115.c **** 
 256              		.loc 1 260 0
 257 0020 04B0     		add	sp, sp, #16
 258              	.LCFI6:
 259              		.cfi_def_cfa_offset 8
 260              		@ sp needed
 261 0022 10BD     		pop	{r4, pc}
 262              	.L24:
 263              		.align	2
 264              	.L23:
 265 0024 00000000 		.word	.LANCHOR1
 266              		.cfi_endproc
 267              	.LFE128:
 269              		.section	.text.STC3115_ReadRamData,"ax",%progbits
 270              		.align	1
 271              		.syntax unified
 272              		.thumb
 273              		.thumb_func
 274              		.fpu fpv4-sp-d16
 276              	STC3115_ReadRamData:
 277              	.LFB139:
 586:../../core/drivers/STC3115/src/stc3115.c **** 	return STC3115_ReadBytes(RamData, STC3115_REG_RAM, STC3115_RAM_SIZE);
 278              		.loc 1 586 0
 279              		.cfi_startproc
 280              		@ args = 0, pretend = 0, frame = 0
 281              		@ frame_needed = 0, uses_anonymous_args = 0
 282              	.LVL29:
 283 0000 08B5     		push	{r3, lr}
 284              	.LCFI7:
 285              		.cfi_def_cfa_offset 8
 286              		.cfi_offset 3, -8
 287              		.cfi_offset 14, -4
 587:../../core/drivers/STC3115/src/stc3115.c **** }
 288              		.loc 1 587 0
 289 0002 1022     		movs	r2, #16
 290 0004 2021     		movs	r1, #32
 291 0006 FFF7FEFF 		bl	STC3115_ReadBytes
 292              	.LVL30:
 588:../../core/drivers/STC3115/src/stc3115.c **** 
 293              		.loc 1 588 0
 294 000a 08BD     		pop	{r3, pc}
 295              		.cfi_endproc
 296              	.LFE139:
 298              		.section	.text.STC3115_ReadBatteryData,"ax",%progbits
 299              		.align	1
 300              		.syntax unified
 301              		.thumb
 302              		.thumb_func
 303              		.fpu fpv4-sp-d16
 305              	STC3115_ReadBatteryData:
 306              	.LFB138:
 523:../../core/drivers/STC3115/src/stc3115.c ****   unsigned char data[16];
 307              		.loc 1 523 0
 308              		.cfi_startproc
ARM GAS  /tmp/ccORYvFR.s 			page 18


 309              		@ args = 0, pretend = 0, frame = 16
 310              		@ frame_needed = 0, uses_anonymous_args = 0
 311              	.LVL31:
 312 0000 10B5     		push	{r4, lr}
 313              	.LCFI8:
 314              		.cfi_def_cfa_offset 8
 315              		.cfi_offset 4, -8
 316              		.cfi_offset 14, -4
 317 0002 84B0     		sub	sp, sp, #16
 318              	.LCFI9:
 319              		.cfi_def_cfa_offset 24
 320 0004 0446     		mov	r4, r0
 530:../../core/drivers/STC3115/src/stc3115.c **** 	
 321              		.loc 1 530 0
 322 0006 0F22     		movs	r2, #15
 323 0008 0021     		movs	r1, #0
 324 000a 6846     		mov	r0, sp
 325              	.LVL32:
 326 000c FFF7FEFF 		bl	STC3115_ReadBytes
 327              	.LVL33:
 532:../../core/drivers/STC3115/src/stc3115.c **** 	
 328              		.loc 1 532 0
 329 0010 0028     		cmp	r0, #0
 330 0012 59DB     		blt	.L27
 536:../../core/drivers/STC3115/src/stc3115.c ****   BatteryData->HRSOC = value;     /* result in 1/512% */
 331              		.loc 1 536 0
 332 0014 9DF80320 		ldrb	r2, [sp, #3]	@ zero_extendqisi2
 333              	.LVL34:
 334 0018 9DF80230 		ldrb	r3, [sp, #2]	@ zero_extendqisi2
 335 001c 03EB0223 		add	r3, r3, r2, lsl #8
 336              	.LVL35:
 537:../../core/drivers/STC3115/src/stc3115.c ****   BatteryData->SOC = (value * 10 + 256) / 512; /* result in 0.1% */
 337              		.loc 1 537 0
 338 0020 6360     		str	r3, [r4, #4]
 538:../../core/drivers/STC3115/src/stc3115.c **** 
 339              		.loc 1 538 0
 340 0022 03EB8303 		add	r3, r3, r3, lsl #2
 341              	.LVL36:
 342 0026 5A00     		lsls	r2, r3, #1
 343 0028 12F58072 		adds	r2, r2, #256
 344 002c 4ED4     		bmi	.L36
 345              	.L29:
 346 002e 5212     		asrs	r2, r2, #9
 347 0030 A260     		str	r2, [r4, #8]
 541:../../core/drivers/STC3115/src/stc3115.c ****   BatteryData->ConvCounter = value;
 348              		.loc 1 541 0
 349 0032 9DF80520 		ldrb	r2, [sp, #5]	@ zero_extendqisi2
 350              	.LVL37:
 351 0036 9DF80430 		ldrb	r3, [sp, #4]	@ zero_extendqisi2
 352 003a 03EB0223 		add	r3, r3, r2, lsl #8
 353              	.LVL38:
 542:../../core/drivers/STC3115/src/stc3115.c **** 
 354              		.loc 1 542 0
 355 003e A361     		str	r3, [r4, #24]
 545:../../core/drivers/STC3115/src/stc3115.c ****   value &= 0x3fff;   /* mask unused bits */
 356              		.loc 1 545 0
 357 0040 9DF80730 		ldrb	r3, [sp, #7]	@ zero_extendqisi2
ARM GAS  /tmp/ccORYvFR.s 			page 19


 358              	.LVL39:
 359 0044 9DF80600 		ldrb	r0, [sp, #6]	@ zero_extendqisi2
 360              	.LVL40:
 361 0048 00EB0320 		add	r0, r0, r3, lsl #8
 362              	.LVL41:
 546:../../core/drivers/STC3115/src/stc3115.c ****   if (value>=0x2000) value = value - 0x4000;  /* convert to signed value */
 363              		.loc 1 546 0
 364 004c C0F30D00 		ubfx	r0, r0, #0, #14
 365              	.LVL42:
 547:../../core/drivers/STC3115/src/stc3115.c ****   BatteryData->Current = STC3115_conv(value, CurrentFactor/RSENSE);  /* result in mA */
 366              		.loc 1 547 0
 367 0050 B0F5005F 		cmp	r0, #8192
 368 0054 01DB     		blt	.L30
 547:../../core/drivers/STC3115/src/stc3115.c ****   BatteryData->Current = STC3115_conv(value, CurrentFactor/RSENSE);  /* result in mA */
 369              		.loc 1 547 0 is_stmt 0 discriminator 1
 370 0056 A0F58040 		sub	r0, r0, #16384
 371              	.LVL43:
 372              	.L30:
 548:../../core/drivers/STC3115/src/stc3115.c **** 
 373              		.loc 1 548 0 is_stmt 1
 374 005a 40F2E111 		movw	r1, #481
 375 005e FFF7FEFF 		bl	STC3115_conv
 376              	.LVL44:
 377 0062 2061     		str	r0, [r4, #16]
 551:../../core/drivers/STC3115/src/stc3115.c ****   value &= 0x0fff; /* mask unused bits */
 378              		.loc 1 551 0
 379 0064 9DF80930 		ldrb	r3, [sp, #9]	@ zero_extendqisi2
 380              	.LVL45:
 381 0068 9DF80800 		ldrb	r0, [sp, #8]	@ zero_extendqisi2
 382 006c 00EB0320 		add	r0, r0, r3, lsl #8
 383              	.LVL46:
 552:../../core/drivers/STC3115/src/stc3115.c ****   if (value>=0x0800) value -= 0x1000;  /* convert to signed value */
 384              		.loc 1 552 0
 385 0070 C0F30B00 		ubfx	r0, r0, #0, #12
 386              	.LVL47:
 553:../../core/drivers/STC3115/src/stc3115.c ****   value = STC3115_conv(value,VoltageFactor);  /* result in mV */
 387              		.loc 1 553 0
 388 0074 B0F5006F 		cmp	r0, #2048
 389 0078 01DB     		blt	.L31
 553:../../core/drivers/STC3115/src/stc3115.c ****   value = STC3115_conv(value,VoltageFactor);  /* result in mV */
 390              		.loc 1 553 0 is_stmt 0 discriminator 1
 391 007a A0F58050 		sub	r0, r0, #4096
 392              	.LVL48:
 393              	.L31:
 554:../../core/drivers/STC3115/src/stc3115.c ****   BatteryData->Voltage = value;  /* result in mV */
 394              		.loc 1 554 0 is_stmt 1
 395 007e 42F23331 		movw	r1, #9011
 396 0082 FFF7FEFF 		bl	STC3115_conv
 397              	.LVL49:
 555:../../core/drivers/STC3115/src/stc3115.c **** 
 398              		.loc 1 555 0
 399 0086 E060     		str	r0, [r4, #12]
 558:../../core/drivers/STC3115/src/stc3115.c ****   if (value>=0x80) value -= 0x100;  /* convert to signed value */
 400              		.loc 1 558 0
 401 0088 9DF80A30 		ldrb	r3, [sp, #10]	@ zero_extendqisi2
 402              	.LVL50:
 559:../../core/drivers/STC3115/src/stc3115.c ****   BatteryData->Temperature = value*10;  /* result in 0.1°C */
ARM GAS  /tmp/ccORYvFR.s 			page 20


 403              		.loc 1 559 0
 404 008c 7F2B     		cmp	r3, #127
 405 008e 01DD     		ble	.L32
 559:../../core/drivers/STC3115/src/stc3115.c ****   BatteryData->Temperature = value*10;  /* result in 0.1°C */
 406              		.loc 1 559 0 is_stmt 0 discriminator 1
 407 0090 A3F58073 		sub	r3, r3, #256
 408              	.LVL51:
 409              	.L32:
 560:../../core/drivers/STC3115/src/stc3115.c **** 
 410              		.loc 1 560 0 is_stmt 1
 411 0094 03EB8303 		add	r3, r3, r3, lsl #2
 412              	.LVL52:
 413 0098 5A00     		lsls	r2, r3, #1
 414 009a 6261     		str	r2, [r4, #20]
 563:../../core/drivers/STC3115/src/stc3115.c ****   value &= 0x3fff; /* mask unused bits */
 415              		.loc 1 563 0
 416 009c 9DF80E30 		ldrb	r3, [sp, #14]	@ zero_extendqisi2
 417              	.LVL53:
 418 00a0 9DF80D00 		ldrb	r0, [sp, #13]	@ zero_extendqisi2
 419 00a4 00EB0320 		add	r0, r0, r3, lsl #8
 420              	.LVL54:
 564:../../core/drivers/STC3115/src/stc3115.c ****   if (value>=0x02000) value -= 0x4000;  /* convert to signed value */
 421              		.loc 1 564 0
 422 00a8 C0F30D00 		ubfx	r0, r0, #0, #14
 423              	.LVL55:
 565:../../core/drivers/STC3115/src/stc3115.c ****   value = STC3115_conv(value,VoltageFactor);  
 424              		.loc 1 565 0
 425 00ac B0F5005F 		cmp	r0, #8192
 426 00b0 01DB     		blt	.L33
 565:../../core/drivers/STC3115/src/stc3115.c ****   value = STC3115_conv(value,VoltageFactor);  
 427              		.loc 1 565 0 is_stmt 0 discriminator 1
 428 00b2 A0F58040 		sub	r0, r0, #16384
 429              	.LVL56:
 430              	.L33:
 566:../../core/drivers/STC3115/src/stc3115.c ****   value = (value+2) / 4;  /* divide by 4 with rounding */
 431              		.loc 1 566 0 is_stmt 1
 432 00b6 42F23331 		movw	r1, #9011
 433 00ba FFF7FEFF 		bl	STC3115_conv
 434              	.LVL57:
 567:../../core/drivers/STC3115/src/stc3115.c ****   BatteryData->OCV = value;  /* result in mV */
 435              		.loc 1 567 0
 436 00be 0230     		adds	r0, r0, #2
 437              	.LVL58:
 438 00c0 07D4     		bmi	.L37
 439              	.LVL59:
 440              	.L34:
 441 00c2 8010     		asrs	r0, r0, #2
 442              	.LVL60:
 568:../../core/drivers/STC3115/src/stc3115.c ****   
 443              		.loc 1 568 0
 444 00c4 E061     		str	r0, [r4, #28]
 575:../../core/drivers/STC3115/src/stc3115.c **** }
 445              		.loc 1 575 0
 446 00c6 0020     		movs	r0, #0
 447              	.LVL61:
 448              	.L27:
 576:../../core/drivers/STC3115/src/stc3115.c **** 
ARM GAS  /tmp/ccORYvFR.s 			page 21


 449              		.loc 1 576 0
 450 00c8 04B0     		add	sp, sp, #16
 451              	.LCFI10:
 452              		.cfi_remember_state
 453              		.cfi_def_cfa_offset 8
 454              		@ sp needed
 455 00ca 10BD     		pop	{r4, pc}
 456              	.LVL62:
 457              	.L36:
 458              	.LCFI11:
 459              		.cfi_restore_state
 538:../../core/drivers/STC3115/src/stc3115.c **** 
 460              		.loc 1 538 0
 461 00cc 02F2FF12 		addw	r2, r2, #511
 462 00d0 ADE7     		b	.L29
 463              	.LVL63:
 464              	.L37:
 567:../../core/drivers/STC3115/src/stc3115.c ****   BatteryData->OCV = value;  /* result in mV */
 465              		.loc 1 567 0
 466 00d2 0330     		adds	r0, r0, #3
 467              	.LVL64:
 468 00d4 F5E7     		b	.L34
 469              		.cfi_endproc
 470              	.LFE138:
 472              		.section	.text.STC3115_ReadByte,"ax",%progbits
 473              		.align	1
 474              		.syntax unified
 475              		.thumb
 476              		.thumb_func
 477              		.fpu fpv4-sp-d16
 479              	STC3115_ReadByte:
 480              	.LFB123:
 142:../../core/drivers/STC3115/src/stc3115.c ****   int value;
 481              		.loc 1 142 0
 482              		.cfi_startproc
 483              		@ args = 0, pretend = 0, frame = 8
 484              		@ frame_needed = 0, uses_anonymous_args = 0
 485              	.LVL65:
 486 0000 10B5     		push	{r4, lr}
 487              	.LCFI12:
 488              		.cfi_def_cfa_offset 8
 489              		.cfi_offset 4, -8
 490              		.cfi_offset 14, -4
 491 0002 86B0     		sub	sp, sp, #24
 492              	.LCFI13:
 493              		.cfi_def_cfa_offset 32
 146:../../core/drivers/STC3115/src/stc3115.c **** 	
 494              		.loc 1 146 0
 495 0004 084B     		ldr	r3, .L40
 496 0006 1C68     		ldr	r4, [r3]
 497 0008 4FF47A73 		mov	r3, #1000
 498 000c 0293     		str	r3, [sp, #8]
 499 000e 0123     		movs	r3, #1
 500 0010 0193     		str	r3, [sp, #4]
 501 0012 05AA     		add	r2, sp, #20
 502 0014 0092     		str	r2, [sp]
 503 0016 82B2     		uxth	r2, r0
ARM GAS  /tmp/ccORYvFR.s 			page 22


 504 0018 E021     		movs	r1, #224
 505 001a 2046     		mov	r0, r4
 506              	.LVL66:
 507 001c FFF7FEFF 		bl	HAL_I2C_Mem_Read
 508              	.LVL67:
 157:../../core/drivers/STC3115/src/stc3115.c **** 
 509              		.loc 1 157 0
 510 0020 9DF81400 		ldrb	r0, [sp, #20]	@ zero_extendqisi2
 511              	.LVL68:
 512 0024 06B0     		add	sp, sp, #24
 513              	.LCFI14:
 514              		.cfi_def_cfa_offset 8
 515              		@ sp needed
 516 0026 10BD     		pop	{r4, pc}
 517              	.L41:
 518              		.align	2
 519              	.L40:
 520 0028 00000000 		.word	.LANCHOR1
 521              		.cfi_endproc
 522              	.LFE123:
 524              		.section	.text.STC3115_ReadWord,"ax",%progbits
 525              		.align	1
 526              		.syntax unified
 527              		.thumb
 528              		.thumb_func
 529              		.fpu fpv4-sp-d16
 531              	STC3115_ReadWord:
 532              	.LFB125:
 187:../../core/drivers/STC3115/src/stc3115.c ****   int value;
 533              		.loc 1 187 0
 534              		.cfi_startproc
 535              		@ args = 0, pretend = 0, frame = 8
 536              		@ frame_needed = 0, uses_anonymous_args = 0
 537              	.LVL69:
 538 0000 10B5     		push	{r4, lr}
 539              	.LCFI15:
 540              		.cfi_def_cfa_offset 8
 541              		.cfi_offset 4, -8
 542              		.cfi_offset 14, -4
 543 0002 86B0     		sub	sp, sp, #24
 544              	.LCFI16:
 545              		.cfi_def_cfa_offset 32
 192:../../core/drivers/STC3115/src/stc3115.c ****   
 546              		.loc 1 192 0
 547 0004 0B4B     		ldr	r3, .L44
 548 0006 1C68     		ldr	r4, [r3]
 549 0008 4FF47A73 		mov	r3, #1000
 550 000c 0293     		str	r3, [sp, #8]
 551 000e 0223     		movs	r3, #2
 552 0010 0193     		str	r3, [sp, #4]
 553 0012 05AB     		add	r3, sp, #20
 554 0014 0093     		str	r3, [sp]
 555 0016 0123     		movs	r3, #1
 556 0018 82B2     		uxth	r2, r0
 557 001a E021     		movs	r1, #224
 558 001c 2046     		mov	r0, r4
 559              	.LVL70:
ARM GAS  /tmp/ccORYvFR.s 			page 23


 560 001e FFF7FEFF 		bl	HAL_I2C_Mem_Read
 561              	.LVL71:
 197:../../core/drivers/STC3115/src/stc3115.c ****     value = (value <<8) | data[0];
 562              		.loc 1 197 0
 563 0022 9DF81500 		ldrb	r0, [sp, #21]	@ zero_extendqisi2
 564              	.LVL72:
 198:../../core/drivers/STC3115/src/stc3115.c ****   }
 565              		.loc 1 198 0
 566 0026 9DF81430 		ldrb	r3, [sp, #20]	@ zero_extendqisi2
 567              	.LVL73:
 204:../../core/drivers/STC3115/src/stc3115.c **** 
 568              		.loc 1 204 0
 569 002a 43EA0020 		orr	r0, r3, r0, lsl #8
 570              	.LVL74:
 571 002e 06B0     		add	sp, sp, #24
 572              	.LCFI17:
 573              		.cfi_def_cfa_offset 8
 574              		@ sp needed
 575 0030 10BD     		pop	{r4, pc}
 576              	.L45:
 577 0032 00BF     		.align	2
 578              	.L44:
 579 0034 00000000 		.word	.LANCHOR1
 580              		.cfi_endproc
 581              	.LFE125:
 583              		.section	.text.STC3115_GetStatusWord,"ax",%progbits
 584              		.align	1
 585              		.syntax unified
 586              		.thumb
 587              		.thumb_func
 588              		.fpu fpv4-sp-d16
 590              	STC3115_GetStatusWord:
 591              	.LFB130:
 291:../../core/drivers/STC3115/src/stc3115.c ****   int value;
 592              		.loc 1 291 0
 593              		.cfi_startproc
 594              		@ args = 0, pretend = 0, frame = 0
 595              		@ frame_needed = 0, uses_anonymous_args = 0
 596 0000 08B5     		push	{r3, lr}
 597              	.LCFI18:
 598              		.cfi_def_cfa_offset 8
 599              		.cfi_offset 3, -8
 600              		.cfi_offset 14, -4
 295:../../core/drivers/STC3115/src/stc3115.c **** 
 601              		.loc 1 295 0
 602 0002 1820     		movs	r0, #24
 603 0004 FFF7FEFF 		bl	STC3115_ReadByte
 604              	.LVL75:
 605 0008 1428     		cmp	r0, #20
 606 000a 05D1     		bne	.L48
 298:../../core/drivers/STC3115/src/stc3115.c ****   value &= 0x7fff;   //(MSbit is unused, but used for error dectection here)
 607              		.loc 1 298 0
 608 000c 0020     		movs	r0, #0
 609 000e FFF7FEFF 		bl	STC3115_ReadWord
 610              	.LVL76:
 299:../../core/drivers/STC3115/src/stc3115.c **** 
 611              		.loc 1 299 0
ARM GAS  /tmp/ccORYvFR.s 			page 24


 612 0012 C0F30E00 		ubfx	r0, r0, #0, #15
 613              	.LVL77:
 301:../../core/drivers/STC3115/src/stc3115.c **** }
 614              		.loc 1 301 0
 615 0016 08BD     		pop	{r3, pc}
 616              	.LVL78:
 617              	.L48:
 295:../../core/drivers/STC3115/src/stc3115.c **** 
 618              		.loc 1 295 0
 619 0018 4FF0FF30 		mov	r0, #-1
 302:../../core/drivers/STC3115/src/stc3115.c **** 
 620              		.loc 1 302 0
 621 001c 08BD     		pop	{r3, pc}
 622              		.cfi_endproc
 623              	.LFE130:
 625              		.section	.text.STC3115_WriteBytes,"ax",%progbits
 626              		.align	1
 627              		.syntax unified
 628              		.thumb
 629              		.thumb_func
 630              		.fpu fpv4-sp-d16
 632              	STC3115_WriteBytes:
 633              	.LFB129:
 270:../../core/drivers/STC3115/src/stc3115.c ****   int res;
 634              		.loc 1 270 0
 635              		.cfi_startproc
 636              		@ args = 0, pretend = 0, frame = 0
 637              		@ frame_needed = 0, uses_anonymous_args = 0
 638              	.LVL79:
 639 0000 10B5     		push	{r4, lr}
 640              	.LCFI19:
 641              		.cfi_def_cfa_offset 8
 642              		.cfi_offset 4, -8
 643              		.cfi_offset 14, -4
 644 0002 84B0     		sub	sp, sp, #16
 645              	.LCFI20:
 646              		.cfi_def_cfa_offset 24
 273:../../core/drivers/STC3115/src/stc3115.c **** 	
 647              		.loc 1 273 0
 648 0004 074B     		ldr	r3, .L52
 649 0006 1C68     		ldr	r4, [r3]
 650 0008 4FF47A73 		mov	r3, #1000
 651 000c 0293     		str	r3, [sp, #8]
 652 000e 92B2     		uxth	r2, r2
 653              	.LVL80:
 654 0010 0192     		str	r2, [sp, #4]
 655 0012 0090     		str	r0, [sp]
 656 0014 0123     		movs	r3, #1
 657 0016 8AB2     		uxth	r2, r1
 658 0018 E021     		movs	r1, #224
 659              	.LVL81:
 660 001a 2046     		mov	r0, r4
 661              	.LVL82:
 662 001c FFF7FEFF 		bl	HAL_I2C_Mem_Write
 663              	.LVL83:
 276:../../core/drivers/STC3115/src/stc3115.c **** 
 664              		.loc 1 276 0
ARM GAS  /tmp/ccORYvFR.s 			page 25


 665 0020 04B0     		add	sp, sp, #16
 666              	.LCFI21:
 667              		.cfi_def_cfa_offset 8
 668              		@ sp needed
 669 0022 10BD     		pop	{r4, pc}
 670              	.L53:
 671              		.align	2
 672              	.L52:
 673 0024 00000000 		.word	.LANCHOR1
 674              		.cfi_endproc
 675              	.LFE129:
 677              		.section	.text.STC3115_WriteRamData,"ax",%progbits
 678              		.align	1
 679              		.syntax unified
 680              		.thumb
 681              		.thumb_func
 682              		.fpu fpv4-sp-d16
 684              	STC3115_WriteRamData:
 685              	.LFB140:
 597:../../core/drivers/STC3115/src/stc3115.c **** 	return STC3115_WriteBytes(RamData, STC3115_REG_RAM, STC3115_RAM_SIZE);
 686              		.loc 1 597 0
 687              		.cfi_startproc
 688              		@ args = 0, pretend = 0, frame = 0
 689              		@ frame_needed = 0, uses_anonymous_args = 0
 690              	.LVL84:
 691 0000 08B5     		push	{r3, lr}
 692              	.LCFI22:
 693              		.cfi_def_cfa_offset 8
 694              		.cfi_offset 3, -8
 695              		.cfi_offset 14, -4
 598:../../core/drivers/STC3115/src/stc3115.c **** }
 696              		.loc 1 598 0
 697 0002 1022     		movs	r2, #16
 698 0004 2021     		movs	r1, #32
 699 0006 FFF7FEFF 		bl	STC3115_WriteBytes
 700              	.LVL85:
 599:../../core/drivers/STC3115/src/stc3115.c **** 
 701              		.loc 1 599 0
 702 000a 08BD     		pop	{r3, pc}
 703              		.cfi_endproc
 704              	.LFE140:
 706              		.section	.text.STC3115_WriteByte,"ax",%progbits
 707              		.align	1
 708              		.syntax unified
 709              		.thumb
 710              		.thumb_func
 711              		.fpu fpv4-sp-d16
 713              	STC3115_WriteByte:
 714              	.LFB124:
 168:../../core/drivers/STC3115/src/stc3115.c ****   int res;
 715              		.loc 1 168 0
 716              		.cfi_startproc
 717              		@ args = 0, pretend = 0, frame = 8
 718              		@ frame_needed = 0, uses_anonymous_args = 0
 719              	.LVL86:
 720 0000 10B5     		push	{r4, lr}
 721              	.LCFI23:
ARM GAS  /tmp/ccORYvFR.s 			page 26


 722              		.cfi_def_cfa_offset 8
 723              		.cfi_offset 4, -8
 724              		.cfi_offset 14, -4
 725 0002 86B0     		sub	sp, sp, #24
 726              	.LCFI24:
 727              		.cfi_def_cfa_offset 32
 172:../../core/drivers/STC3115/src/stc3115.c ****   res = HAL_I2C_Mem_Write(hi2cLib, STC3115_SLAVE_ADDRESS_7BIT << 1, RegAddress, 1, (uint8_t *)data,
 728              		.loc 1 172 0
 729 0004 06AA     		add	r2, sp, #24
 730 0006 02F8041D 		strb	r1, [r2, #-4]!
 173:../../core/drivers/STC3115/src/stc3115.c **** 	
 731              		.loc 1 173 0
 732 000a 074B     		ldr	r3, .L58
 733 000c 1C68     		ldr	r4, [r3]
 734 000e 4FF47A73 		mov	r3, #1000
 735 0012 0293     		str	r3, [sp, #8]
 736 0014 0123     		movs	r3, #1
 737 0016 0193     		str	r3, [sp, #4]
 738 0018 0092     		str	r2, [sp]
 739 001a 82B2     		uxth	r2, r0
 740 001c E021     		movs	r1, #224
 741              	.LVL87:
 742 001e 2046     		mov	r0, r4
 743              	.LVL88:
 744 0020 FFF7FEFF 		bl	HAL_I2C_Mem_Write
 745              	.LVL89:
 177:../../core/drivers/STC3115/src/stc3115.c **** 
 746              		.loc 1 177 0
 747 0024 06B0     		add	sp, sp, #24
 748              	.LCFI25:
 749              		.cfi_def_cfa_offset 8
 750              		@ sp needed
 751 0026 10BD     		pop	{r4, pc}
 752              	.L59:
 753              		.align	2
 754              	.L58:
 755 0028 00000000 		.word	.LANCHOR1
 756              		.cfi_endproc
 757              	.LFE124:
 759              		.section	.text.STC3115_Powerdown,"ax",%progbits
 760              		.align	1
 761              		.syntax unified
 762              		.thumb
 763              		.thumb_func
 764              		.fpu fpv4-sp-d16
 766              	STC3115_Powerdown:
 767              	.LFB136:
 481:../../core/drivers/STC3115/src/stc3115.c ****   int res;
 768              		.loc 1 481 0
 769              		.cfi_startproc
 770              		@ args = 0, pretend = 0, frame = 0
 771              		@ frame_needed = 0, uses_anonymous_args = 0
 772 0000 08B5     		push	{r3, lr}
 773              	.LCFI26:
 774              		.cfi_def_cfa_offset 8
 775              		.cfi_offset 3, -8
 776              		.cfi_offset 14, -4
ARM GAS  /tmp/ccORYvFR.s 			page 27


 485:../../core/drivers/STC3115/src/stc3115.c **** 
 777              		.loc 1 485 0
 778 0002 0121     		movs	r1, #1
 779 0004 0846     		mov	r0, r1
 780 0006 FFF7FEFF 		bl	STC3115_WriteByte
 781              	.LVL90:
 488:../../core/drivers/STC3115/src/stc3115.c ****    if (res!= STC3115_OK) return (res);
 782              		.loc 1 488 0
 783 000a 0021     		movs	r1, #0
 784 000c 0846     		mov	r0, r1
 785 000e FFF7FEFF 		bl	STC3115_WriteByte
 786              	.LVL91:
 492:../../core/drivers/STC3115/src/stc3115.c **** 
 787              		.loc 1 492 0
 788 0012 08BD     		pop	{r3, pc}
 789              		.cfi_endproc
 790              	.LFE136:
 792              		.section	.text.STC3115_WriteWord,"ax",%progbits
 793              		.align	1
 794              		.syntax unified
 795              		.thumb
 796              		.thumb_func
 797              		.fpu fpv4-sp-d16
 799              	STC3115_WriteWord:
 800              	.LFB127:
 234:../../core/drivers/STC3115/src/stc3115.c ****   int res;
 801              		.loc 1 234 0
 802              		.cfi_startproc
 803              		@ args = 0, pretend = 0, frame = 8
 804              		@ frame_needed = 0, uses_anonymous_args = 0
 805              	.LVL92:
 806 0000 10B5     		push	{r4, lr}
 807              	.LCFI27:
 808              		.cfi_def_cfa_offset 8
 809              		.cfi_offset 4, -8
 810              		.cfi_offset 14, -4
 811 0002 86B0     		sub	sp, sp, #24
 812              	.LCFI28:
 813              		.cfi_def_cfa_offset 32
 238:../../core/drivers/STC3115/src/stc3115.c ****   data[1]= (Value>>8) & 0xff;
 814              		.loc 1 238 0
 815 0004 8DF81410 		strb	r1, [sp, #20]
 239:../../core/drivers/STC3115/src/stc3115.c ****   
 816              		.loc 1 239 0
 817 0008 0912     		asrs	r1, r1, #8
 818              	.LVL93:
 819 000a 8DF81510 		strb	r1, [sp, #21]
 241:../../core/drivers/STC3115/src/stc3115.c **** 	
 820              		.loc 1 241 0
 821 000e 084B     		ldr	r3, .L64
 822 0010 1C68     		ldr	r4, [r3]
 823 0012 4FF47A73 		mov	r3, #1000
 824 0016 0293     		str	r3, [sp, #8]
 825 0018 0223     		movs	r3, #2
 826 001a 0193     		str	r3, [sp, #4]
 827 001c 05AB     		add	r3, sp, #20
 828 001e 0093     		str	r3, [sp]
ARM GAS  /tmp/ccORYvFR.s 			page 28


 829 0020 0123     		movs	r3, #1
 830 0022 82B2     		uxth	r2, r0
 831 0024 E021     		movs	r1, #224
 832 0026 2046     		mov	r0, r4
 833              	.LVL94:
 834 0028 FFF7FEFF 		bl	HAL_I2C_Mem_Write
 835              	.LVL95:
 245:../../core/drivers/STC3115/src/stc3115.c **** 
 836              		.loc 1 245 0
 837 002c 06B0     		add	sp, sp, #24
 838              	.LCFI29:
 839              		.cfi_def_cfa_offset 8
 840              		@ sp needed
 841 002e 10BD     		pop	{r4, pc}
 842              	.L65:
 843              		.align	2
 844              	.L64:
 845 0030 00000000 		.word	.LANCHOR1
 846              		.cfi_endproc
 847              	.LFE127:
 849              		.section	.text.STC3115_SetParamAndRun,"ax",%progbits
 850              		.align	1
 851              		.syntax unified
 852              		.thumb
 853              		.thumb_func
 854              		.fpu fpv4-sp-d16
 856              	STC3115_SetParamAndRun:
 857              	.LFB133:
 366:../../core/drivers/STC3115/src/stc3115.c ****   int value;
 858              		.loc 1 366 0
 859              		.cfi_startproc
 860              		@ args = 0, pretend = 0, frame = 0
 861              		@ frame_needed = 0, uses_anonymous_args = 0
 862              	.LVL96:
 863 0000 10B5     		push	{r4, lr}
 864              	.LCFI30:
 865              		.cfi_def_cfa_offset 8
 866              		.cfi_offset 4, -8
 867              		.cfi_offset 14, -4
 868 0002 0446     		mov	r4, r0
 370:../../core/drivers/STC3115/src/stc3115.c ****   
 869              		.loc 1 370 0
 870 0004 0921     		movs	r1, #9
 871 0006 0020     		movs	r0, #0
 872              	.LVL97:
 873 0008 FFF7FEFF 		bl	STC3115_WriteByte
 874              	.LVL98:
 373:../../core/drivers/STC3115/src/stc3115.c ****   
 875              		.loc 1 373 0
 876 000c 1022     		movs	r2, #16
 877 000e 3021     		movs	r1, #48
 878 0010 04F12000 		add	r0, r4, #32
 879 0014 FFF7FEFF 		bl	STC3115_WriteBytes
 880              	.LVL99:
 376:../../core/drivers/STC3115/src/stc3115.c ****      STC3115_WriteByte(STC3115_REG_ALARM_SOC,ConfigData->Alm_SOC*2); 
 881              		.loc 1 376 0
 882 0018 6168     		ldr	r1, [r4, #4]
ARM GAS  /tmp/ccORYvFR.s 			page 29


 883 001a D9B9     		cbnz	r1, .L75
 884              	.L67:
 378:../../core/drivers/STC3115/src/stc3115.c ****   {
 885              		.loc 1 378 0
 886 001c A168     		ldr	r1, [r4, #8]
 887 001e 01BB     		cbnz	r1, .L76
 888              	.L68:
 385:../../core/drivers/STC3115/src/stc3115.c ****   {
 889              		.loc 1 385 0
 890 0020 A369     		ldr	r3, [r4, #24]
 891 0022 53BB     		cbnz	r3, .L77
 892              	.L69:
 392:../../core/drivers/STC3115/src/stc3115.c ****   else STC3115_WriteWord(STC3115_REG_CC_CNF, 395); //force writing a default value at startup
 893              		.loc 1 392 0
 894 0024 E168     		ldr	r1, [r4, #12]
 895 0026 A9B3     		cbz	r1, .L70
 392:../../core/drivers/STC3115/src/stc3115.c ****   else STC3115_WriteWord(STC3115_REG_CC_CNF, 395); //force writing a default value at startup
 896              		.loc 1 392 0 is_stmt 0 discriminator 1
 897 0028 0F20     		movs	r0, #15
 898 002a FFF7FEFF 		bl	STC3115_WriteWord
 899              	.LVL100:
 900              	.L71:
 395:../../core/drivers/STC3115/src/stc3115.c ****   else STC3115_WriteWord(STC3115_REG_VM_CNF, 321); //force writing a default value at startup
 901              		.loc 1 395 0 is_stmt 1
 902 002e 2169     		ldr	r1, [r4, #16]
 903 0030 B1BB     		cbnz	r1, .L78
 396:../../core/drivers/STC3115/src/stc3115.c **** 
 904              		.loc 1 396 0
 905 0032 40F24111 		movw	r1, #321
 906 0036 1120     		movs	r0, #17
 907 0038 FFF7FEFF 		bl	STC3115_WriteWord
 908              	.LVL101:
 909              	.L73:
 401:../../core/drivers/STC3115/src/stc3115.c ****   STC3115_WriteByte(STC3115_REG_MODE, STC3115_GG_RUN | (STC3115_VMODE * ConfigData->Vmode) | (STC31
 910              		.loc 1 401 0
 911 003c 0321     		movs	r1, #3
 912 003e 0120     		movs	r0, #1
 913 0040 FFF7FEFF 		bl	STC3115_WriteByte
 914              	.LVL102:
 402:../../core/drivers/STC3115/src/stc3115.c ****  
 915              		.loc 1 402 0
 916 0044 2168     		ldr	r1, [r4]
 917 0046 41F01801 		orr	r1, r1, #24
 918 004a C9B2     		uxtb	r1, r1
 919 004c 0020     		movs	r0, #0
 920 004e FFF7FEFF 		bl	STC3115_WriteByte
 921              	.LVL103:
 922 0052 10BD     		pop	{r4, pc}
 923              	.LVL104:
 924              	.L75:
 377:../../core/drivers/STC3115/src/stc3115.c ****   if (ConfigData->Alm_Vbat !=0 ) 
 925              		.loc 1 377 0
 926 0054 4900     		lsls	r1, r1, #1
 927 0056 01F0FE01 		and	r1, r1, #254
 928 005a 1320     		movs	r0, #19
 929 005c FFF7FEFF 		bl	STC3115_WriteByte
 930              	.LVL105:
ARM GAS  /tmp/ccORYvFR.s 			page 30


 931 0060 DCE7     		b	.L67
 932              	.L76:
 380:../../core/drivers/STC3115/src/stc3115.c ****     STC3115_WriteByte(STC3115_REG_ALARM_VOLTAGE, value);
 933              		.loc 1 380 0
 934 0062 4902     		lsls	r1, r1, #9
 935 0064 104B     		ldr	r3, .L79
 936 0066 83FB0123 		smull	r2, r3, r3, r1
 937 006a C917     		asrs	r1, r1, #31
 938 006c C1EB2331 		rsb	r1, r1, r3, asr #12
 939              	.LVL106:
 381:../../core/drivers/STC3115/src/stc3115.c ****   }
 940              		.loc 1 381 0
 941 0070 C9B2     		uxtb	r1, r1
 942              	.LVL107:
 943 0072 1420     		movs	r0, #20
 944 0074 FFF7FEFF 		bl	STC3115_WriteByte
 945              	.LVL108:
 946 0078 D2E7     		b	.L68
 947              	.L77:
 387:../../core/drivers/STC3115/src/stc3115.c ****     STC3115_WriteByte(STC3115_REG_CURRENT_THRES,value); 
 948              		.loc 1 387 0
 949 007a E169     		ldr	r1, [r4, #28]
 950 007c 4902     		lsls	r1, r1, #9
 951 007e 45F61462 		movw	r2, #24084
 952 0082 92FBF3F3 		sdiv	r3, r2, r3
 953 0086 91FBF3F1 		sdiv	r1, r1, r3
 954              	.LVL109:
 388:../../core/drivers/STC3115/src/stc3115.c ****   }
 955              		.loc 1 388 0
 956 008a C9B2     		uxtb	r1, r1
 957              	.LVL110:
 958 008c 1520     		movs	r0, #21
 959 008e FFF7FEFF 		bl	STC3115_WriteByte
 960              	.LVL111:
 961 0092 C7E7     		b	.L69
 962              	.L70:
 393:../../core/drivers/STC3115/src/stc3115.c ****   
 963              		.loc 1 393 0
 964 0094 40F28B11 		movw	r1, #395
 965 0098 0F20     		movs	r0, #15
 966 009a FFF7FEFF 		bl	STC3115_WriteWord
 967              	.LVL112:
 968 009e C6E7     		b	.L71
 969              	.L78:
 395:../../core/drivers/STC3115/src/stc3115.c ****   else STC3115_WriteWord(STC3115_REG_VM_CNF, 321); //force writing a default value at startup
 970              		.loc 1 395 0 discriminator 1
 971 00a0 1120     		movs	r0, #17
 972 00a2 FFF7FEFF 		bl	STC3115_WriteWord
 973              	.LVL113:
 974 00a6 C9E7     		b	.L73
 975              	.L80:
 976              		.align	2
 977              	.L79:
 978 00a8 89C05D74 		.word	1952301193
 979              		.cfi_endproc
 980              	.LFE133:
 982              		.section	.text.STC3115_Startup,"ax",%progbits
ARM GAS  /tmp/ccORYvFR.s 			page 31


 983              		.align	1
 984              		.syntax unified
 985              		.thumb
 986              		.thumb_func
 987              		.fpu fpv4-sp-d16
 989              	STC3115_Startup:
 990              	.LFB134:
 416:../../core/drivers/STC3115/src/stc3115.c **** 	int res, HRSOC;
 991              		.loc 1 416 0
 992              		.cfi_startproc
 993              		@ args = 0, pretend = 0, frame = 0
 994              		@ frame_needed = 0, uses_anonymous_args = 0
 995              	.LVL114:
 996 0000 38B5     		push	{r3, r4, r5, lr}
 997              	.LCFI31:
 998              		.cfi_def_cfa_offset 16
 999              		.cfi_offset 3, -16
 1000              		.cfi_offset 4, -12
 1001              		.cfi_offset 5, -8
 1002              		.cfi_offset 14, -4
 1003 0002 0546     		mov	r5, r0
 422:../../core/drivers/STC3115/src/stc3115.c **** 	if (res<0) return(res);
 1004              		.loc 1 422 0
 1005 0004 FFF7FEFF 		bl	STC3115_GetStatusWord
 1006              	.LVL115:
 423:../../core/drivers/STC3115/src/stc3115.c **** 
 1007              		.loc 1 423 0
 1008 0008 0028     		cmp	r0, #0
 1009 000a 0FDB     		blt	.L81
 426:../../core/drivers/STC3115/src/stc3115.c **** 
 1010              		.loc 1 426 0
 1011 000c 0D20     		movs	r0, #13
 1012              	.LVL116:
 1013 000e FFF7FEFF 		bl	STC3115_ReadWord
 1014              	.LVL117:
 1015 0012 0446     		mov	r4, r0
 1016              	.LVL118:
 430:../../core/drivers/STC3115/src/stc3115.c **** 	{
 1017              		.loc 1 430 0
 1018 0014 41F27073 		movw	r3, #6000
 1019 0018 9842     		cmp	r0, r3
 1020 001a 08DD     		ble	.L85
 438:../../core/drivers/STC3115/src/stc3115.c **** 		
 1021              		.loc 1 438 0
 1022 001c 2846     		mov	r0, r5
 1023              	.LVL119:
 1024 001e FFF7FEFF 		bl	STC3115_SetParamAndRun
 1025              	.LVL120:
 441:../../core/drivers/STC3115/src/stc3115.c **** 	}
 1026              		.loc 1 441 0
 1027 0022 2146     		mov	r1, r4
 1028 0024 0D20     		movs	r0, #13
 1029 0026 FFF7FEFF 		bl	STC3115_WriteWord
 1030              	.LVL121:
 444:../../core/drivers/STC3115/src/stc3115.c **** }
 1031              		.loc 1 444 0
 1032 002a 0020     		movs	r0, #0
ARM GAS  /tmp/ccORYvFR.s 			page 32


 1033              	.LVL122:
 1034              	.L81:
 445:../../core/drivers/STC3115/src/stc3115.c **** 
 1035              		.loc 1 445 0
 1036 002c 38BD     		pop	{r3, r4, r5, pc}
 1037              	.LVL123:
 1038              	.L85:
 433:../../core/drivers/STC3115/src/stc3115.c **** 		STC3115_SetParamAndRun(ConfigData);  /* set STC3115 parameters and run it  */
 1039              		.loc 1 433 0
 1040 002e 0021     		movs	r1, #0
 1041 0030 0220     		movs	r0, #2
 1042              	.LVL124:
 1043 0032 FFF7FEFF 		bl	STC3115_WriteWord
 1044              	.LVL125:
 434:../../core/drivers/STC3115/src/stc3115.c **** 	}
 1045              		.loc 1 434 0
 1046 0036 2846     		mov	r0, r5
 1047 0038 FFF7FEFF 		bl	STC3115_SetParamAndRun
 1048              	.LVL126:
 444:../../core/drivers/STC3115/src/stc3115.c **** }
 1049              		.loc 1 444 0
 1050 003c 0020     		movs	r0, #0
 1051 003e 38BD     		pop	{r3, r4, r5, pc}
 1052              		.cfi_endproc
 1053              	.LFE134:
 1055              		.section	.text.STC3115_Restore,"ax",%progbits
 1056              		.align	1
 1057              		.syntax unified
 1058              		.thumb
 1059              		.thumb_func
 1060              		.fpu fpv4-sp-d16
 1062              	STC3115_Restore:
 1063              	.LFB135:
 455:../../core/drivers/STC3115/src/stc3115.c ****   int res;
 1064              		.loc 1 455 0
 1065              		.cfi_startproc
 1066              		@ args = 0, pretend = 0, frame = 0
 1067              		@ frame_needed = 0, uses_anonymous_args = 0
 1068              	.LVL127:
 1069 0000 10B5     		push	{r4, lr}
 1070              	.LCFI32:
 1071              		.cfi_def_cfa_offset 8
 1072              		.cfi_offset 4, -8
 1073              		.cfi_offset 14, -4
 1074 0002 0446     		mov	r4, r0
 459:../../core/drivers/STC3115/src/stc3115.c ****   if (res<0) return(res);
 1075              		.loc 1 459 0
 1076 0004 FFF7FEFF 		bl	STC3115_GetStatusWord
 1077              	.LVL128:
 460:../../core/drivers/STC3115/src/stc3115.c ****  
 1078              		.loc 1 460 0
 1079 0008 0028     		cmp	r0, #0
 1080 000a 09DB     		blt	.L86
 462:../../core/drivers/STC3115/src/stc3115.c **** 
 1081              		.loc 1 462 0
 1082 000c 2046     		mov	r0, r4
 1083              	.LVL129:
ARM GAS  /tmp/ccORYvFR.s 			page 33


 1084 000e FFF7FEFF 		bl	STC3115_SetParamAndRun
 1085              	.LVL130:
 466:../../core/drivers/STC3115/src/stc3115.c **** 
 1086              		.loc 1 466 0
 1087 0012 044B     		ldr	r3, .L89
 1088 0014 B3F90210 		ldrsh	r1, [r3, #2]
 1089 0018 0220     		movs	r0, #2
 1090 001a FFF7FEFF 		bl	STC3115_WriteWord
 1091              	.LVL131:
 468:../../core/drivers/STC3115/src/stc3115.c **** }
 1092              		.loc 1 468 0
 1093 001e 0020     		movs	r0, #0
 1094              	.L86:
 469:../../core/drivers/STC3115/src/stc3115.c **** 
 1095              		.loc 1 469 0
 1096 0020 10BD     		pop	{r4, pc}
 1097              	.LVL132:
 1098              	.L90:
 1099 0022 00BF     		.align	2
 1100              	.L89:
 1101 0024 00000000 		.word	.LANCHOR0
 1102              		.cfi_endproc
 1103              	.LFE135:
 1105              		.section	.text.STC3115_ReadUnsignedWord,"ax",%progbits
 1106              		.align	1
 1107              		.global	STC3115_ReadUnsignedWord
 1108              		.syntax unified
 1109              		.thumb
 1110              		.thumb_func
 1111              		.fpu fpv4-sp-d16
 1113              	STC3115_ReadUnsignedWord:
 1114              	.LFB126:
 207:../../core/drivers/STC3115/src/stc3115.c ****   unsigned short data16;
 1115              		.loc 1 207 0
 1116              		.cfi_startproc
 1117              		@ args = 0, pretend = 0, frame = 8
 1118              		@ frame_needed = 0, uses_anonymous_args = 0
 1119              	.LVL133:
 1120 0000 30B5     		push	{r4, r5, lr}
 1121              	.LCFI33:
 1122              		.cfi_def_cfa_offset 12
 1123              		.cfi_offset 4, -12
 1124              		.cfi_offset 5, -8
 1125              		.cfi_offset 14, -4
 1126 0002 87B0     		sub	sp, sp, #28
 1127              	.LCFI34:
 1128              		.cfi_def_cfa_offset 40
 1129 0004 0C46     		mov	r4, r1
 212:../../core/drivers/STC3115/src/stc3115.c ****   
 1130              		.loc 1 212 0
 1131 0006 0C4B     		ldr	r3, .L93
 1132 0008 1D68     		ldr	r5, [r3]
 1133 000a 4FF47A73 		mov	r3, #1000
 1134 000e 0293     		str	r3, [sp, #8]
 1135 0010 0223     		movs	r3, #2
 1136 0012 0193     		str	r3, [sp, #4]
 1137 0014 05AB     		add	r3, sp, #20
ARM GAS  /tmp/ccORYvFR.s 			page 34


 1138 0016 0093     		str	r3, [sp]
 1139 0018 0123     		movs	r3, #1
 1140 001a 0246     		mov	r2, r0
 1141 001c E021     		movs	r1, #224
 1142              	.LVL134:
 1143 001e 2846     		mov	r0, r5
 1144              	.LVL135:
 1145 0020 FFF7FEFF 		bl	HAL_I2C_Mem_Read
 1146              	.LVL136:
 217:../../core/drivers/STC3115/src/stc3115.c ****     data16 = (data16 <<8) | data8[0];
 1147              		.loc 1 217 0
 1148 0024 9DF81520 		ldrb	r2, [sp, #21]	@ zero_extendqisi2
 1149              	.LVL137:
 218:../../core/drivers/STC3115/src/stc3115.c ****     *RegData = data16;
 1150              		.loc 1 218 0
 1151 0028 9DF81430 		ldrb	r3, [sp, #20]	@ zero_extendqisi2
 1152 002c 43EA0223 		orr	r3, r3, r2, lsl #8
 1153              	.LVL138:
 219:../../core/drivers/STC3115/src/stc3115.c ****   }
 1154              		.loc 1 219 0
 1155 0030 2380     		strh	r3, [r4]	@ movhi
 225:../../core/drivers/STC3115/src/stc3115.c **** 
 1156              		.loc 1 225 0
 1157 0032 07B0     		add	sp, sp, #28
 1158              	.LCFI35:
 1159              		.cfi_def_cfa_offset 12
 1160              		@ sp needed
 1161 0034 30BD     		pop	{r4, r5, pc}
 1162              	.LVL139:
 1163              	.L94:
 1164 0036 00BF     		.align	2
 1165              	.L93:
 1166 0038 00000000 		.word	.LANCHOR1
 1167              		.cfi_endproc
 1168              	.LFE126:
 1170              		.section	.text.STC3115_CheckI2cDeviceId,"ax",%progbits
 1171              		.align	1
 1172              		.global	STC3115_CheckI2cDeviceId
 1173              		.syntax unified
 1174              		.thumb
 1175              		.thumb_func
 1176              		.fpu fpv4-sp-d16
 1178              	STC3115_CheckI2cDeviceId:
 1179              	.LFB131:
 312:../../core/drivers/STC3115/src/stc3115.c ****   unsigned char RegAddress;
 1180              		.loc 1 312 0
 1181              		.cfi_startproc
 1182              		@ args = 0, pretend = 0, frame = 0
 1183              		@ frame_needed = 0, uses_anonymous_args = 0
 1184 0000 00B5     		push	{lr}
 1185              	.LCFI36:
 1186              		.cfi_def_cfa_offset 4
 1187              		.cfi_offset 14, -4
 1188 0002 85B0     		sub	sp, sp, #20
 1189              	.LCFI37:
 1190              		.cfi_def_cfa_offset 24
 1191              	.LVL140:
ARM GAS  /tmp/ccORYvFR.s 			page 35


 318:../../core/drivers/STC3115/src/stc3115.c **** 
 1192              		.loc 1 318 0
 1193 0004 084B     		ldr	r3, .L99
 1194 0006 1868     		ldr	r0, [r3]
 1195 0008 4FF47A73 		mov	r3, #1000
 1196 000c 0293     		str	r3, [sp, #8]
 1197 000e 0123     		movs	r3, #1
 1198 0010 0193     		str	r3, [sp, #4]
 1199 0012 0022     		movs	r2, #0
 1200 0014 0092     		str	r2, [sp]
 1201 0016 1822     		movs	r2, #24
 1202 0018 E021     		movs	r1, #224
 1203 001a FFF7FEFF 		bl	HAL_I2C_Mem_Read
 1204              	.LVL141:
 337:../../core/drivers/STC3115/src/stc3115.c **** 
 1205              		.loc 1 337 0
 1206 001e 6FF00100 		mvn	r0, #1
 1207 0022 05B0     		add	sp, sp, #20
 1208              	.LCFI38:
 1209              		.cfi_def_cfa_offset 4
 1210              		@ sp needed
 1211 0024 5DF804FB 		ldr	pc, [sp], #4
 1212              	.L100:
 1213              		.align	2
 1214              	.L99:
 1215 0028 00000000 		.word	.LANCHOR1
 1216              		.cfi_endproc
 1217              	.LFE131:
 1219              		.section	.text.STC3115_GetRunningCounter,"ax",%progbits
 1220              		.align	1
 1221              		.global	STC3115_GetRunningCounter
 1222              		.syntax unified
 1223              		.thumb
 1224              		.thumb_func
 1225              		.fpu fpv4-sp-d16
 1227              	STC3115_GetRunningCounter:
 1228              	.LFB132:
 346:../../core/drivers/STC3115/src/stc3115.c ****   unsigned short value;
 1229              		.loc 1 346 0
 1230              		.cfi_startproc
 1231              		@ args = 0, pretend = 0, frame = 8
 1232              		@ frame_needed = 0, uses_anonymous_args = 0
 1233 0000 00B5     		push	{lr}
 1234              	.LCFI39:
 1235              		.cfi_def_cfa_offset 4
 1236              		.cfi_offset 14, -4
 1237 0002 83B0     		sub	sp, sp, #12
 1238              	.LCFI40:
 1239              		.cfi_def_cfa_offset 16
 351:../../core/drivers/STC3115/src/stc3115.c **** 
 1240              		.loc 1 351 0
 1241 0004 0DF10601 		add	r1, sp, #6
 1242 0008 0420     		movs	r0, #4
 1243 000a FFF7FEFF 		bl	STC3115_ReadUnsignedWord
 1244              	.LVL142:
 353:../../core/drivers/STC3115/src/stc3115.c **** 	  value = -1;
 1245              		.loc 1 353 0
ARM GAS  /tmp/ccORYvFR.s 			page 36


 1246 000e 0028     		cmp	r0, #0
 1247 0010 04DB     		blt	.L104
 1248              	.L102:
 357:../../core/drivers/STC3115/src/stc3115.c **** 
 1249              		.loc 1 357 0
 1250 0012 BDF80600 		ldrh	r0, [sp, #6]
 1251              	.LVL143:
 1252 0016 03B0     		add	sp, sp, #12
 1253              	.LCFI41:
 1254              		.cfi_remember_state
 1255              		.cfi_def_cfa_offset 4
 1256              		@ sp needed
 1257 0018 5DF804FB 		ldr	pc, [sp], #4
 1258              	.LVL144:
 1259              	.L104:
 1260              	.LCFI42:
 1261              		.cfi_restore_state
 354:../../core/drivers/STC3115/src/stc3115.c **** 
 1262              		.loc 1 354 0
 1263 001c 4FF6FF73 		movw	r3, #65535
 1264 0020 ADF80630 		strh	r3, [sp, #6]	@ movhi
 1265 0024 F5E7     		b	.L102
 1266              		.cfi_endproc
 1267              	.LFE132:
 1269              		.section	.text.GasGauge_Initialization,"ax",%progbits
 1270              		.align	1
 1271              		.global	GasGauge_Initialization
 1272              		.syntax unified
 1273              		.thumb
 1274              		.thumb_func
 1275              		.fpu fpv4-sp-d16
 1277              	GasGauge_Initialization:
 1278              	.LFB144:
 661:../../core/drivers/STC3115/src/stc3115.c **** }
 662:../../core/drivers/STC3115/src/stc3115.c **** 
 663:../../core/drivers/STC3115/src/stc3115.c **** /* ---- End of Internal functions --------------------------------------------------- */
 664:../../core/drivers/STC3115/src/stc3115.c **** 
 665:../../core/drivers/STC3115/src/stc3115.c **** /* ---- Driver interface functions -------------------------------------------------- */
 666:../../core/drivers/STC3115/src/stc3115.c **** 
 667:../../core/drivers/STC3115/src/stc3115.c **** //static I2C_HandleTypeDef *hi2cLib;
 668:../../core/drivers/STC3115/src/stc3115.c **** /*******************************************************************************
 669:../../core/drivers/STC3115/src/stc3115.c **** * Function Name  : STC3115_Initialization
 670:../../core/drivers/STC3115/src/stc3115.c **** * Description    : Start the STC3115 battery tracking algorithm system
 671:../../core/drivers/STC3115/src/stc3115.c **** * Input          : algo parameters in stc3115_Battery.h file
 672:../../core/drivers/STC3115/src/stc3115.c **** * Return         : 0 is ok, -1 if STC3115 not found or I2C error
 673:../../core/drivers/STC3115/src/stc3115.c **** * Affect         : Initializes ConfigData and returns battery early status in BatteryData
 674:../../core/drivers/STC3115/src/stc3115.c **** *******************************************************************************/
 675:../../core/drivers/STC3115/src/stc3115.c **** int GasGauge_Initialization( I2C_HandleTypeDef *hi2c, STC3115_ConfigData_TypeDef *ConfigData, STC31
 676:../../core/drivers/STC3115/src/stc3115.c **** {
 1279              		.loc 1 676 0
 1280              		.cfi_startproc
 1281              		@ args = 0, pretend = 0, frame = 64
 1282              		@ frame_needed = 0, uses_anonymous_args = 0
 1283              	.LVL145:
 1284 0000 70B5     		push	{r4, r5, r6, lr}
 1285              	.LCFI43:
 1286              		.cfi_def_cfa_offset 16
ARM GAS  /tmp/ccORYvFR.s 			page 37


 1287              		.cfi_offset 4, -16
 1288              		.cfi_offset 5, -12
 1289              		.cfi_offset 6, -8
 1290              		.cfi_offset 14, -4
 1291 0002 90B0     		sub	sp, sp, #64
 1292              	.LCFI44:
 1293              		.cfi_def_cfa_offset 80
 1294 0004 0646     		mov	r6, r0
 1295 0006 0C46     		mov	r4, r1
 1296 0008 1546     		mov	r5, r2
 677:../../core/drivers/STC3115/src/stc3115.c ****   int res, loop;
 678:../../core/drivers/STC3115/src/stc3115.c ****   int OCVOffset[16] = OCV_OFFSET_TAB;
 1297              		.loc 1 678 0
 1298 000a 4022     		movs	r2, #64
 1299              	.LVL146:
 1300 000c 0021     		movs	r1, #0
 1301              	.LVL147:
 1302 000e 6846     		mov	r0, sp
 1303              	.LVL148:
 1304 0010 FFF7FEFF 		bl	memset
 1305              	.LVL149:
 679:../../core/drivers/STC3115/src/stc3115.c ****   hi2cLib = hi2c;
 1306              		.loc 1 679 0
 1307 0014 394B     		ldr	r3, .L117
 1308 0016 1E60     		str	r6, [r3]
 680:../../core/drivers/STC3115/src/stc3115.c **** 
 681:../../core/drivers/STC3115/src/stc3115.c ****   /*** Fill configuration structure parameters ***/
 682:../../core/drivers/STC3115/src/stc3115.c ****   ConfigData->Vmode = VMODE;
 1309              		.loc 1 682 0
 1310 0018 0023     		movs	r3, #0
 1311 001a 2360     		str	r3, [r4]
 683:../../core/drivers/STC3115/src/stc3115.c **** 
 684:../../core/drivers/STC3115/src/stc3115.c ****   if(RSENSE!=0)	ConfigData->Rsense = RSENSE;
 1312              		.loc 1 684 0
 1313 001c 3222     		movs	r2, #50
 1314 001e A261     		str	r2, [r4, #24]
 685:../../core/drivers/STC3115/src/stc3115.c ****   else ConfigData->Rsense = 10; // default value to avoid division by 0
 686:../../core/drivers/STC3115/src/stc3115.c ****   
 687:../../core/drivers/STC3115/src/stc3115.c ****   ConfigData->CC_cnf = (BATT_CAPACITY * ConfigData->Rsense * 250 + 6194) / 12389;
 1315              		.loc 1 687 0
 1316 0020 43F61E32 		movw	r2, #15134
 1317 0024 E260     		str	r2, [r4, #12]
 688:../../core/drivers/STC3115/src/stc3115.c **** 	
 689:../../core/drivers/STC3115/src/stc3115.c ****   if(BATT_RINT!=0)	ConfigData->VM_cnf = (BATT_CAPACITY * BATT_RINT * 50 + 24444) / 48889;
 690:../../core/drivers/STC3115/src/stc3115.c ****   else ConfigData->VM_cnf = (BATT_CAPACITY * 200 * 50 + 24444) / 48889; // default value
 1318              		.loc 1 690 0
 1319 0026 40F6FC32 		movw	r2, #3068
 1320 002a 2261     		str	r2, [r4, #16]
 1321              	.LVL150:
 691:../../core/drivers/STC3115/src/stc3115.c **** 
 692:../../core/drivers/STC3115/src/stc3115.c ****   for(loop=0; loop<16; loop++)
 1322              		.loc 1 692 0
 1323 002c 08E0     		b	.L106
 1324              	.LVL151:
 1325              	.L108:
 693:../../core/drivers/STC3115/src/stc3115.c ****   {
 694:../../core/drivers/STC3115/src/stc3115.c **** 	if(OCVOffset[loop] > 127) OCVOffset[loop] = 127;
ARM GAS  /tmp/ccORYvFR.s 			page 38


 695:../../core/drivers/STC3115/src/stc3115.c **** 	if(OCVOffset[loop] < -127) OCVOffset[loop] = -127;
 696:../../core/drivers/STC3115/src/stc3115.c **** 	 ConfigData->OCVOffset[loop] = OCVOffset[loop];
 1326              		.loc 1 696 0 discriminator 2
 1327 002e 10AA     		add	r2, sp, #64
 1328 0030 02EB8302 		add	r2, r2, r3, lsl #2
 1329 0034 52F8401C 		ldr	r1, [r2, #-64]
 1330 0038 E218     		adds	r2, r4, r3
 1331 003a 82F82010 		strb	r1, [r2, #32]
 692:../../core/drivers/STC3115/src/stc3115.c ****   {
 1332              		.loc 1 692 0 discriminator 2
 1333 003e 0133     		adds	r3, r3, #1
 1334              	.LVL152:
 1335              	.L106:
 692:../../core/drivers/STC3115/src/stc3115.c ****   {
 1336              		.loc 1 692 0 is_stmt 0 discriminator 1
 1337 0040 0F2B     		cmp	r3, #15
 1338 0042 1CDC     		bgt	.L115
 694:../../core/drivers/STC3115/src/stc3115.c **** 	if(OCVOffset[loop] < -127) OCVOffset[loop] = -127;
 1339              		.loc 1 694 0 is_stmt 1
 1340 0044 10AA     		add	r2, sp, #64
 1341 0046 02EB8302 		add	r2, r2, r3, lsl #2
 1342 004a 52F8402C 		ldr	r2, [r2, #-64]
 1343 004e 7F2A     		cmp	r2, #127
 1344 0050 05DD     		ble	.L107
 694:../../core/drivers/STC3115/src/stc3115.c **** 	if(OCVOffset[loop] < -127) OCVOffset[loop] = -127;
 1345              		.loc 1 694 0 is_stmt 0 discriminator 1
 1346 0052 7F21     		movs	r1, #127
 1347 0054 10AA     		add	r2, sp, #64
 1348 0056 02EB8302 		add	r2, r2, r3, lsl #2
 1349 005a 42F8401C 		str	r1, [r2, #-64]
 1350              	.L107:
 695:../../core/drivers/STC3115/src/stc3115.c **** 	 ConfigData->OCVOffset[loop] = OCVOffset[loop];
 1351              		.loc 1 695 0 is_stmt 1
 1352 005e 10AA     		add	r2, sp, #64
 1353 0060 02EB8302 		add	r2, r2, r3, lsl #2
 1354 0064 52F8402C 		ldr	r2, [r2, #-64]
 1355 0068 12F17F0F 		cmn	r2, #127
 1356 006c DFDA     		bge	.L108
 695:../../core/drivers/STC3115/src/stc3115.c **** 	 ConfigData->OCVOffset[loop] = OCVOffset[loop];
 1357              		.loc 1 695 0 is_stmt 0 discriminator 1
 1358 006e 6FF07E01 		mvn	r1, #126
 1359 0072 10AA     		add	r2, sp, #64
 1360 0074 02EB8302 		add	r2, r2, r3, lsl #2
 1361 0078 42F8401C 		str	r1, [r2, #-64]
 1362 007c D7E7     		b	.L108
 1363              	.L115:
 697:../../core/drivers/STC3115/src/stc3115.c ****   }
 698:../../core/drivers/STC3115/src/stc3115.c **** 	
 699:../../core/drivers/STC3115/src/stc3115.c ****   ConfigData->Cnom = BATT_CAPACITY; 
 1364              		.loc 1 699 0 is_stmt 1
 1365 007e 43F69823 		movw	r3, #15000
 1366              	.LVL153:
 1367 0082 6361     		str	r3, [r4, #20]
 700:../../core/drivers/STC3115/src/stc3115.c ****   ConfigData->RelaxCurrent = BATT_CAPACITY / 20;
 1368              		.loc 1 700 0
 1369 0084 40F2EE23 		movw	r3, #750
 1370 0088 E361     		str	r3, [r4, #28]
ARM GAS  /tmp/ccORYvFR.s 			page 39


 701:../../core/drivers/STC3115/src/stc3115.c ****   
 702:../../core/drivers/STC3115/src/stc3115.c ****   ConfigData->Alm_SOC = ALM_SOC;
 1371              		.loc 1 702 0
 1372 008a 0A23     		movs	r3, #10
 1373 008c 6360     		str	r3, [r4, #4]
 703:../../core/drivers/STC3115/src/stc3115.c ****   ConfigData->Alm_Vbat = ALM_VBAT;
 1374              		.loc 1 703 0
 1375 008e 40F6AC53 		movw	r3, #3500
 1376 0092 A360     		str	r3, [r4, #8]
 704:../../core/drivers/STC3115/src/stc3115.c ****   
 705:../../core/drivers/STC3115/src/stc3115.c ****   
 706:../../core/drivers/STC3115/src/stc3115.c ****   /*** Initialize Gas Gauge system ***/ 
 707:../../core/drivers/STC3115/src/stc3115.c ****   
 708:../../core/drivers/STC3115/src/stc3115.c ****   /*Battery presence status init*/
 709:../../core/drivers/STC3115/src/stc3115.c ****   BatteryData->Presence = 1;
 1377              		.loc 1 709 0
 1378 0094 0123     		movs	r3, #1
 1379 0096 2B62     		str	r3, [r5, #32]
 710:../../core/drivers/STC3115/src/stc3115.c **** 
 711:../../core/drivers/STC3115/src/stc3115.c ****   /* check RAM data validity */ 
 712:../../core/drivers/STC3115/src/stc3115.c ****   //refer to AN4324, Figure 16: STC3115 initialization type selection flowchart
 713:../../core/drivers/STC3115/src/stc3115.c ****   {
 714:../../core/drivers/STC3115/src/stc3115.c **** 	// ** Internal RAM purpose: **
 715:../../core/drivers/STC3115/src/stc3115.c **** 	// The STC3115 device embeds a 16-byte RAM memory area.
 716:../../core/drivers/STC3115/src/stc3115.c **** 	// The registers of this area can be used to periodically save the battery status. 
 717:../../core/drivers/STC3115/src/stc3115.c **** 	// This allows battery information to be recovered when the application is stopped but the battery
 718:../../core/drivers/STC3115/src/stc3115.c **** 	//
 719:../../core/drivers/STC3115/src/stc3115.c **** 	// Typical use case of STC3115 Restoration is:
 720:../../core/drivers/STC3115/src/stc3115.c **** 	// User Platform power down (but stc3115 set in standby mode), no battery removal, and then Platfo
 721:../../core/drivers/STC3115/src/stc3115.c **** 	// If the battery is removed or in case of soft reset (STC3115 soft reset), RAM content is reset, 
 722:../../core/drivers/STC3115/src/stc3115.c **** 
 723:../../core/drivers/STC3115/src/stc3115.c **** 	  STC3115_ReadRamData(RAMData.db);
 1380              		.loc 1 723 0
 1381 0098 194D     		ldr	r5, .L117+4
 1382              	.LVL154:
 1383 009a 2846     		mov	r0, r5
 1384 009c FFF7FEFF 		bl	STC3115_ReadRamData
 1385              	.LVL155:
 724:../../core/drivers/STC3115/src/stc3115.c ****  
 725:../../core/drivers/STC3115/src/stc3115.c **** 	  if ( (RAMData.reg.TestWord != RAM_TESTWORD) || (STC3115_CalcRamCRC8(RAMData.db,STC3115_RAM_SIZE)
 1386              		.loc 1 725 0
 1387 00a0 B5F90020 		ldrsh	r2, [r5]
 1388 00a4 45F2A933 		movw	r3, #21417
 1389 00a8 9A42     		cmp	r2, r3
 1390 00aa 04D1     		bne	.L110
 1391              		.loc 1 725 0 is_stmt 0 discriminator 1
 1392 00ac 1021     		movs	r1, #16
 1393 00ae 2846     		mov	r0, r5
 1394 00b0 FFF7FEFF 		bl	STC3115_CalcRamCRC8
 1395              	.LVL156:
 1396 00b4 88B1     		cbz	r0, .L111
 1397              	.L110:
 726:../../core/drivers/STC3115/src/stc3115.c **** 	  {
 727:../../core/drivers/STC3115/src/stc3115.c **** 		// RAM is empty (Fuel gauge first power-up)
 728:../../core/drivers/STC3115/src/stc3115.c **** 		// or RAM not yet initialized by this Driver (no TESTWORD)
 729:../../core/drivers/STC3115/src/stc3115.c **** 		// or RAM corrupted (bad CRC)
 730:../../core/drivers/STC3115/src/stc3115.c **** 		// => Full initialisation:  STC3115 init + RAM init
ARM GAS  /tmp/ccORYvFR.s 			page 40


 731:../../core/drivers/STC3115/src/stc3115.c **** 		//    e.g. New battery plugged-in, using the initial battery model.
 732:../../core/drivers/STC3115/src/stc3115.c **** 		
 733:../../core/drivers/STC3115/src/stc3115.c **** 		STC3115_InitRamData(ConfigData);
 1398              		.loc 1 733 0 is_stmt 1
 1399 00b6 2046     		mov	r0, r4
 1400 00b8 FFF7FEFF 		bl	STC3115_InitRamData
 1401              	.LVL157:
 734:../../core/drivers/STC3115/src/stc3115.c **** 		res=STC3115_Startup(ConfigData);  /* return -1 if I2C error or STC3115 not present */
 1402              		.loc 1 734 0
 1403 00bc 2046     		mov	r0, r4
 1404 00be FFF7FEFF 		bl	STC3115_Startup
 1405              	.LVL158:
 1406 00c2 0546     		mov	r5, r0
 1407              	.LVL159:
 1408              	.L112:
 735:../../core/drivers/STC3115/src/stc3115.c **** 	  }
 736:../../core/drivers/STC3115/src/stc3115.c **** 	  else //RAM valid (i.e initialization process started again, battery has not been removed)
 737:../../core/drivers/STC3115/src/stc3115.c **** 	  {
 738:../../core/drivers/STC3115/src/stc3115.c **** 		  /* check STC3115 status */
 739:../../core/drivers/STC3115/src/stc3115.c **** 		  if ( (STC3115_ReadByte(STC3115_REG_CTRL) & (STC3115_BATFAIL | STC3115_PORDET)) != 0 )
 740:../../core/drivers/STC3115/src/stc3115.c **** 		  {
 741:../../core/drivers/STC3115/src/stc3115.c **** 				//PORDET detected (Power On Reset occurred after Device powered-On or a Soft-reset)
 742:../../core/drivers/STC3115/src/stc3115.c **** 				//or Error occured: BATFAIL (battery disconnected or Undervoltage UVLO)
 743:../../core/drivers/STC3115/src/stc3115.c **** 				// => Standard initialisation: STC3115 init (without RAM init)
 744:../../core/drivers/STC3115/src/stc3115.c **** 			    //    e.g. Battery has not been removed, but restoration from internal RAM not possible
 745:../../core/drivers/STC3115/src/stc3115.c **** 
 746:../../core/drivers/STC3115/src/stc3115.c **** 				res=STC3115_Startup(ConfigData);  /* return -1 if I2C error or STC3115 not present */
 747:../../core/drivers/STC3115/src/stc3115.c **** 		  }
 748:../../core/drivers/STC3115/src/stc3115.c **** 		  else //Restoration OK, The battery has not been removed since the last application switch off. 
 749:../../core/drivers/STC3115/src/stc3115.c **** 		  {
 750:../../core/drivers/STC3115/src/stc3115.c **** 				res=STC3115_Restore(ConfigData); /* recover from last SOC */
 751:../../core/drivers/STC3115/src/stc3115.c **** 		  }
 752:../../core/drivers/STC3115/src/stc3115.c **** 	  }
 753:../../core/drivers/STC3115/src/stc3115.c ****   }
 754:../../core/drivers/STC3115/src/stc3115.c **** 
 755:../../core/drivers/STC3115/src/stc3115.c **** 	//Update RAM state flag to INIT state
 756:../../core/drivers/STC3115/src/stc3115.c **** 	{
 757:../../core/drivers/STC3115/src/stc3115.c **** 		RAMData.reg.STC3115_State = STC3115_INIT;
 1409              		.loc 1 757 0
 1410 00c4 0E4C     		ldr	r4, .L117+4
 1411              	.LVL160:
 1412 00c6 4923     		movs	r3, #73
 1413 00c8 6372     		strb	r3, [r4, #9]
 758:../../core/drivers/STC3115/src/stc3115.c **** 		STC3115_UpdateRamCRC();
 1414              		.loc 1 758 0
 1415 00ca FFF7FEFF 		bl	STC3115_UpdateRamCRC
 1416              	.LVL161:
 759:../../core/drivers/STC3115/src/stc3115.c **** 		STC3115_WriteRamData(RAMData.db);
 1417              		.loc 1 759 0
 1418 00ce 2046     		mov	r0, r4
 1419 00d0 FFF7FEFF 		bl	STC3115_WriteRamData
 1420              	.LVL162:
 760:../../core/drivers/STC3115/src/stc3115.c **** 	}
 761:../../core/drivers/STC3115/src/stc3115.c ****   
 762:../../core/drivers/STC3115/src/stc3115.c ****   return(res);    /* return -1 if I2C error or STC3115 not present */
 763:../../core/drivers/STC3115/src/stc3115.c **** }
 1421              		.loc 1 763 0
ARM GAS  /tmp/ccORYvFR.s 			page 41


 1422 00d4 2846     		mov	r0, r5
 1423 00d6 10B0     		add	sp, sp, #64
 1424              	.LCFI45:
 1425              		.cfi_remember_state
 1426              		.cfi_def_cfa_offset 16
 1427              		@ sp needed
 1428 00d8 70BD     		pop	{r4, r5, r6, pc}
 1429              	.LVL163:
 1430              	.L111:
 1431              	.LCFI46:
 1432              		.cfi_restore_state
 739:../../core/drivers/STC3115/src/stc3115.c **** 		  {
 1433              		.loc 1 739 0
 1434 00da 0120     		movs	r0, #1
 1435 00dc FFF7FEFF 		bl	STC3115_ReadByte
 1436              	.LVL164:
 1437 00e0 10F0180F 		tst	r0, #24
 1438 00e4 04D1     		bne	.L116
 750:../../core/drivers/STC3115/src/stc3115.c **** 		  }
 1439              		.loc 1 750 0
 1440 00e6 2046     		mov	r0, r4
 1441 00e8 FFF7FEFF 		bl	STC3115_Restore
 1442              	.LVL165:
 1443 00ec 0546     		mov	r5, r0
 1444              	.LVL166:
 1445 00ee E9E7     		b	.L112
 1446              	.LVL167:
 1447              	.L116:
 746:../../core/drivers/STC3115/src/stc3115.c **** 		  }
 1448              		.loc 1 746 0
 1449 00f0 2046     		mov	r0, r4
 1450 00f2 FFF7FEFF 		bl	STC3115_Startup
 1451              	.LVL168:
 1452 00f6 0546     		mov	r5, r0
 1453              	.LVL169:
 1454 00f8 E4E7     		b	.L112
 1455              	.L118:
 1456 00fa 00BF     		.align	2
 1457              	.L117:
 1458 00fc 00000000 		.word	.LANCHOR1
 1459 0100 00000000 		.word	.LANCHOR0
 1460              		.cfi_endproc
 1461              	.LFE144:
 1463              		.section	.text.GasGauge_Reset,"ax",%progbits
 1464              		.align	1
 1465              		.global	GasGauge_Reset
 1466              		.syntax unified
 1467              		.thumb
 1468              		.thumb_func
 1469              		.fpu fpv4-sp-d16
 1471              	GasGauge_Reset:
 1472              	.LFB145:
 764:../../core/drivers/STC3115/src/stc3115.c **** 
 765:../../core/drivers/STC3115/src/stc3115.c **** /*******************************************************************************
 766:../../core/drivers/STC3115/src/stc3115.c **** * Function Name  : GasGauge_Reset
 767:../../core/drivers/STC3115/src/stc3115.c **** * Description    : Reset the Gas Gauge system, this function must not be used frequently
 768:../../core/drivers/STC3115/src/stc3115.c **** * Input          : None
ARM GAS  /tmp/ccORYvFR.s 			page 42


 769:../../core/drivers/STC3115/src/stc3115.c **** * Return         : 0 is ok, -1 if I2C error
 770:../../core/drivers/STC3115/src/stc3115.c **** *******************************************************************************/
 771:../../core/drivers/STC3115/src/stc3115.c **** int GasGauge_Reset(void)  
 772:../../core/drivers/STC3115/src/stc3115.c **** {
 1473              		.loc 1 772 0
 1474              		.cfi_startproc
 1475              		@ args = 0, pretend = 0, frame = 0
 1476              		@ frame_needed = 0, uses_anonymous_args = 0
 1477 0000 08B5     		push	{r3, lr}
 1478              	.LCFI47:
 1479              		.cfi_def_cfa_offset 8
 1480              		.cfi_offset 3, -8
 1481              		.cfi_offset 14, -4
 773:../../core/drivers/STC3115/src/stc3115.c ****   int res;
 774:../../core/drivers/STC3115/src/stc3115.c **** 
 775:../../core/drivers/STC3115/src/stc3115.c ****   /* reset RAM */
 776:../../core/drivers/STC3115/src/stc3115.c ****   RAMData.reg.TestWord=0;  
 1482              		.loc 1 776 0
 1483 0002 0848     		ldr	r0, .L123
 1484 0004 0023     		movs	r3, #0
 1485 0006 0380     		strh	r3, [r0]	@ movhi
 777:../../core/drivers/STC3115/src/stc3115.c ****   RAMData.reg.STC3115_State = STC3115_UNINIT;
 1486              		.loc 1 777 0
 1487 0008 4372     		strb	r3, [r0, #9]
 778:../../core/drivers/STC3115/src/stc3115.c ****   res = STC3115_WriteRamData(RAMData.db);
 1488              		.loc 1 778 0
 1489 000a FFF7FEFF 		bl	STC3115_WriteRamData
 1490              	.LVL170:
 779:../../core/drivers/STC3115/src/stc3115.c ****   if(res != STC3115_OK) return res;
 1491              		.loc 1 779 0
 1492 000e 0346     		mov	r3, r0
 1493 0010 08B1     		cbz	r0, .L122
 1494              	.L119:
 780:../../core/drivers/STC3115/src/stc3115.c ****   
 781:../../core/drivers/STC3115/src/stc3115.c ****   /* reset STC3115*/
 782:../../core/drivers/STC3115/src/stc3115.c ****   res = STC3115_WriteByte(STC3115_REG_CTRL, STC3115_PORDET);  /*   set Soft Reset */
 783:../../core/drivers/STC3115/src/stc3115.c **** 
 784:../../core/drivers/STC3115/src/stc3115.c ****   return res;
 785:../../core/drivers/STC3115/src/stc3115.c **** }
 1495              		.loc 1 785 0
 1496 0012 1846     		mov	r0, r3
 1497              	.LVL171:
 1498 0014 08BD     		pop	{r3, pc}
 1499              	.LVL172:
 1500              	.L122:
 782:../../core/drivers/STC3115/src/stc3115.c **** 
 1501              		.loc 1 782 0
 1502 0016 1021     		movs	r1, #16
 1503 0018 0120     		movs	r0, #1
 1504              	.LVL173:
 1505 001a FFF7FEFF 		bl	STC3115_WriteByte
 1506              	.LVL174:
 1507 001e 0346     		mov	r3, r0
 1508              	.LVL175:
 784:../../core/drivers/STC3115/src/stc3115.c **** }
 1509              		.loc 1 784 0
 1510 0020 F7E7     		b	.L119
ARM GAS  /tmp/ccORYvFR.s 			page 43


 1511              	.L124:
 1512 0022 00BF     		.align	2
 1513              	.L123:
 1514 0024 00000000 		.word	.LANCHOR0
 1515              		.cfi_endproc
 1516              	.LFE145:
 1518              		.section	.text.GasGauge_Stop,"ax",%progbits
 1519              		.align	1
 1520              		.global	GasGauge_Stop
 1521              		.syntax unified
 1522              		.thumb
 1523              		.thumb_func
 1524              		.fpu fpv4-sp-d16
 1526              	GasGauge_Stop:
 1527              	.LFB146:
 786:../../core/drivers/STC3115/src/stc3115.c **** 
 787:../../core/drivers/STC3115/src/stc3115.c **** 
 788:../../core/drivers/STC3115/src/stc3115.c **** 
 789:../../core/drivers/STC3115/src/stc3115.c **** /*******************************************************************************
 790:../../core/drivers/STC3115/src/stc3115.c **** * Function Name  : GasGauge_Stop
 791:../../core/drivers/STC3115/src/stc3115.c **** * Description    : Stop the Gas Gauge system and save the context in STC3115 RAM
 792:../../core/drivers/STC3115/src/stc3115.c **** * Input          : None
 793:../../core/drivers/STC3115/src/stc3115.c **** * Return         : 0 is ok, -1 if I2C error
 794:../../core/drivers/STC3115/src/stc3115.c **** *******************************************************************************/
 795:../../core/drivers/STC3115/src/stc3115.c **** int GasGauge_Stop(void)
 796:../../core/drivers/STC3115/src/stc3115.c **** {
 1528              		.loc 1 796 0
 1529              		.cfi_startproc
 1530              		@ args = 0, pretend = 0, frame = 0
 1531              		@ frame_needed = 0, uses_anonymous_args = 0
 1532 0000 10B5     		push	{r4, lr}
 1533              	.LCFI48:
 1534              		.cfi_def_cfa_offset 8
 1535              		.cfi_offset 4, -8
 1536              		.cfi_offset 14, -4
 797:../../core/drivers/STC3115/src/stc3115.c ****   int res;
 798:../../core/drivers/STC3115/src/stc3115.c ****   
 799:../../core/drivers/STC3115/src/stc3115.c ****   /*Save context in RAM*/
 800:../../core/drivers/STC3115/src/stc3115.c ****   STC3115_ReadRamData(RAMData.db);
 1537              		.loc 1 800 0
 1538 0002 0A4C     		ldr	r4, .L129
 1539 0004 2046     		mov	r0, r4
 1540 0006 FFF7FEFF 		bl	STC3115_ReadRamData
 1541              	.LVL176:
 801:../../core/drivers/STC3115/src/stc3115.c ****   RAMData.reg.STC3115_State= STC3115_POWERDN;
 1542              		.loc 1 801 0
 1543 000a 4423     		movs	r3, #68
 1544 000c 6372     		strb	r3, [r4, #9]
 802:../../core/drivers/STC3115/src/stc3115.c ****   
 803:../../core/drivers/STC3115/src/stc3115.c ****   /* update the crc */
 804:../../core/drivers/STC3115/src/stc3115.c ****   STC3115_UpdateRamCRC();
 1545              		.loc 1 804 0
 1546 000e FFF7FEFF 		bl	STC3115_UpdateRamCRC
 1547              	.LVL177:
 805:../../core/drivers/STC3115/src/stc3115.c ****   STC3115_WriteRamData(RAMData.db);
 1548              		.loc 1 805 0
 1549 0012 2046     		mov	r0, r4
ARM GAS  /tmp/ccORYvFR.s 			page 44


 1550 0014 FFF7FEFF 		bl	STC3115_WriteRamData
 1551              	.LVL178:
 806:../../core/drivers/STC3115/src/stc3115.c ****    
 807:../../core/drivers/STC3115/src/stc3115.c ****   /*STC3115 Power down (ie Standby mode with RAM content retention))*/
 808:../../core/drivers/STC3115/src/stc3115.c ****   res=STC3115_Powerdown();
 1552              		.loc 1 808 0
 1553 0018 FFF7FEFF 		bl	STC3115_Powerdown
 1554              	.LVL179:
 809:../../core/drivers/STC3115/src/stc3115.c ****   if (res!=0) return (-1);  /* error */
 1555              		.loc 1 809 0
 1556 001c 0346     		mov	r3, r0
 1557 001e 08B9     		cbnz	r0, .L128
 1558              	.L125:
 810:../../core/drivers/STC3115/src/stc3115.c **** 
 811:../../core/drivers/STC3115/src/stc3115.c ****   return(0);  
 812:../../core/drivers/STC3115/src/stc3115.c **** }
 1559              		.loc 1 812 0
 1560 0020 1846     		mov	r0, r3
 1561              	.LVL180:
 1562 0022 10BD     		pop	{r4, pc}
 1563              	.LVL181:
 1564              	.L128:
 809:../../core/drivers/STC3115/src/stc3115.c ****   if (res!=0) return (-1);  /* error */
 1565              		.loc 1 809 0
 1566 0024 4FF0FF33 		mov	r3, #-1
 1567 0028 FAE7     		b	.L125
 1568              	.L130:
 1569 002a 00BF     		.align	2
 1570              	.L129:
 1571 002c 00000000 		.word	.LANCHOR0
 1572              		.cfi_endproc
 1573              	.LFE146:
 1575              		.section	.text.GasGauge_Task,"ax",%progbits
 1576              		.align	1
 1577              		.global	GasGauge_Task
 1578              		.syntax unified
 1579              		.thumb
 1580              		.thumb_func
 1581              		.fpu fpv4-sp-d16
 1583              	GasGauge_Task:
 1584              	.LFB147:
 813:../../core/drivers/STC3115/src/stc3115.c **** 
 814:../../core/drivers/STC3115/src/stc3115.c **** 
 815:../../core/drivers/STC3115/src/stc3115.c **** 
 816:../../core/drivers/STC3115/src/stc3115.c **** /*******************************************************************************
 817:../../core/drivers/STC3115/src/stc3115.c **** * Function Name  : GasGauge_Task
 818:../../core/drivers/STC3115/src/stc3115.c **** * Description    : Periodic Gas Gauge task, to be called periodically (every 1 to 60 seconds)
 819:../../core/drivers/STC3115/src/stc3115.c **** * Input          : STC315 ConfigData structure filled by GasGauge_Initialization function
 820:../../core/drivers/STC3115/src/stc3115.c **** * Return         : 1 if data available, 0 if no data, -1 if error
 821:../../core/drivers/STC3115/src/stc3115.c **** * Affect         : Fill the BatteryData structure with updated battery status
 822:../../core/drivers/STC3115/src/stc3115.c **** *******************************************************************************/
 823:../../core/drivers/STC3115/src/stc3115.c **** int GasGauge_Task(STC3115_ConfigData_TypeDef *ConfigData,STC3115_BatteryData_TypeDef *BatteryData)
 824:../../core/drivers/STC3115/src/stc3115.c **** {
 1585              		.loc 1 824 0
 1586              		.cfi_startproc
 1587              		@ args = 0, pretend = 0, frame = 0
 1588              		@ frame_needed = 0, uses_anonymous_args = 0
ARM GAS  /tmp/ccORYvFR.s 			page 45


 1589              	.LVL182:
 1590 0000 70B5     		push	{r4, r5, r6, lr}
 1591              	.LCFI49:
 1592              		.cfi_def_cfa_offset 16
 1593              		.cfi_offset 4, -16
 1594              		.cfi_offset 5, -12
 1595              		.cfi_offset 6, -8
 1596              		.cfi_offset 14, -4
 1597 0002 0646     		mov	r6, r0
 1598 0004 0C46     		mov	r4, r1
 825:../../core/drivers/STC3115/src/stc3115.c ****   int res;
 826:../../core/drivers/STC3115/src/stc3115.c **** 
 827:../../core/drivers/STC3115/src/stc3115.c ****   /* ----------------------------- System state verification ---------------------------- */
 828:../../core/drivers/STC3115/src/stc3115.c ****   /*Read STC3115 status registers */
 829:../../core/drivers/STC3115/src/stc3115.c ****   res=STC3115_GetStatusWord();
 1599              		.loc 1 829 0
 1600 0006 FFF7FEFF 		bl	STC3115_GetStatusWord
 1601              	.LVL183:
 830:../../core/drivers/STC3115/src/stc3115.c **** 
 831:../../core/drivers/STC3115/src/stc3115.c ****   if (res<0) return(res);  /* return if I2C error or STC3115 not responding */  
 1602              		.loc 1 831 0
 1603 000a 051E     		subs	r5, r0, #0
 1604 000c 6ADB     		blt	.L131
 832:../../core/drivers/STC3115/src/stc3115.c ****   BatteryData->StatusWord = res;
 1605              		.loc 1 832 0
 1606 000e 2560     		str	r5, [r4]
 833:../../core/drivers/STC3115/src/stc3115.c ****   
 834:../../core/drivers/STC3115/src/stc3115.c ****   /* check STC3115 RAM status (battery has not been changed) */
 835:../../core/drivers/STC3115/src/stc3115.c ****   STC3115_ReadRamData(RAMData.db);
 1607              		.loc 1 835 0
 1608 0010 6D4D     		ldr	r5, .L158
 1609 0012 2846     		mov	r0, r5
 1610              	.LVL184:
 1611 0014 FFF7FEFF 		bl	STC3115_ReadRamData
 1612              	.LVL185:
 836:../../core/drivers/STC3115/src/stc3115.c ****   if ( (RAMData.reg.TestWord!= RAM_TESTWORD) || (STC3115_CalcRamCRC8(RAMData.db,STC3115_RAM_SIZE)!=
 1613              		.loc 1 836 0
 1614 0018 B5F90020 		ldrsh	r2, [r5]
 1615 001c 45F2A933 		movw	r3, #21417
 1616 0020 9A42     		cmp	r2, r3
 1617 0022 16D0     		beq	.L152
 1618              	.L133:
 837:../../core/drivers/STC3115/src/stc3115.c ****   {
 838:../../core/drivers/STC3115/src/stc3115.c ****     /* if RAM non ok, reset it and set init state */
 839:../../core/drivers/STC3115/src/stc3115.c ****     STC3115_InitRamData(ConfigData); 
 1619              		.loc 1 839 0
 1620 0024 3046     		mov	r0, r6
 1621 0026 FFF7FEFF 		bl	STC3115_InitRamData
 1622              	.LVL186:
 840:../../core/drivers/STC3115/src/stc3115.c ****     RAMData.reg.STC3115_State = STC3115_INIT;
 1623              		.loc 1 840 0
 1624 002a 4922     		movs	r2, #73
 1625 002c 664B     		ldr	r3, .L158
 1626 002e 5A72     		strb	r2, [r3, #9]
 1627              	.L134:
 841:../../core/drivers/STC3115/src/stc3115.c ****   }  
 842:../../core/drivers/STC3115/src/stc3115.c ****   
ARM GAS  /tmp/ccORYvFR.s 			page 46


 843:../../core/drivers/STC3115/src/stc3115.c ****   /* check battery presence status */
 844:../../core/drivers/STC3115/src/stc3115.c ****   if ((BatteryData->StatusWord & ((int)STC3115_BATFAIL<<8)) != 0)
 1628              		.loc 1 844 0
 1629 0030 2368     		ldr	r3, [r4]
 1630 0032 13F4006F 		tst	r3, #2048
 1631 0036 13D1     		bne	.L153
 845:../../core/drivers/STC3115/src/stc3115.c ****   {
 846:../../core/drivers/STC3115/src/stc3115.c ****     /*Battery disconnection has been detected			*/
 847:../../core/drivers/STC3115/src/stc3115.c **** 		
 848:../../core/drivers/STC3115/src/stc3115.c **** 	/*BATD pin level is over 1.61 or Vcc is below 2.7V	*/
 849:../../core/drivers/STC3115/src/stc3115.c **** 	BatteryData->Presence = 0;
 850:../../core/drivers/STC3115/src/stc3115.c **** 	
 851:../../core/drivers/STC3115/src/stc3115.c **** 	/*HW and SW state machine reset*/
 852:../../core/drivers/STC3115/src/stc3115.c ****     GasGauge_Reset();
 853:../../core/drivers/STC3115/src/stc3115.c **** 
 854:../../core/drivers/STC3115/src/stc3115.c ****     return (-1);
 855:../../core/drivers/STC3115/src/stc3115.c ****   }
 856:../../core/drivers/STC3115/src/stc3115.c **** 	
 857:../../core/drivers/STC3115/src/stc3115.c ****   /* check STC3115 running mode*/
 858:../../core/drivers/STC3115/src/stc3115.c ****   if ((BatteryData->StatusWord & STC3115_GG_RUN) == 0) //Gas gauge no more running (in Standby mode
 1632              		.loc 1 858 0
 1633 0038 13F0100F 		tst	r3, #16
 1634 003c 1DD1     		bne	.L136
 859:../../core/drivers/STC3115/src/stc3115.c ****   {
 860:../../core/drivers/STC3115/src/stc3115.c **** 		if( (RAMData.reg.STC3115_State == STC3115_RUNNING) ||
 1635              		.loc 1 860 0
 1636 003e 624B     		ldr	r3, .L158
 1637 0040 5B7A     		ldrb	r3, [r3, #9]	@ zero_extendqisi2
 1638 0042 522B     		cmp	r3, #82
 1639 0044 13D0     		beq	.L137
 1640              		.loc 1 860 0 is_stmt 0 discriminator 1
 1641 0046 442B     		cmp	r3, #68
 1642 0048 11D0     		beq	.L137
 861:../../core/drivers/STC3115/src/stc3115.c **** 			(RAMData.reg.STC3115_State == STC3115_POWERDN)
 862:../../core/drivers/STC3115/src/stc3115.c **** 			)
 863:../../core/drivers/STC3115/src/stc3115.c **** 		{
 864:../../core/drivers/STC3115/src/stc3115.c **** 			STC3115_Restore(ConfigData);  /* if RUNNING state, restore STC3115 with latest good SoC value fo
 865:../../core/drivers/STC3115/src/stc3115.c **** 		}
 866:../../core/drivers/STC3115/src/stc3115.c **** 		else
 867:../../core/drivers/STC3115/src/stc3115.c **** 		{
 868:../../core/drivers/STC3115/src/stc3115.c **** 			STC3115_Startup(ConfigData);  /* if INIT state, initialize STC3115*/
 1643              		.loc 1 868 0 is_stmt 1
 1644 004a 3046     		mov	r0, r6
 1645 004c FFF7FEFF 		bl	STC3115_Startup
 1646              	.LVL187:
 1647 0050 10E0     		b	.L139
 1648              	.L152:
 836:../../core/drivers/STC3115/src/stc3115.c ****   {
 1649              		.loc 1 836 0 discriminator 1
 1650 0052 1021     		movs	r1, #16
 1651 0054 2846     		mov	r0, r5
 1652 0056 FFF7FEFF 		bl	STC3115_CalcRamCRC8
 1653              	.LVL188:
 1654 005a 0028     		cmp	r0, #0
 1655 005c E8D0     		beq	.L134
 1656 005e E1E7     		b	.L133
 1657              	.L153:
ARM GAS  /tmp/ccORYvFR.s 			page 47


 849:../../core/drivers/STC3115/src/stc3115.c **** 	
 1658              		.loc 1 849 0
 1659 0060 0023     		movs	r3, #0
 1660 0062 2362     		str	r3, [r4, #32]
 852:../../core/drivers/STC3115/src/stc3115.c **** 
 1661              		.loc 1 852 0
 1662 0064 FFF7FEFF 		bl	GasGauge_Reset
 1663              	.LVL189:
 854:../../core/drivers/STC3115/src/stc3115.c ****   }
 1664              		.loc 1 854 0
 1665 0068 4FF0FF35 		mov	r5, #-1
 1666 006c 3AE0     		b	.L131
 1667              	.L137:
 864:../../core/drivers/STC3115/src/stc3115.c **** 		}
 1668              		.loc 1 864 0
 1669 006e 3046     		mov	r0, r6
 1670 0070 FFF7FEFF 		bl	STC3115_Restore
 1671              	.LVL190:
 1672              	.L139:
 869:../../core/drivers/STC3115/src/stc3115.c **** 		}
 870:../../core/drivers/STC3115/src/stc3115.c **** 		
 871:../../core/drivers/STC3115/src/stc3115.c ****     RAMData.reg.STC3115_State = STC3115_INIT;
 1673              		.loc 1 871 0
 1674 0074 4922     		movs	r2, #73
 1675 0076 544B     		ldr	r3, .L158
 1676 0078 5A72     		strb	r2, [r3, #9]
 1677              	.L136:
 872:../../core/drivers/STC3115/src/stc3115.c ****   }
 873:../../core/drivers/STC3115/src/stc3115.c ****   
 874:../../core/drivers/STC3115/src/stc3115.c ****   /* --------------------------------- Read battery data ------------------------------- */
 875:../../core/drivers/STC3115/src/stc3115.c **** 
 876:../../core/drivers/STC3115/src/stc3115.c ****   res=STC3115_ReadBatteryData(BatteryData);  
 1678              		.loc 1 876 0
 1679 007a 2046     		mov	r0, r4
 1680 007c FFF7FEFF 		bl	STC3115_ReadBatteryData
 1681              	.LVL191:
 877:../../core/drivers/STC3115/src/stc3115.c ****   if (res!=0) return(-1); /* abort in case of I2C failure */
 1682              		.loc 1 877 0
 1683 0080 0546     		mov	r5, r0
 1684 0082 0028     		cmp	r0, #0
 1685 0084 40F09D80 		bne	.L150
 878:../../core/drivers/STC3115/src/stc3115.c ****   
 879:../../core/drivers/STC3115/src/stc3115.c ****   
 880:../../core/drivers/STC3115/src/stc3115.c ****   /* ------------------------------- battery data report ------------------------------- */
 881:../../core/drivers/STC3115/src/stc3115.c ****   /* check INIT state */
 882:../../core/drivers/STC3115/src/stc3115.c ****   if (RAMData.reg.STC3115_State == STC3115_INIT)
 1686              		.loc 1 882 0
 1687 0088 4F4B     		ldr	r3, .L158
 1688 008a 5B7A     		ldrb	r3, [r3, #9]	@ zero_extendqisi2
 1689 008c 492B     		cmp	r3, #73
 1690 008e 2BD0     		beq	.L154
 1691              	.L140:
 883:../../core/drivers/STC3115/src/stc3115.c ****   {
 884:../../core/drivers/STC3115/src/stc3115.c ****     /* INIT state, wait for current & temperature value available: */
 885:../../core/drivers/STC3115/src/stc3115.c ****     if (BatteryData->ConvCounter > VCOUNT) 
 886:../../core/drivers/STC3115/src/stc3115.c ****     {
 887:../../core/drivers/STC3115/src/stc3115.c ****         RAMData.reg.STC3115_State = STC3115_RUNNING;
ARM GAS  /tmp/ccORYvFR.s 			page 48


 888:../../core/drivers/STC3115/src/stc3115.c **** 		/*Battery is connected*/
 889:../../core/drivers/STC3115/src/stc3115.c **** 		BatteryData->Presence = 1;
 890:../../core/drivers/STC3115/src/stc3115.c ****     }
 891:../../core/drivers/STC3115/src/stc3115.c ****   }
 892:../../core/drivers/STC3115/src/stc3115.c **** 
 893:../../core/drivers/STC3115/src/stc3115.c ****   if (RAMData.reg.STC3115_State != STC3115_RUNNING) /* not running : data partially available*/
 1692              		.loc 1 893 0
 1693 0090 4D4B     		ldr	r3, .L158
 1694 0092 5B7A     		ldrb	r3, [r3, #9]	@ zero_extendqisi2
 1695 0094 522B     		cmp	r3, #82
 1696 0096 30D0     		beq	.L141
 894:../../core/drivers/STC3115/src/stc3115.c ****   {
 895:../../core/drivers/STC3115/src/stc3115.c ****   	BatteryData->ChargeValue = ConfigData->Cnom * BatteryData->SOC / MAX_SOC;
 1697              		.loc 1 895 0
 1698 0098 7269     		ldr	r2, [r6, #20]
 1699 009a A368     		ldr	r3, [r4, #8]
 1700 009c 03FB02F3 		mul	r3, r3, r2
 1701 00a0 4A4A     		ldr	r2, .L158+4
 1702 00a2 82FB0312 		smull	r1, r2, r2, r3
 1703 00a6 DB17     		asrs	r3, r3, #31
 1704 00a8 C3EBA213 		rsb	r3, r3, r2, asr #6
 1705 00ac 6362     		str	r3, [r4, #36]
 896:../../core/drivers/STC3115/src/stc3115.c ****     BatteryData->Current=0;
 1706              		.loc 1 896 0
 1707 00ae 0023     		movs	r3, #0
 1708 00b0 2361     		str	r3, [r4, #16]
 897:../../core/drivers/STC3115/src/stc3115.c **** 	  BatteryData->Temperature=250;
 1709              		.loc 1 897 0
 1710 00b2 FA23     		movs	r3, #250
 1711 00b4 6361     		str	r3, [r4, #20]
 898:../../core/drivers/STC3115/src/stc3115.c ****     BatteryData->RemTime = -1;
 1712              		.loc 1 898 0
 1713 00b6 4FF0FF33 		mov	r3, #-1
 1714 00ba A362     		str	r3, [r4, #40]
 1715              	.LVL192:
 1716              	.L142:
 899:../../core/drivers/STC3115/src/stc3115.c ****   }
 900:../../core/drivers/STC3115/src/stc3115.c ****   else /* STC3115 running */
 901:../../core/drivers/STC3115/src/stc3115.c ****   {
 902:../../core/drivers/STC3115/src/stc3115.c ****   
 903:../../core/drivers/STC3115/src/stc3115.c **** 	/* ---------- process SW algorithms -------- */
 904:../../core/drivers/STC3115/src/stc3115.c **** 		
 905:../../core/drivers/STC3115/src/stc3115.c **** 	/* early empty compensation */
 906:../../core/drivers/STC3115/src/stc3115.c **** 	if (BatteryData->Voltage < APP_CUTOFF_VOLTAGE)
 907:../../core/drivers/STC3115/src/stc3115.c **** 		BatteryData->SOC = 0;
 908:../../core/drivers/STC3115/src/stc3115.c **** 	else if (BatteryData->Voltage < (APP_CUTOFF_VOLTAGE+VOLTAGE_SECURITY_RANGE))
 909:../../core/drivers/STC3115/src/stc3115.c **** 	{
 910:../../core/drivers/STC3115/src/stc3115.c **** 		// Recommended software security: scaling down the SOC if voltage is considered too close to the 
 911:../../core/drivers/STC3115/src/stc3115.c **** 		BatteryData->SOC = BatteryData->SOC * (BatteryData->Voltage - APP_CUTOFF_VOLTAGE) / VOLTAGE_SECUR
 912:../../core/drivers/STC3115/src/stc3115.c **** 	}
 913:../../core/drivers/STC3115/src/stc3115.c **** 
 914:../../core/drivers/STC3115/src/stc3115.c **** 	/* Battery charge value calculation */
 915:../../core/drivers/STC3115/src/stc3115.c **** 	BatteryData->ChargeValue = ConfigData->Cnom * BatteryData->SOC / MAX_SOC;
 916:../../core/drivers/STC3115/src/stc3115.c **** 
 917:../../core/drivers/STC3115/src/stc3115.c **** 	if ((BatteryData->StatusWord & STC3115_VMODE) == 0) /* mixed mode only*/
 918:../../core/drivers/STC3115/src/stc3115.c **** 	{  
 919:../../core/drivers/STC3115/src/stc3115.c **** 		
ARM GAS  /tmp/ccORYvFR.s 			page 49


 920:../../core/drivers/STC3115/src/stc3115.c **** 		/*Lately fully compensation*/
 921:../../core/drivers/STC3115/src/stc3115.c **** 		if ((BatteryData->StatusWord & STC3115_VMODE) == 0) /*running in mixed mode*/
 922:../../core/drivers/STC3115/src/stc3115.c **** 		{ 
 923:../../core/drivers/STC3115/src/stc3115.c **** 			
 924:../../core/drivers/STC3115/src/stc3115.c **** 			if(BatteryData->Current > APP_EOC_CURRENT && BatteryData->SOC > 990)
 925:../../core/drivers/STC3115/src/stc3115.c **** 			{
 926:../../core/drivers/STC3115/src/stc3115.c **** 				BatteryData->SOC = 990;
 927:../../core/drivers/STC3115/src/stc3115.c **** 				STC3115_WriteWord(STC3115_REG_SOC,50688);   /* 99% */  //force a new SoC displayed by fuel gaug
 928:../../core/drivers/STC3115/src/stc3115.c **** 			}
 929:../../core/drivers/STC3115/src/stc3115.c **** 		}
 930:../../core/drivers/STC3115/src/stc3115.c **** 		
 931:../../core/drivers/STC3115/src/stc3115.c **** 		/*Remaining time calculation*/
 932:../../core/drivers/STC3115/src/stc3115.c **** 		if(BatteryData->Current < 0)
 933:../../core/drivers/STC3115/src/stc3115.c **** 		{
 934:../../core/drivers/STC3115/src/stc3115.c **** 			BatteryData->RemTime = (BatteryData->RemTime * 4 + BatteryData->ChargeValue / BatteryData->Curre
 935:../../core/drivers/STC3115/src/stc3115.c **** 			if( BatteryData->RemTime  < 0)
 936:../../core/drivers/STC3115/src/stc3115.c **** 				BatteryData->RemTime = -1; /* means no estimated time available */
 937:../../core/drivers/STC3115/src/stc3115.c **** 		}
 938:../../core/drivers/STC3115/src/stc3115.c **** 		else
 939:../../core/drivers/STC3115/src/stc3115.c **** 			BatteryData->RemTime = -1; /* means no estimated time available */
 940:../../core/drivers/STC3115/src/stc3115.c **** 		
 941:../../core/drivers/STC3115/src/stc3115.c **** 	}
 942:../../core/drivers/STC3115/src/stc3115.c **** 	else /* voltage mode only */
 943:../../core/drivers/STC3115/src/stc3115.c **** 	{
 944:../../core/drivers/STC3115/src/stc3115.c **** 		BatteryData->Current=0;
 945:../../core/drivers/STC3115/src/stc3115.c **** 		BatteryData->RemTime = -1;
 946:../../core/drivers/STC3115/src/stc3115.c **** 	}
 947:../../core/drivers/STC3115/src/stc3115.c **** 	
 948:../../core/drivers/STC3115/src/stc3115.c **** 	//SOC min/max clamping
 949:../../core/drivers/STC3115/src/stc3115.c **** 	if(BatteryData->SOC>1000) BatteryData->SOC = MAX_SOC;
 950:../../core/drivers/STC3115/src/stc3115.c **** 	if(BatteryData->SOC<0) BatteryData->SOC = 0;
 951:../../core/drivers/STC3115/src/stc3115.c **** 
 952:../../core/drivers/STC3115/src/stc3115.c ****   }
 953:../../core/drivers/STC3115/src/stc3115.c ****       
 954:../../core/drivers/STC3115/src/stc3115.c ****   /* save SOC to internal RAM (in case of future Restore process) */
 955:../../core/drivers/STC3115/src/stc3115.c ****   {
 956:../../core/drivers/STC3115/src/stc3115.c **** 	  RAMData.reg.HRSOC = BatteryData->HRSOC;
 1717              		.loc 1 956 0
 1718 00bc 6368     		ldr	r3, [r4, #4]
 1719 00be 424E     		ldr	r6, .L158
 1720              	.LVL193:
 1721 00c0 7380     		strh	r3, [r6, #2]	@ movhi
 957:../../core/drivers/STC3115/src/stc3115.c **** 	  RAMData.reg.SOC = (BatteryData->SOC+5)/10;
 1722              		.loc 1 957 0
 1723 00c2 A368     		ldr	r3, [r4, #8]
 1724 00c4 0533     		adds	r3, r3, #5
 1725 00c6 424A     		ldr	r2, .L158+8
 1726 00c8 82FB0312 		smull	r1, r2, r2, r3
 1727 00cc DB17     		asrs	r3, r3, #31
 1728 00ce C3EBA203 		rsb	r3, r3, r2, asr #2
 1729 00d2 3372     		strb	r3, [r6, #8]
 958:../../core/drivers/STC3115/src/stc3115.c **** 	  STC3115_UpdateRamCRC();
 1730              		.loc 1 958 0
 1731 00d4 FFF7FEFF 		bl	STC3115_UpdateRamCRC
 1732              	.LVL194:
 959:../../core/drivers/STC3115/src/stc3115.c **** 	  STC3115_WriteRamData(RAMData.db);
 1733              		.loc 1 959 0
ARM GAS  /tmp/ccORYvFR.s 			page 50


 1734 00d8 3046     		mov	r0, r6
 1735 00da FFF7FEFF 		bl	STC3115_WriteRamData
 1736              	.LVL195:
 960:../../core/drivers/STC3115/src/stc3115.c ****   }
 961:../../core/drivers/STC3115/src/stc3115.c **** 
 962:../../core/drivers/STC3115/src/stc3115.c ****   if (RAMData.reg.STC3115_State==STC3115_RUNNING)
 1737              		.loc 1 962 0
 1738 00de 737A     		ldrb	r3, [r6, #9]	@ zero_extendqisi2
 1739 00e0 522B     		cmp	r3, #82
 1740 00e2 6CD0     		beq	.L155
 1741              	.LVL196:
 1742              	.L131:
 963:../../core/drivers/STC3115/src/stc3115.c ****     return(1);
 964:../../core/drivers/STC3115/src/stc3115.c ****   else
 965:../../core/drivers/STC3115/src/stc3115.c ****     return(0);  /* only SOC, OCV and voltage are valid */
 966:../../core/drivers/STC3115/src/stc3115.c **** }
 1743              		.loc 1 966 0
 1744 00e4 2846     		mov	r0, r5
 1745 00e6 70BD     		pop	{r4, r5, r6, pc}
 1746              	.LVL197:
 1747              	.L154:
 885:../../core/drivers/STC3115/src/stc3115.c ****     {
 1748              		.loc 1 885 0
 1749 00e8 A369     		ldr	r3, [r4, #24]
 1750 00ea 042B     		cmp	r3, #4
 1751 00ec D0DD     		ble	.L140
 887:../../core/drivers/STC3115/src/stc3115.c **** 		/*Battery is connected*/
 1752              		.loc 1 887 0
 1753 00ee 5222     		movs	r2, #82
 1754 00f0 354B     		ldr	r3, .L158
 1755 00f2 5A72     		strb	r2, [r3, #9]
 889:../../core/drivers/STC3115/src/stc3115.c ****     }
 1756              		.loc 1 889 0
 1757 00f4 0123     		movs	r3, #1
 1758 00f6 2362     		str	r3, [r4, #32]
 1759 00f8 CAE7     		b	.L140
 1760              	.L141:
 906:../../core/drivers/STC3115/src/stc3115.c **** 		BatteryData->SOC = 0;
 1761              		.loc 1 906 0
 1762 00fa E368     		ldr	r3, [r4, #12]
 1763 00fc 40F6B732 		movw	r2, #2999
 1764 0100 9342     		cmp	r3, r2
 1765 0102 1EDC     		bgt	.L143
 907:../../core/drivers/STC3115/src/stc3115.c **** 	else if (BatteryData->Voltage < (APP_CUTOFF_VOLTAGE+VOLTAGE_SECURITY_RANGE))
 1766              		.loc 1 907 0
 1767 0104 0023     		movs	r3, #0
 1768 0106 A360     		str	r3, [r4, #8]
 1769              	.L144:
 915:../../core/drivers/STC3115/src/stc3115.c **** 
 1770              		.loc 1 915 0
 1771 0108 7369     		ldr	r3, [r6, #20]
 1772 010a A168     		ldr	r1, [r4, #8]
 1773 010c 01FB03F3 		mul	r3, r1, r3
 1774 0110 2E4A     		ldr	r2, .L158+4
 1775 0112 82FB0302 		smull	r0, r2, r2, r3
 1776              	.LVL198:
 1777 0116 DB17     		asrs	r3, r3, #31
ARM GAS  /tmp/ccORYvFR.s 			page 51


 1778 0118 C3EBA213 		rsb	r3, r3, r2, asr #6
 1779 011c 6362     		str	r3, [r4, #36]
 917:../../core/drivers/STC3115/src/stc3115.c **** 	{  
 1780              		.loc 1 917 0
 1781 011e 2368     		ldr	r3, [r4]
 1782 0120 13F0010F 		tst	r3, #1
 1783 0124 39D1     		bne	.L145
 924:../../core/drivers/STC3115/src/stc3115.c **** 			{
 1784              		.loc 1 924 0
 1785 0126 2369     		ldr	r3, [r4, #16]
 1786 0128 4B2B     		cmp	r3, #75
 1787 012a 03DD     		ble	.L146
 924:../../core/drivers/STC3115/src/stc3115.c **** 			{
 1788              		.loc 1 924 0 is_stmt 0 discriminator 1
 1789 012c 40F2DE33 		movw	r3, #990
 1790 0130 9942     		cmp	r1, r3
 1791 0132 16DC     		bgt	.L156
 1792              	.L146:
 932:../../core/drivers/STC3115/src/stc3115.c **** 		{
 1793              		.loc 1 932 0 is_stmt 1
 1794 0134 2169     		ldr	r1, [r4, #16]
 1795 0136 0029     		cmp	r1, #0
 1796 0138 1ADB     		blt	.L157
 939:../../core/drivers/STC3115/src/stc3115.c **** 		
 1797              		.loc 1 939 0
 1798 013a 4FF0FF33 		mov	r3, #-1
 1799 013e A362     		str	r3, [r4, #40]
 1800 0140 30E0     		b	.L148
 1801              	.LVL199:
 1802              	.L143:
 908:../../core/drivers/STC3115/src/stc3115.c **** 	{
 1803              		.loc 1 908 0
 1804 0142 B3F5486F 		cmp	r3, #3200
 1805 0146 DFDA     		bge	.L144
 911:../../core/drivers/STC3115/src/stc3115.c **** 	}
 1806              		.loc 1 911 0
 1807 0148 A268     		ldr	r2, [r4, #8]
 1808 014a A3F6B833 		subw	r3, r3, #3000
 1809 014e 03FB02F3 		mul	r3, r3, r2
 1810 0152 204A     		ldr	r2, .L158+12
 1811 0154 82FB0312 		smull	r1, r2, r2, r3
 1812 0158 DB17     		asrs	r3, r3, #31
 1813 015a C3EBA213 		rsb	r3, r3, r2, asr #6
 1814 015e A360     		str	r3, [r4, #8]
 1815 0160 D2E7     		b	.L144
 1816              	.LVL200:
 1817              	.L156:
 926:../../core/drivers/STC3115/src/stc3115.c **** 				STC3115_WriteWord(STC3115_REG_SOC,50688);   /* 99% */  //force a new SoC displayed by fuel gaug
 1818              		.loc 1 926 0
 1819 0162 A360     		str	r3, [r4, #8]
 927:../../core/drivers/STC3115/src/stc3115.c **** 			}
 1820              		.loc 1 927 0
 1821 0164 4FF44641 		mov	r1, #50688
 1822 0168 0220     		movs	r0, #2
 1823 016a FFF7FEFF 		bl	STC3115_WriteWord
 1824              	.LVL201:
 1825 016e E1E7     		b	.L146
ARM GAS  /tmp/ccORYvFR.s 			page 52


 1826              	.L157:
 934:../../core/drivers/STC3115/src/stc3115.c **** 			if( BatteryData->RemTime  < 0)
 1827              		.loc 1 934 0
 1828 0170 A26A     		ldr	r2, [r4, #40]
 1829 0172 636A     		ldr	r3, [r4, #36]
 1830 0174 93FBF1F3 		sdiv	r3, r3, r1
 1831 0178 C3EB0313 		rsb	r3, r3, r3, lsl #4
 1832 017c 1A44     		add	r2, r2, r3
 1833 017e 9200     		lsls	r2, r2, #2
 1834 0180 1349     		ldr	r1, .L158+8
 1835 0182 81FB0231 		smull	r3, r1, r1, r2
 1836 0186 D317     		asrs	r3, r2, #31
 1837 0188 C3EB6103 		rsb	r3, r3, r1, asr #1
 1838 018c A362     		str	r3, [r4, #40]
 935:../../core/drivers/STC3115/src/stc3115.c **** 				BatteryData->RemTime = -1; /* means no estimated time available */
 1839              		.loc 1 935 0
 1840 018e 002B     		cmp	r3, #0
 1841 0190 08DA     		bge	.L148
 936:../../core/drivers/STC3115/src/stc3115.c **** 		}
 1842              		.loc 1 936 0
 1843 0192 4FF0FF33 		mov	r3, #-1
 1844 0196 A362     		str	r3, [r4, #40]
 1845 0198 04E0     		b	.L148
 1846              	.L145:
 944:../../core/drivers/STC3115/src/stc3115.c **** 		BatteryData->RemTime = -1;
 1847              		.loc 1 944 0
 1848 019a 0023     		movs	r3, #0
 1849 019c 2361     		str	r3, [r4, #16]
 945:../../core/drivers/STC3115/src/stc3115.c **** 	}
 1850              		.loc 1 945 0
 1851 019e 4FF0FF33 		mov	r3, #-1
 1852 01a2 A362     		str	r3, [r4, #40]
 1853              	.L148:
 949:../../core/drivers/STC3115/src/stc3115.c **** 	if(BatteryData->SOC<0) BatteryData->SOC = 0;
 1854              		.loc 1 949 0
 1855 01a4 A368     		ldr	r3, [r4, #8]
 1856 01a6 B3F57A7F 		cmp	r3, #1000
 1857 01aa 02DD     		ble	.L149
 949:../../core/drivers/STC3115/src/stc3115.c **** 	if(BatteryData->SOC<0) BatteryData->SOC = 0;
 1858              		.loc 1 949 0 is_stmt 0 discriminator 1
 1859 01ac 4FF47A73 		mov	r3, #1000
 1860 01b0 A360     		str	r3, [r4, #8]
 1861              	.L149:
 950:../../core/drivers/STC3115/src/stc3115.c **** 
 1862              		.loc 1 950 0 is_stmt 1
 1863 01b2 A368     		ldr	r3, [r4, #8]
 1864 01b4 002B     		cmp	r3, #0
 1865 01b6 81DA     		bge	.L142
 950:../../core/drivers/STC3115/src/stc3115.c **** 
 1866              		.loc 1 950 0 is_stmt 0 discriminator 1
 1867 01b8 0023     		movs	r3, #0
 1868 01ba A360     		str	r3, [r4, #8]
 1869 01bc 7EE7     		b	.L142
 1870              	.LVL202:
 1871              	.L155:
 963:../../core/drivers/STC3115/src/stc3115.c ****   else
 1872              		.loc 1 963 0 is_stmt 1
ARM GAS  /tmp/ccORYvFR.s 			page 53


 1873 01be 0125     		movs	r5, #1
 1874              	.LVL203:
 1875 01c0 90E7     		b	.L131
 1876              	.LVL204:
 1877              	.L150:
 877:../../core/drivers/STC3115/src/stc3115.c ****   
 1878              		.loc 1 877 0
 1879 01c2 4FF0FF35 		mov	r5, #-1
 1880 01c6 8DE7     		b	.L131
 1881              	.L159:
 1882              		.align	2
 1883              	.L158:
 1884 01c8 00000000 		.word	.LANCHOR0
 1885 01cc D34D6210 		.word	274877907
 1886 01d0 67666666 		.word	1717986919
 1887 01d4 1F85EB51 		.word	1374389535
 1888              		.cfi_endproc
 1889              	.LFE147:
 1891              		.section	.text.STC3115_SetPowerSavingMode,"ax",%progbits
 1892              		.align	1
 1893              		.global	STC3115_SetPowerSavingMode
 1894              		.syntax unified
 1895              		.thumb
 1896              		.thumb_func
 1897              		.fpu fpv4-sp-d16
 1899              	STC3115_SetPowerSavingMode:
 1900              	.LFB148:
 967:../../core/drivers/STC3115/src/stc3115.c **** 
 968:../../core/drivers/STC3115/src/stc3115.c **** 
 969:../../core/drivers/STC3115/src/stc3115.c **** 
 970:../../core/drivers/STC3115/src/stc3115.c **** /*******************************************************************************
 971:../../core/drivers/STC3115/src/stc3115.c **** * Function Name  : STC3115_SetPowerSavingMode
 972:../../core/drivers/STC3115/src/stc3115.c **** * Description    : Set the power saving mode
 973:../../core/drivers/STC3115/src/stc3115.c **** * Input          : None
 974:../../core/drivers/STC3115/src/stc3115.c **** * Return         : error status (STC3115_OK, !STC3115_OK)
 975:../../core/drivers/STC3115/src/stc3115.c **** *******************************************************************************/
 976:../../core/drivers/STC3115/src/stc3115.c **** int STC3115_SetPowerSavingMode(void)
 977:../../core/drivers/STC3115/src/stc3115.c **** {
 1901              		.loc 1 977 0
 1902              		.cfi_startproc
 1903              		@ args = 0, pretend = 0, frame = 0
 1904              		@ frame_needed = 0, uses_anonymous_args = 0
 1905 0000 08B5     		push	{r3, lr}
 1906              	.LCFI50:
 1907              		.cfi_def_cfa_offset 8
 1908              		.cfi_offset 3, -8
 1909              		.cfi_offset 14, -4
 978:../../core/drivers/STC3115/src/stc3115.c ****   int res;
 979:../../core/drivers/STC3115/src/stc3115.c ****   
 980:../../core/drivers/STC3115/src/stc3115.c ****   /* Read the mode register*/
 981:../../core/drivers/STC3115/src/stc3115.c ****   res = STC3115_ReadByte(STC3115_REG_MODE);
 1910              		.loc 1 981 0
 1911 0002 0020     		movs	r0, #0
 1912 0004 FFF7FEFF 		bl	STC3115_ReadByte
 1913              	.LVL205:
 982:../../core/drivers/STC3115/src/stc3115.c **** 
 983:../../core/drivers/STC3115/src/stc3115.c ****   /* Set the VMODE bit to 1 */
ARM GAS  /tmp/ccORYvFR.s 			page 54


 984:../../core/drivers/STC3115/src/stc3115.c ****   res = STC3115_WriteByte(STC3115_REG_MODE, (res | STC3115_VMODE));
 1914              		.loc 1 984 0
 1915 0008 40F00101 		orr	r1, r0, #1
 1916 000c C9B2     		uxtb	r1, r1
 1917 000e 0020     		movs	r0, #0
 1918              	.LVL206:
 1919 0010 FFF7FEFF 		bl	STC3115_WriteByte
 1920              	.LVL207:
 985:../../core/drivers/STC3115/src/stc3115.c ****   if (res!= STC3115_OK) return (res);
 986:../../core/drivers/STC3115/src/stc3115.c **** 
 987:../../core/drivers/STC3115/src/stc3115.c ****    return (STC3115_OK);
 988:../../core/drivers/STC3115/src/stc3115.c **** }
 1921              		.loc 1 988 0
 1922 0014 08BD     		pop	{r3, pc}
 1923              		.cfi_endproc
 1924              	.LFE148:
 1926              		.section	.text.STC3115_StopPowerSavingMode,"ax",%progbits
 1927              		.align	1
 1928              		.global	STC3115_StopPowerSavingMode
 1929              		.syntax unified
 1930              		.thumb
 1931              		.thumb_func
 1932              		.fpu fpv4-sp-d16
 1934              	STC3115_StopPowerSavingMode:
 1935              	.LFB149:
 989:../../core/drivers/STC3115/src/stc3115.c **** 
 990:../../core/drivers/STC3115/src/stc3115.c **** 
 991:../../core/drivers/STC3115/src/stc3115.c **** /*******************************************************************************
 992:../../core/drivers/STC3115/src/stc3115.c **** * Function Name  : STC3115_StopPowerSavingMode
 993:../../core/drivers/STC3115/src/stc3115.c **** * Description    : Stop the power saving mode
 994:../../core/drivers/STC3115/src/stc3115.c **** * Input          : None
 995:../../core/drivers/STC3115/src/stc3115.c **** * Return         : error status (STC3115_OK, !STC3115_OK)
 996:../../core/drivers/STC3115/src/stc3115.c **** *******************************************************************************/
 997:../../core/drivers/STC3115/src/stc3115.c **** int STC3115_StopPowerSavingMode(void)
 998:../../core/drivers/STC3115/src/stc3115.c **** {
 1936              		.loc 1 998 0
 1937              		.cfi_startproc
 1938              		@ args = 0, pretend = 0, frame = 0
 1939              		@ frame_needed = 0, uses_anonymous_args = 0
 1940 0000 08B5     		push	{r3, lr}
 1941              	.LCFI51:
 1942              		.cfi_def_cfa_offset 8
 1943              		.cfi_offset 3, -8
 1944              		.cfi_offset 14, -4
 999:../../core/drivers/STC3115/src/stc3115.c ****   int res;
1000:../../core/drivers/STC3115/src/stc3115.c ****   
1001:../../core/drivers/STC3115/src/stc3115.c ****   /* Read the mode register*/
1002:../../core/drivers/STC3115/src/stc3115.c ****   res = STC3115_ReadByte(STC3115_REG_MODE);
 1945              		.loc 1 1002 0
 1946 0002 0020     		movs	r0, #0
 1947 0004 FFF7FEFF 		bl	STC3115_ReadByte
 1948              	.LVL208:
1003:../../core/drivers/STC3115/src/stc3115.c **** 
1004:../../core/drivers/STC3115/src/stc3115.c ****   /*STC3115 is in power saving mode by default, cannot be set dynamically in mixed mode.		*/
1005:../../core/drivers/STC3115/src/stc3115.c ****   /*Change stc3115_Driver.h VMODE parameter, and connect an external sense resistor to STC3115	*/
1006:../../core/drivers/STC3115/src/stc3115.c ****   if (VMODE != MIXED_MODE) return (!STC3115_OK); 
1007:../../core/drivers/STC3115/src/stc3115.c ****   
ARM GAS  /tmp/ccORYvFR.s 			page 55


1008:../../core/drivers/STC3115/src/stc3115.c ****   /* Set the VMODE bit to 0 */
1009:../../core/drivers/STC3115/src/stc3115.c ****   res = STC3115_WriteByte(STC3115_REG_MODE, (res & ~STC3115_VMODE));
 1949              		.loc 1 1009 0
 1950 0008 00F0FE01 		and	r1, r0, #254
 1951 000c 0020     		movs	r0, #0
 1952              	.LVL209:
 1953 000e FFF7FEFF 		bl	STC3115_WriteByte
 1954              	.LVL210:
1010:../../core/drivers/STC3115/src/stc3115.c ****   if (res!= STC3115_OK) return (res);
1011:../../core/drivers/STC3115/src/stc3115.c **** 
1012:../../core/drivers/STC3115/src/stc3115.c ****    return (STC3115_OK);
1013:../../core/drivers/STC3115/src/stc3115.c **** }
 1955              		.loc 1 1013 0
 1956 0012 08BD     		pop	{r3, pc}
 1957              		.cfi_endproc
 1958              	.LFE149:
 1960              		.section	.text.STC3115_AlarmSet,"ax",%progbits
 1961              		.align	1
 1962              		.global	STC3115_AlarmSet
 1963              		.syntax unified
 1964              		.thumb
 1965              		.thumb_func
 1966              		.fpu fpv4-sp-d16
 1968              	STC3115_AlarmSet:
 1969              	.LFB150:
1014:../../core/drivers/STC3115/src/stc3115.c **** 
1015:../../core/drivers/STC3115/src/stc3115.c **** 
1016:../../core/drivers/STC3115/src/stc3115.c **** /*******************************************************************************
1017:../../core/drivers/STC3115/src/stc3115.c **** * Function Name  : STC3115_AlarmSet
1018:../../core/drivers/STC3115/src/stc3115.c **** * Description    : Set the alarm function
1019:../../core/drivers/STC3115/src/stc3115.c **** * Input          : None
1020:../../core/drivers/STC3115/src/stc3115.c **** * Return         : error status (STC3115_OK, !STC3115_OK)
1021:../../core/drivers/STC3115/src/stc3115.c **** *******************************************************************************/
1022:../../core/drivers/STC3115/src/stc3115.c **** int STC3115_AlarmSet(void)
1023:../../core/drivers/STC3115/src/stc3115.c **** {
 1970              		.loc 1 1023 0
 1971              		.cfi_startproc
 1972              		@ args = 0, pretend = 0, frame = 0
 1973              		@ frame_needed = 0, uses_anonymous_args = 0
 1974 0000 08B5     		push	{r3, lr}
 1975              	.LCFI52:
 1976              		.cfi_def_cfa_offset 8
 1977              		.cfi_offset 3, -8
 1978              		.cfi_offset 14, -4
1024:../../core/drivers/STC3115/src/stc3115.c ****   int res;
1025:../../core/drivers/STC3115/src/stc3115.c **** 
1026:../../core/drivers/STC3115/src/stc3115.c ****   /* Read the mode register*/
1027:../../core/drivers/STC3115/src/stc3115.c ****   res = STC3115_ReadByte(STC3115_REG_MODE);
 1979              		.loc 1 1027 0
 1980 0002 0020     		movs	r0, #0
 1981 0004 FFF7FEFF 		bl	STC3115_ReadByte
 1982              	.LVL211:
1028:../../core/drivers/STC3115/src/stc3115.c **** 
1029:../../core/drivers/STC3115/src/stc3115.c ****   /* Set the ALM_ENA bit to 1 */
1030:../../core/drivers/STC3115/src/stc3115.c ****   res = STC3115_WriteByte(STC3115_REG_MODE, (res | STC3115_ALM_ENA));
 1983              		.loc 1 1030 0
 1984 0008 40F00801 		orr	r1, r0, #8
ARM GAS  /tmp/ccORYvFR.s 			page 56


 1985 000c C9B2     		uxtb	r1, r1
 1986 000e 0020     		movs	r0, #0
 1987              	.LVL212:
 1988 0010 FFF7FEFF 		bl	STC3115_WriteByte
 1989              	.LVL213:
1031:../../core/drivers/STC3115/src/stc3115.c ****   if (res!= STC3115_OK) return (res);
1032:../../core/drivers/STC3115/src/stc3115.c **** 
1033:../../core/drivers/STC3115/src/stc3115.c ****   return (STC3115_OK);
1034:../../core/drivers/STC3115/src/stc3115.c **** }
 1990              		.loc 1 1034 0
 1991 0014 08BD     		pop	{r3, pc}
 1992              		.cfi_endproc
 1993              	.LFE150:
 1995              		.section	.text.STC3115_AlarmStop,"ax",%progbits
 1996              		.align	1
 1997              		.global	STC3115_AlarmStop
 1998              		.syntax unified
 1999              		.thumb
 2000              		.thumb_func
 2001              		.fpu fpv4-sp-d16
 2003              	STC3115_AlarmStop:
 2004              	.LFB151:
1035:../../core/drivers/STC3115/src/stc3115.c **** 
1036:../../core/drivers/STC3115/src/stc3115.c **** 
1037:../../core/drivers/STC3115/src/stc3115.c **** /*******************************************************************************
1038:../../core/drivers/STC3115/src/stc3115.c **** * Function Name  : STC3115_AlarmStop
1039:../../core/drivers/STC3115/src/stc3115.c **** * Description    : Stop the alarm function
1040:../../core/drivers/STC3115/src/stc3115.c **** * Input          : None
1041:../../core/drivers/STC3115/src/stc3115.c **** * Return         : error status (STC3115_OK, !STC3115_OK)
1042:../../core/drivers/STC3115/src/stc3115.c **** *******************************************************************************/
1043:../../core/drivers/STC3115/src/stc3115.c **** int STC3115_AlarmStop(void)
1044:../../core/drivers/STC3115/src/stc3115.c **** {
 2005              		.loc 1 1044 0
 2006              		.cfi_startproc
 2007              		@ args = 0, pretend = 0, frame = 0
 2008              		@ frame_needed = 0, uses_anonymous_args = 0
 2009 0000 08B5     		push	{r3, lr}
 2010              	.LCFI53:
 2011              		.cfi_def_cfa_offset 8
 2012              		.cfi_offset 3, -8
 2013              		.cfi_offset 14, -4
1045:../../core/drivers/STC3115/src/stc3115.c ****   int res;
1046:../../core/drivers/STC3115/src/stc3115.c ****   
1047:../../core/drivers/STC3115/src/stc3115.c ****   /* Read the mode register*/
1048:../../core/drivers/STC3115/src/stc3115.c ****   res = STC3115_ReadByte(STC3115_REG_MODE);
 2014              		.loc 1 1048 0
 2015 0002 0020     		movs	r0, #0
 2016 0004 FFF7FEFF 		bl	STC3115_ReadByte
 2017              	.LVL214:
1049:../../core/drivers/STC3115/src/stc3115.c **** 
1050:../../core/drivers/STC3115/src/stc3115.c ****   /* Set the ALM_ENA bit to 0 */
1051:../../core/drivers/STC3115/src/stc3115.c ****   res = STC3115_WriteByte(STC3115_REG_MODE, (res & ~STC3115_ALM_ENA));
 2018              		.loc 1 1051 0
 2019 0008 00F0F701 		and	r1, r0, #247
 2020 000c 0020     		movs	r0, #0
 2021              	.LVL215:
 2022 000e FFF7FEFF 		bl	STC3115_WriteByte
ARM GAS  /tmp/ccORYvFR.s 			page 57


 2023              	.LVL216:
1052:../../core/drivers/STC3115/src/stc3115.c ****   if (res!= STC3115_OK) return (res);
1053:../../core/drivers/STC3115/src/stc3115.c **** 
1054:../../core/drivers/STC3115/src/stc3115.c ****    return (STC3115_OK);
1055:../../core/drivers/STC3115/src/stc3115.c **** }
 2024              		.loc 1 1055 0
 2025 0012 08BD     		pop	{r3, pc}
 2026              		.cfi_endproc
 2027              	.LFE151:
 2029              		.section	.text.STC3115_AlarmGet,"ax",%progbits
 2030              		.align	1
 2031              		.global	STC3115_AlarmGet
 2032              		.syntax unified
 2033              		.thumb
 2034              		.thumb_func
 2035              		.fpu fpv4-sp-d16
 2037              	STC3115_AlarmGet:
 2038              	.LFB152:
1056:../../core/drivers/STC3115/src/stc3115.c **** 
1057:../../core/drivers/STC3115/src/stc3115.c **** 
1058:../../core/drivers/STC3115/src/stc3115.c **** /*******************************************************************************
1059:../../core/drivers/STC3115/src/stc3115.c **** * Function Name  : STC3115_AlarmGet
1060:../../core/drivers/STC3115/src/stc3115.c **** * Description    : Return the ALM status
1061:../../core/drivers/STC3115/src/stc3115.c **** * Input          : None
1062:../../core/drivers/STC3115/src/stc3115.c **** * Return         : ALM status 00 : no alarm 
1063:../../core/drivers/STC3115/src/stc3115.c **** *                             01 : SOC alarm
1064:../../core/drivers/STC3115/src/stc3115.c **** *                             10 : Voltage alarm
1065:../../core/drivers/STC3115/src/stc3115.c **** *                             11 : SOC and voltage alarm
1066:../../core/drivers/STC3115/src/stc3115.c **** *******************************************************************************/
1067:../../core/drivers/STC3115/src/stc3115.c **** int STC3115_AlarmGet(void)
1068:../../core/drivers/STC3115/src/stc3115.c **** {
 2039              		.loc 1 1068 0
 2040              		.cfi_startproc
 2041              		@ args = 0, pretend = 0, frame = 0
 2042              		@ frame_needed = 0, uses_anonymous_args = 0
 2043 0000 08B5     		push	{r3, lr}
 2044              	.LCFI54:
 2045              		.cfi_def_cfa_offset 8
 2046              		.cfi_offset 3, -8
 2047              		.cfi_offset 14, -4
1069:../../core/drivers/STC3115/src/stc3115.c ****   int res;
1070:../../core/drivers/STC3115/src/stc3115.c ****   
1071:../../core/drivers/STC3115/src/stc3115.c ****   /* Read the mode register*/
1072:../../core/drivers/STC3115/src/stc3115.c ****   res = STC3115_ReadByte(STC3115_REG_CTRL);
 2048              		.loc 1 1072 0
 2049 0002 0120     		movs	r0, #1
 2050 0004 FFF7FEFF 		bl	STC3115_ReadByte
 2051              	.LVL217:
1073:../../core/drivers/STC3115/src/stc3115.c **** 	if (res== -1) return (res);
 2052              		.loc 1 1073 0
 2053 0008 B0F1FF3F 		cmp	r0, #-1
 2054 000c 00D0     		beq	.L168
1074:../../core/drivers/STC3115/src/stc3115.c **** 	
1075:../../core/drivers/STC3115/src/stc3115.c ****   res = res >> 5;
 2055              		.loc 1 1075 0
 2056 000e 4011     		asrs	r0, r0, #5
 2057              	.LVL218:
ARM GAS  /tmp/ccORYvFR.s 			page 58


 2058              	.L168:
1076:../../core/drivers/STC3115/src/stc3115.c **** 
1077:../../core/drivers/STC3115/src/stc3115.c ****    return (res);
1078:../../core/drivers/STC3115/src/stc3115.c **** }
 2059              		.loc 1 1078 0
 2060 0010 08BD     		pop	{r3, pc}
 2061              		.cfi_endproc
 2062              	.LFE152:
 2064              		.section	.text.STC3115_AlarmClear,"ax",%progbits
 2065              		.align	1
 2066              		.global	STC3115_AlarmClear
 2067              		.syntax unified
 2068              		.thumb
 2069              		.thumb_func
 2070              		.fpu fpv4-sp-d16
 2072              	STC3115_AlarmClear:
 2073              	.LFB153:
1079:../../core/drivers/STC3115/src/stc3115.c **** 
1080:../../core/drivers/STC3115/src/stc3115.c **** 
1081:../../core/drivers/STC3115/src/stc3115.c **** /*******************************************************************************
1082:../../core/drivers/STC3115/src/stc3115.c **** * Function Name  : STC3115_AlarmClear
1083:../../core/drivers/STC3115/src/stc3115.c **** * Description    : Clear the alarm signal
1084:../../core/drivers/STC3115/src/stc3115.c **** * Input          : None
1085:../../core/drivers/STC3115/src/stc3115.c **** * Return         : error status (STC3115_OK, !STC3115_OK)
1086:../../core/drivers/STC3115/src/stc3115.c **** *******************************************************************************/
1087:../../core/drivers/STC3115/src/stc3115.c **** int STC3115_AlarmClear(void)
1088:../../core/drivers/STC3115/src/stc3115.c **** {
 2074              		.loc 1 1088 0
 2075              		.cfi_startproc
 2076              		@ args = 0, pretend = 0, frame = 0
 2077              		@ frame_needed = 0, uses_anonymous_args = 0
 2078 0000 08B5     		push	{r3, lr}
 2079              	.LCFI55:
 2080              		.cfi_def_cfa_offset 8
 2081              		.cfi_offset 3, -8
 2082              		.cfi_offset 14, -4
1089:../../core/drivers/STC3115/src/stc3115.c ****   int res;
1090:../../core/drivers/STC3115/src/stc3115.c ****   
1091:../../core/drivers/STC3115/src/stc3115.c ****   /* clear ALM bits*/
1092:../../core/drivers/STC3115/src/stc3115.c ****   res = STC3115_WriteByte(STC3115_REG_CTRL, 0x01);
 2083              		.loc 1 1092 0
 2084 0002 0121     		movs	r1, #1
 2085 0004 0846     		mov	r0, r1
 2086 0006 FFF7FEFF 		bl	STC3115_WriteByte
 2087              	.LVL219:
1093:../../core/drivers/STC3115/src/stc3115.c ****   if (res!= STC3115_OK) return (res);
1094:../../core/drivers/STC3115/src/stc3115.c **** 
1095:../../core/drivers/STC3115/src/stc3115.c ****   return (res);
1096:../../core/drivers/STC3115/src/stc3115.c **** }
 2088              		.loc 1 1096 0
 2089 000a 08BD     		pop	{r3, pc}
 2090              		.cfi_endproc
 2091              	.LFE153:
 2093              		.section	.text.STC3115_AlarmSetVoltageThreshold,"ax",%progbits
 2094              		.align	1
 2095              		.global	STC3115_AlarmSetVoltageThreshold
 2096              		.syntax unified
ARM GAS  /tmp/ccORYvFR.s 			page 59


 2097              		.thumb
 2098              		.thumb_func
 2099              		.fpu fpv4-sp-d16
 2101              	STC3115_AlarmSetVoltageThreshold:
 2102              	.LFB154:
1097:../../core/drivers/STC3115/src/stc3115.c **** 
1098:../../core/drivers/STC3115/src/stc3115.c **** 
1099:../../core/drivers/STC3115/src/stc3115.c **** /*******************************************************************************
1100:../../core/drivers/STC3115/src/stc3115.c **** * Function Name  : STC3115_AlarmSetVoltageThreshold
1101:../../core/drivers/STC3115/src/stc3115.c **** * Description    : Set the alarm threshold
1102:../../core/drivers/STC3115/src/stc3115.c **** * Input          : int voltage threshold in mV
1103:../../core/drivers/STC3115/src/stc3115.c **** * Return         : error status (STC3115_OK, !STC3115_OK)
1104:../../core/drivers/STC3115/src/stc3115.c **** *******************************************************************************/
1105:../../core/drivers/STC3115/src/stc3115.c **** int STC3115_AlarmSetVoltageThreshold(STC3115_ConfigData_TypeDef *ConfigData, int VoltThresh)
1106:../../core/drivers/STC3115/src/stc3115.c **** {
 2103              		.loc 1 1106 0
 2104              		.cfi_startproc
 2105              		@ args = 0, pretend = 0, frame = 0
 2106              		@ frame_needed = 0, uses_anonymous_args = 0
 2107              	.LVL220:
 2108 0000 08B5     		push	{r3, lr}
 2109              	.LCFI56:
 2110              		.cfi_def_cfa_offset 8
 2111              		.cfi_offset 3, -8
 2112              		.cfi_offset 14, -4
1107:../../core/drivers/STC3115/src/stc3115.c ****   int res;
1108:../../core/drivers/STC3115/src/stc3115.c ****   int value;
1109:../../core/drivers/STC3115/src/stc3115.c ****   
1110:../../core/drivers/STC3115/src/stc3115.c ****   ConfigData->Alm_Vbat = VoltThresh;
 2113              		.loc 1 1110 0
 2114 0002 8160     		str	r1, [r0, #8]
1111:../../core/drivers/STC3115/src/stc3115.c ****     
1112:../../core/drivers/STC3115/src/stc3115.c ****   value= ((long)(ConfigData->Alm_Vbat << 9) / VoltageFactor); /* LSB=8*2.2mV */
 2115              		.loc 1 1112 0
 2116 0004 4902     		lsls	r1, r1, #9
 2117              	.LVL221:
 2118 0006 054B     		ldr	r3, .L175
 2119 0008 83FB0123 		smull	r2, r3, r3, r1
 2120 000c C917     		asrs	r1, r1, #31
 2121 000e C1EB2331 		rsb	r1, r1, r3, asr #12
 2122              	.LVL222:
1113:../../core/drivers/STC3115/src/stc3115.c ****   res = STC3115_WriteByte(STC3115_REG_ALARM_VOLTAGE, value);
 2123              		.loc 1 1113 0
 2124 0012 C9B2     		uxtb	r1, r1
 2125              	.LVL223:
 2126 0014 1420     		movs	r0, #20
 2127              	.LVL224:
 2128 0016 FFF7FEFF 		bl	STC3115_WriteByte
 2129              	.LVL225:
1114:../../core/drivers/STC3115/src/stc3115.c ****   if (res!= STC3115_OK) return (res);
1115:../../core/drivers/STC3115/src/stc3115.c **** 
1116:../../core/drivers/STC3115/src/stc3115.c ****    return (STC3115_OK);
1117:../../core/drivers/STC3115/src/stc3115.c **** }
 2130              		.loc 1 1117 0
 2131 001a 08BD     		pop	{r3, pc}
 2132              	.L176:
 2133              		.align	2
ARM GAS  /tmp/ccORYvFR.s 			page 60


 2134              	.L175:
 2135 001c 89C05D74 		.word	1952301193
 2136              		.cfi_endproc
 2137              	.LFE154:
 2139              		.section	.text.STC3115_AlarmSetSOCThreshold,"ax",%progbits
 2140              		.align	1
 2141              		.global	STC3115_AlarmSetSOCThreshold
 2142              		.syntax unified
 2143              		.thumb
 2144              		.thumb_func
 2145              		.fpu fpv4-sp-d16
 2147              	STC3115_AlarmSetSOCThreshold:
 2148              	.LFB155:
1118:../../core/drivers/STC3115/src/stc3115.c **** 
1119:../../core/drivers/STC3115/src/stc3115.c **** 
1120:../../core/drivers/STC3115/src/stc3115.c **** /*******************************************************************************
1121:../../core/drivers/STC3115/src/stc3115.c **** * Function Name  : STC3115_AlarmSetSOCThreshold
1122:../../core/drivers/STC3115/src/stc3115.c **** * Description    : Set the alarm threshold
1123:../../core/drivers/STC3115/src/stc3115.c **** * Input          : int voltage threshold in %
1124:../../core/drivers/STC3115/src/stc3115.c **** * Return         : error status (STC3115_OK, !STC3115_OK)
1125:../../core/drivers/STC3115/src/stc3115.c **** *******************************************************************************/
1126:../../core/drivers/STC3115/src/stc3115.c **** int STC3115_AlarmSetSOCThreshold(STC3115_ConfigData_TypeDef *ConfigData, int SOCThresh)
1127:../../core/drivers/STC3115/src/stc3115.c **** {
 2149              		.loc 1 1127 0
 2150              		.cfi_startproc
 2151              		@ args = 0, pretend = 0, frame = 0
 2152              		@ frame_needed = 0, uses_anonymous_args = 0
 2153              	.LVL226:
 2154 0000 08B5     		push	{r3, lr}
 2155              	.LCFI57:
 2156              		.cfi_def_cfa_offset 8
 2157              		.cfi_offset 3, -8
 2158              		.cfi_offset 14, -4
1128:../../core/drivers/STC3115/src/stc3115.c ****   int res;
1129:../../core/drivers/STC3115/src/stc3115.c **** 
1130:../../core/drivers/STC3115/src/stc3115.c ****   ConfigData->Alm_SOC = SOCThresh;
 2159              		.loc 1 1130 0
 2160 0002 4160     		str	r1, [r0, #4]
1131:../../core/drivers/STC3115/src/stc3115.c ****   res = STC3115_WriteByte(STC3115_REG_ALARM_SOC, ConfigData->Alm_SOC*2);
 2161              		.loc 1 1131 0
 2162 0004 4900     		lsls	r1, r1, #1
 2163              	.LVL227:
 2164 0006 01F0FE01 		and	r1, r1, #254
 2165 000a 1320     		movs	r0, #19
 2166              	.LVL228:
 2167 000c FFF7FEFF 		bl	STC3115_WriteByte
 2168              	.LVL229:
1132:../../core/drivers/STC3115/src/stc3115.c ****   if (res!= STC3115_OK) return (res);
1133:../../core/drivers/STC3115/src/stc3115.c ****   
1134:../../core/drivers/STC3115/src/stc3115.c ****   return (STC3115_OK);
1135:../../core/drivers/STC3115/src/stc3115.c **** }
 2169              		.loc 1 1135 0
 2170 0010 08BD     		pop	{r3, pc}
 2171              		.cfi_endproc
 2172              	.LFE155:
 2174              		.section	.bss.RAMData,"aw",%nobits
 2175              		.align	2
ARM GAS  /tmp/ccORYvFR.s 			page 61


 2176              		.set	.LANCHOR0,. + 0
 2179              	RAMData:
 2180 0000 00000000 		.space	16
 2180      00000000 
 2180      00000000 
 2180      00000000 
 2181              		.section	.bss.hi2cLib,"aw",%nobits
 2182              		.align	2
 2183              		.set	.LANCHOR1,. + 0
 2186              	hi2cLib:
 2187 0000 00000000 		.space	4
 2188              		.text
 2189              	.Letext0:
 2190              		.file 2 "/usr/include/newlib/machine/_default_types.h"
 2191              		.file 3 "/usr/include/newlib/sys/_stdint.h"
 2192              		.file 4 "../../core/ST/CMSIS/Include/core_cm4.h"
 2193              		.file 5 "../../core/ST/CMSIS/Device/ST/STM32L4xx/Include/system_stm32l4xx.h"
 2194              		.file 6 "../../core/ST/CMSIS/Device/ST/STM32L4xx/Include/stm32l496xx.h"
 2195              		.file 7 "../../core/ST/STM32L4xx_HAL_Driver/Inc/stm32l4xx_hal_def.h"
 2196              		.file 8 "../../core/ST/STM32L4xx_HAL_Driver/Inc/stm32l4xx_hal_dma.h"
 2197              		.file 9 "../../core/ST/STM32L4xx_HAL_Driver/Inc/stm32l4xx_hal_i2c.h"
 2198              		.file 10 "../../core/ST/STM32L4xx_HAL_Driver/Inc/stm32l4xx_hal.h"
 2199              		.file 11 "../../core/drivers/STC3115/inc/stc3115.h"
ARM GAS  /tmp/ccORYvFR.s 			page 62

