ARM GAS  /tmp/ccPWelB9.s 			page 1


   1              		.cpu cortex-m4
   2              		.eabi_attribute 27, 1
   3              		.eabi_attribute 28, 1
   4              		.eabi_attribute 20, 1
   5              		.eabi_attribute 21, 1
   6              		.eabi_attribute 23, 3
   7              		.eabi_attribute 24, 1
   8              		.eabi_attribute 25, 1
   9              		.eabi_attribute 26, 1
  10              		.eabi_attribute 30, 1
  11              		.eabi_attribute 34, 1
  12              		.eabi_attribute 18, 4
  13              		.file	"func.c"
  14              		.text
  15              	.Ltext0:
  16              		.cfi_sections	.debug_frame
  17              		.section	.text.check_modules,"ax",%progbits
  18              		.align	1
  19              		.global	check_modules
  20              		.syntax unified
  21              		.thumb
  22              		.thumb_func
  23              		.fpu fpv4-sp-d16
  25              	check_modules:
  26              	.LFB137:
  27              		.file 1 "../../applications/iotproject/src/func.c"
   1:../../applications/iotproject/src/func.c **** #include "iotproject.h"
   2:../../applications/iotproject/src/func.c **** #include "func.h"
   3:../../applications/iotproject/src/func.c **** 
   4:../../applications/iotproject/src/func.c **** uint16_t LoRaWAN_Counter = 0;
   5:../../applications/iotproject/src/func.c **** uint8_t lora_init = 0;
   6:../../applications/iotproject/src/func.c **** uint64_t short_UID;
   7:../../applications/iotproject/src/func.c **** void StartDefaultTask(void const *argument) {
   8:../../applications/iotproject/src/func.c ****   printf("Start the device!\n\r");
   9:../../applications/iotproject/src/func.c ****   while (1) {
  10:../../applications/iotproject/src/func.c ****     if(acc_int==1){
  11:../../applications/iotproject/src/func.c ****       acc_int=2;
  12:../../applications/iotproject/src/func.c ****       temp_hum_measurement();
  13:../../applications/iotproject/src/func.c ****       LoRaWAN_send(NULL);
  14:../../applications/iotproject/src/func.c ****     }
  15:../../applications/iotproject/src/func.c ****     IWDG_feed(NULL);
  16:../../applications/iotproject/src/func.c ****     osDelay(1);
  17:../../applications/iotproject/src/func.c ****   }
  18:../../applications/iotproject/src/func.c **** }
  19:../../applications/iotproject/src/func.c **** void EXTI15_10_IRQHandler(void){
  20:../../applications/iotproject/src/func.c ****   HAL_GPIO_EXTI_IRQHandler(GPIO_PIN_13);
  21:../../applications/iotproject/src/func.c **** }
  22:../../applications/iotproject/src/func.c **** void EXTI9_5_IRQHandler(void){
  23:../../applications/iotproject/src/func.c ****   HAL_GPIO_EXTI_IRQHandler(GPIO_PIN_5);
  24:../../applications/iotproject/src/func.c **** }
  25:../../applications/iotproject/src/func.c **** void EXTI0_IRQHandler(void){
  26:../../applications/iotproject/src/func.c ****   HAL_GPIO_EXTI_IRQHandler(GPIO_PIN_0);
  27:../../applications/iotproject/src/func.c **** }
  28:../../applications/iotproject/src/func.c **** void EXTI1_IRQHandler(void){
  29:../../applications/iotproject/src/func.c ****   HAL_GPIO_EXTI_IRQHandler(GPIO_PIN_1);
  30:../../applications/iotproject/src/func.c **** }
  31:../../applications/iotproject/src/func.c **** void HAL_GPIO_EXTI_Callback(uint16_t gpioPinNumber){
ARM GAS  /tmp/ccPWelB9.s 			page 2


  32:../../applications/iotproject/src/func.c ****   if(GPIO_PIN_5==gpioPinNumber){
  33:../../applications/iotproject/src/func.c ****   printf("PIN5 Int \r\n");
  34:../../applications/iotproject/src/func.c ****   if(acc_int!=2)
  35:../../applications/iotproject/src/func.c ****     acc_int=1;
  36:../../applications/iotproject/src/func.c ****   }
  37:../../applications/iotproject/src/func.c ****   if(GPIO_PIN_13==gpioPinNumber){
  38:../../applications/iotproject/src/func.c ****   printf("PIN13 Int \r\n");
  39:../../applications/iotproject/src/func.c ****   }
  40:../../applications/iotproject/src/func.c ****   if(GPIO_PIN_0==gpioPinNumber){
  41:../../applications/iotproject/src/func.c ****     acc_int=0;
  42:../../applications/iotproject/src/func.c ****   //printf("PIN0 Int \r\n");
  43:../../applications/iotproject/src/func.c ****   printf("Rearmed \r\n");
  44:../../applications/iotproject/src/func.c ****   }
  45:../../applications/iotproject/src/func.c ****   if(GPIO_PIN_1==gpioPinNumber){
  46:../../applications/iotproject/src/func.c ****   printf("PIN1 Int \r\n");
  47:../../applications/iotproject/src/func.c ****   }
  48:../../applications/iotproject/src/func.c **** }
  49:../../applications/iotproject/src/func.c **** 
  50:../../applications/iotproject/src/func.c **** void LoRaWAN_send(void const *argument)
  51:../../applications/iotproject/src/func.c **** {
  52:../../applications/iotproject/src/func.c ****   if (lora_init)
  53:../../applications/iotproject/src/func.c ****   {
  54:../../applications/iotproject/src/func.c ****     uint8_t bytes[8];
  55:../../applications/iotproject/src/func.c ****     uint8_t loraMessage[8];
  56:../../applications/iotproject/src/func.c ****     uint8_t i = 0;
  57:../../applications/iotproject/src/func.c ****     //uint16 counter to uint8 array (little endian)
  58:../../applications/iotproject/src/func.c ****     //counter (large) type byte
  59:../../applications/iotproject/src/func.c ****     *(float*)(bytes)=SHTData[0];
  60:../../applications/iotproject/src/func.c ****     loraMessage[i++] = bytes[0];
  61:../../applications/iotproject/src/func.c ****     loraMessage[i++] = bytes[1];
  62:../../applications/iotproject/src/func.c ****     loraMessage[i++] = bytes[2];
  63:../../applications/iotproject/src/func.c ****     loraMessage[i++] = bytes[3];
  64:../../applications/iotproject/src/func.c ****     *(float*)(bytes)=SHTData[1];
  65:../../applications/iotproject/src/func.c ****     loraMessage[i++] = bytes[0];
  66:../../applications/iotproject/src/func.c ****     loraMessage[i++] = bytes[1];
  67:../../applications/iotproject/src/func.c ****     loraMessage[i++] = bytes[2];
  68:../../applications/iotproject/src/func.c ****     loraMessage[i++] = bytes[3];
  69:../../applications/iotproject/src/func.c ****     osMutexWait(txMutexId, osWaitForever);
  70:../../applications/iotproject/src/func.c ****     if(!Murata_LoRaWAN_Send((uint8_t *)loraMessage, i))
  71:../../applications/iotproject/src/func.c ****     {
  72:../../applications/iotproject/src/func.c ****       lora_init++;
  73:../../applications/iotproject/src/func.c ****       if(lora_init == 10)
  74:../../applications/iotproject/src/func.c ****         lora_init = 0;
  75:../../applications/iotproject/src/func.c ****     }
  76:../../applications/iotproject/src/func.c ****     else
  77:../../applications/iotproject/src/func.c ****     {
  78:../../applications/iotproject/src/func.c ****       lora_init = 1;
  79:../../applications/iotproject/src/func.c ****     }
  80:../../applications/iotproject/src/func.c ****     //BLOCK TX MUTEX FOR 3s
  81:../../applications/iotproject/src/func.c ****     osDelay(3000);
  82:../../applications/iotproject/src/func.c ****     osMutexRelease(txMutexId);
  83:../../applications/iotproject/src/func.c ****     LoRaWAN_Counter++;
  84:../../applications/iotproject/src/func.c ****   }
  85:../../applications/iotproject/src/func.c ****   else{
  86:../../applications/iotproject/src/func.c ****     printf("murata not initialized, not sending\r\n");
  87:../../applications/iotproject/src/func.c ****   }
  88:../../applications/iotproject/src/func.c **** }
ARM GAS  /tmp/ccPWelB9.s 			page 3


  89:../../applications/iotproject/src/func.c **** 
  90:../../applications/iotproject/src/func.c **** void check_modules(void const *argument)
  91:../../applications/iotproject/src/func.c **** {
  28              		.loc 1 91 0
  29              		.cfi_startproc
  30              		@ args = 0, pretend = 0, frame = 0
  31              		@ frame_needed = 0, uses_anonymous_args = 0
  32              	.LVL0:
  33 0000 08B5     		push	{r3, lr}
  34              	.LCFI0:
  35              		.cfi_def_cfa_offset 8
  36              		.cfi_offset 3, -8
  37              		.cfi_offset 14, -4
  92:../../applications/iotproject/src/func.c ****   printf("checking the status of the modules\r\n");
  38              		.loc 1 92 0
  39 0002 0848     		ldr	r0, .L5
  40              	.LVL1:
  41 0004 FFF7FEFF 		bl	puts
  42              	.LVL2:
  93:../../applications/iotproject/src/func.c ****   if (!lora_init)
  43              		.loc 1 93 0
  44 0008 074B     		ldr	r3, .L5+4
  45 000a 1B78     		ldrb	r3, [r3]	@ zero_extendqisi2
  46 000c 03B1     		cbz	r3, .L4
  47              	.L1:
  48 000e 08BD     		pop	{r3, pc}
  49              	.L4:
  94:../../applications/iotproject/src/func.c ****   {
  95:../../applications/iotproject/src/func.c ****     // LORAWAN
  96:../../applications/iotproject/src/func.c ****     lora_init = Murata_Initialize(short_UID);
  50              		.loc 1 96 0
  51 0010 064B     		ldr	r3, .L5+8
  52 0012 D3E90001 		ldrd	r0, [r3]
  53 0016 FFF7FEFF 		bl	Murata_Initialize
  54              	.LVL3:
  55 001a 034B     		ldr	r3, .L5+4
  56 001c 1870     		strb	r0, [r3]
  97:../../applications/iotproject/src/func.c ****     Murata_toggleResetPin();
  57              		.loc 1 97 0
  58 001e FFF7FEFF 		bl	Murata_toggleResetPin
  59              	.LVL4:
  98:../../applications/iotproject/src/func.c ****   }
  99:../../applications/iotproject/src/func.c **** }
  60              		.loc 1 99 0
  61 0022 F4E7     		b	.L1
  62              	.L6:
  63              		.align	2
  64              	.L5:
  65 0024 00000000 		.word	.LC4
  66 0028 00000000 		.word	.LANCHOR0
  67 002c 00000000 		.word	short_UID
  68              		.cfi_endproc
  69              	.LFE137:
  71              		.section	.text.measure,"ax",%progbits
  72              		.align	1
  73              		.global	measure
  74              		.syntax unified
ARM GAS  /tmp/ccPWelB9.s 			page 4


  75              		.thumb
  76              		.thumb_func
  77              		.fpu fpv4-sp-d16
  79              	measure:
  80              	.LFB146:
 100:../../applications/iotproject/src/func.c **** void printWelcome(void) {
 101:../../applications/iotproject/src/func.c ****   printf("\r\n");
 102:../../applications/iotproject/src/func.c ****   printf("*****************************************\r\n");
 103:../../applications/iotproject/src/func.c ****   printf("Application accelerometer and magnetometer \r\n");
 104:../../applications/iotproject/src/func.c ****   printf("*****************************************\r\n");
 105:../../applications/iotproject/src/func.c ****   printf("\r\n");
 106:../../applications/iotproject/src/func.c ****   HAL_GPIO_TogglePin(OCTA_BLED_GPIO_Port, OCTA_BLED_Pin);
 107:../../applications/iotproject/src/func.c ****   HAL_Delay(2000);
 108:../../applications/iotproject/src/func.c ****   HAL_GPIO_TogglePin(OCTA_BLED_GPIO_Port, OCTA_BLED_Pin);
 109:../../applications/iotproject/src/func.c **** }
 110:../../applications/iotproject/src/func.c **** void accelerometer_measurement(void) {
 111:../../applications/iotproject/src/func.c ****   double accDataRaw[3];
 112:../../applications/iotproject/src/func.c ****   osMutexWait(i2cMutexId, osWaitForever);
 113:../../applications/iotproject/src/func.c ****   LSM303AGR_ACC_readAccelerationRawData(accDataRaw);
 114:../../applications/iotproject/src/func.c ****   osMutexRelease(i2cMutexId);
 115:../../applications/iotproject/src/func.c ****   print_accelerometer(accDataRaw);
 116:../../applications/iotproject/src/func.c **** }
 117:../../applications/iotproject/src/func.c **** void magnetometer_measurement(void) {
 118:../../applications/iotproject/src/func.c ****   uint16_t magDataRaw[3];
 119:../../applications/iotproject/src/func.c ****   osMutexWait(i2cMutexId, osWaitForever);
 120:../../applications/iotproject/src/func.c ****   LSM303AGR_MAG_readMagneticRawData(magDataRaw);
 121:../../applications/iotproject/src/func.c ****   osMutexRelease(i2cMutexId);
 122:../../applications/iotproject/src/func.c ****   print_magnetometer(magDataRaw);
 123:../../applications/iotproject/src/func.c **** }
 124:../../applications/iotproject/src/func.c **** 
 125:../../applications/iotproject/src/func.c **** void print_accelerometer(double data[]) {
 126:../../applications/iotproject/src/func.c ****   printf("\r\n");
 127:../../applications/iotproject/src/func.c ****   printf("Accelerometer data: X: % 06.2f Y: % 06.2f Z: % 06.2f \r\n", data[0], data[1], data[2]);
 128:../../applications/iotproject/src/func.c ****   printf("\r\n");
 129:../../applications/iotproject/src/func.c **** }
 130:../../applications/iotproject/src/func.c **** void print_magnetometer(uint16_t data[]) {
 131:../../applications/iotproject/src/func.c ****   printf("\r\n");
 132:../../applications/iotproject/src/func.c ****   printf("Magnetometer data: X: %d Y: %d Z: %d \r\n", data[0], data[1], data[2]);
 133:../../applications/iotproject/src/func.c ****   printf("\r\n");
 134:../../applications/iotproject/src/func.c **** }
 135:../../applications/iotproject/src/func.c **** void LorawanInit(void){
 136:../../applications/iotproject/src/func.c ****   lora_init = Murata_Initialize(short_UID);
 137:../../applications/iotproject/src/func.c ****   if (lora_init)
 138:../../applications/iotproject/src/func.c ****   {
 139:../../applications/iotproject/src/func.c ****     printf("LoRaWAN module init OK\r\n");
 140:../../applications/iotproject/src/func.c ****   }else{
 141:../../applications/iotproject/src/func.c ****     printf("LoRaWAN not initialized correctly!\r\n");
 142:../../applications/iotproject/src/func.c ****   }
 143:../../applications/iotproject/src/func.c **** }
 144:../../applications/iotproject/src/func.c **** void HAL_TIM_PeriodElapsedCallback(TIM_HandleTypeDef *htim) {
 145:../../applications/iotproject/src/func.c ****   if (htim->Instance == TIM1) {
 146:../../applications/iotproject/src/func.c ****     HAL_IncTick();
 147:../../applications/iotproject/src/func.c ****   }
 148:../../applications/iotproject/src/func.c **** }
 149:../../applications/iotproject/src/func.c **** void Initialize_Sensors(void){
 150:../../applications/iotproject/src/func.c ****   LSM303AGR_setI2CInterface(&common_I2C);
 151:../../applications/iotproject/src/func.c ****   setI2CInterface_SHT31(&common_I2C);
ARM GAS  /tmp/ccPWelB9.s 			page 5


 152:../../applications/iotproject/src/func.c ****   LSM303AGR_ACC_reset();
 153:../../applications/iotproject/src/func.c ****   acc_int=0;
 154:../../applications/iotproject/src/func.c ****   LSM303AGR_MAG_reset();
 155:../../applications/iotproject/src/func.c ****   HAL_Delay(50);
 156:../../applications/iotproject/src/func.c ****   LSM303AGR_init();
 157:../../applications/iotproject/src/func.c ****   HAL_Delay(50);
 158:../../applications/iotproject/src/func.c ****   SHT31_begin();
 159:../../applications/iotproject/src/func.c **** }
 160:../../applications/iotproject/src/func.c **** void measure(){
  81              		.loc 1 160 0
  82              		.cfi_startproc
  83              		@ args = 0, pretend = 0, frame = 0
  84              		@ frame_needed = 0, uses_anonymous_args = 0
  85 0000 08B5     		push	{r3, lr}
  86              	.LCFI1:
  87              		.cfi_def_cfa_offset 8
  88              		.cfi_offset 3, -8
  89              		.cfi_offset 14, -4
 161:../../applications/iotproject/src/func.c **** GSP30_measure();
  90              		.loc 1 161 0
  91 0002 FFF7FEFF 		bl	GSP30_measure
  92              	.LVL5:
  93 0006 08BD     		pop	{r3, pc}
  94              		.cfi_endproc
  95              	.LFE146:
  97              		.section	.text.murata_process_rx_response,"ax",%progbits
  98              		.align	1
  99              		.global	murata_process_rx_response
 100              		.syntax unified
 101              		.thumb
 102              		.thumb_func
 103              		.fpu fpv4-sp-d16
 105              	murata_process_rx_response:
 106              	.LFB150:
 162:../../applications/iotproject/src/func.c **** }
 163:../../applications/iotproject/src/func.c **** void Initialize_OS(void){
 164:../../applications/iotproject/src/func.c **** 
 165:../../applications/iotproject/src/func.c ****   osMutexDef(txMutex);
 166:../../applications/iotproject/src/func.c ****   txMutexId = osMutexCreate(osMutex(txMutex));
 167:../../applications/iotproject/src/func.c **** 
 168:../../applications/iotproject/src/func.c ****   osThreadDef(murata_rx_processing, murata_process_rx_response, osPriorityNormal, 0, 512);
 169:../../applications/iotproject/src/func.c ****   murata_rx_processing_handle = osThreadCreate(osThread(murata_rx_processing), NULL);
 170:../../applications/iotproject/src/func.c ****   Murata_SetProcessingThread(murata_rx_processing_handle);
 171:../../applications/iotproject/src/func.c **** 
 172:../../applications/iotproject/src/func.c ****   osTimerDef(moduleCheckTim, check_modules);
 173:../../applications/iotproject/src/func.c ****   moduleCheckTimId = osTimerCreate(osTimer(moduleCheckTim), osTimerPeriodic, NULL);
 174:../../applications/iotproject/src/func.c ****   osTimerStart(moduleCheckTimId, MODULE_CHECK_INTERVAL * 1000);
 175:../../applications/iotproject/src/func.c **** 
 176:../../applications/iotproject/src/func.c ****   osTimerDef(GSPmeasuerTim, measure);
 177:../../applications/iotproject/src/func.c ****   GSPTimId = osTimerCreate(osTimer(GSPmeasuerTim), osTimerPeriodic, NULL);
 178:../../applications/iotproject/src/func.c ****   osTimerStart(GSPTimId, 1000);
 179:../../applications/iotproject/src/func.c **** 
 180:../../applications/iotproject/src/func.c ****   osThreadDef(defaultTask, StartDefaultTask, osPriorityLow, 0, 128);
 181:../../applications/iotproject/src/func.c ****   defaultTaskHandle = osThreadCreate(osThread(defaultTask), NULL);
 182:../../applications/iotproject/src/func.c **** }
 183:../../applications/iotproject/src/func.c **** void Error_Handler(void) {
 184:../../applications/iotproject/src/func.c **** }
ARM GAS  /tmp/ccPWelB9.s 			page 6


 185:../../applications/iotproject/src/func.c **** void HAL_UART_RxCpltCallback(UART_HandleTypeDef *huart)
 186:../../applications/iotproject/src/func.c **** {
 187:../../applications/iotproject/src/func.c ****   if (huart == &P3_UART)
 188:../../applications/iotproject/src/func.c ****   {
 189:../../applications/iotproject/src/func.c ****     Murata_rxCallback();
 190:../../applications/iotproject/src/func.c ****   }
 191:../../applications/iotproject/src/func.c **** }
 192:../../applications/iotproject/src/func.c **** 
 193:../../applications/iotproject/src/func.c **** void murata_process_rx_response(void const *argument)
 194:../../applications/iotproject/src/func.c **** {
 107              		.loc 1 194 0
 108              		.cfi_startproc
 109              		@ args = 0, pretend = 0, frame = 0
 110              		@ frame_needed = 0, uses_anonymous_args = 0
 111              	.LVL6:
 112 0000 08B5     		push	{r3, lr}
 113              	.LCFI2:
 114              		.cfi_def_cfa_offset 8
 115              		.cfi_offset 3, -8
 116              		.cfi_offset 14, -4
 117 0002 02E0     		b	.L11
 118              	.LVL7:
 119              	.L10:
 195:../../applications/iotproject/src/func.c ****   uint32_t startProcessing;
 196:../../applications/iotproject/src/func.c ****   while (1)
 197:../../applications/iotproject/src/func.c ****   {
 198:../../applications/iotproject/src/func.c ****     // Wait to be notified that the transmission is complete.  Note the first
 199:../../applications/iotproject/src/func.c ****     //parameter is pdTRUE, which has the effect of clearing the task's notification
 200:../../applications/iotproject/src/func.c ****     //value back to 0, making the notification value act like a binary (rather than
 201:../../applications/iotproject/src/func.c ****     //a counting) semaphore.
 202:../../applications/iotproject/src/func.c ****     startProcessing = ulTaskNotifyTake(pdTRUE, osWaitForever);
 203:../../applications/iotproject/src/func.c ****     if (startProcessing == 1)
 204:../../applications/iotproject/src/func.c ****     {
 205:../../applications/iotproject/src/func.c ****       printf("The transmission ended as expected");
 206:../../applications/iotproject/src/func.c ****       // The transmission ended as expected.
 207:../../applications/iotproject/src/func.c ****       Murata_process_fifo();
 208:../../applications/iotproject/src/func.c ****     }
 209:../../applications/iotproject/src/func.c ****     else
 210:../../applications/iotproject/src/func.c ****     {
 211:../../applications/iotproject/src/func.c ****     }
 212:../../applications/iotproject/src/func.c ****     osDelay(1);
 120              		.loc 1 212 0
 121 0004 0120     		movs	r0, #1
 122 0006 FFF7FEFF 		bl	osDelay
 123              	.LVL8:
 124              	.L11:
 202:../../applications/iotproject/src/func.c ****     if (startProcessing == 1)
 125              		.loc 1 202 0
 126 000a 4FF0FF31 		mov	r1, #-1
 127 000e 0120     		movs	r0, #1
 128 0010 FFF7FEFF 		bl	ulTaskNotifyTake
 129              	.LVL9:
 203:../../applications/iotproject/src/func.c ****     {
 130              		.loc 1 203 0
 131 0014 0128     		cmp	r0, #1
 132 0016 F5D1     		bne	.L10
 205:../../applications/iotproject/src/func.c ****       // The transmission ended as expected.
ARM GAS  /tmp/ccPWelB9.s 			page 7


 133              		.loc 1 205 0
 134 0018 0248     		ldr	r0, .L13
 135              	.LVL10:
 136 001a FFF7FEFF 		bl	printf
 137              	.LVL11:
 207:../../applications/iotproject/src/func.c ****     }
 138              		.loc 1 207 0
 139 001e FFF7FEFF 		bl	Murata_process_fifo
 140              	.LVL12:
 141 0022 EFE7     		b	.L10
 142              	.L14:
 143              		.align	2
 144              	.L13:
 145 0024 00000000 		.word	.LC5
 146              		.cfi_endproc
 147              	.LFE150:
 149              		.section	.text.EXTI15_10_IRQHandler,"ax",%progbits
 150              		.align	1
 151              		.global	EXTI15_10_IRQHandler
 152              		.syntax unified
 153              		.thumb
 154              		.thumb_func
 155              		.fpu fpv4-sp-d16
 157              	EXTI15_10_IRQHandler:
 158              	.LFB131:
  19:../../applications/iotproject/src/func.c ****   HAL_GPIO_EXTI_IRQHandler(GPIO_PIN_13);
 159              		.loc 1 19 0
 160              		.cfi_startproc
 161              		@ args = 0, pretend = 0, frame = 0
 162              		@ frame_needed = 0, uses_anonymous_args = 0
 163 0000 08B5     		push	{r3, lr}
 164              	.LCFI3:
 165              		.cfi_def_cfa_offset 8
 166              		.cfi_offset 3, -8
 167              		.cfi_offset 14, -4
  20:../../applications/iotproject/src/func.c **** }
 168              		.loc 1 20 0
 169 0002 4FF40050 		mov	r0, #8192
 170 0006 FFF7FEFF 		bl	HAL_GPIO_EXTI_IRQHandler
 171              	.LVL13:
 172 000a 08BD     		pop	{r3, pc}
 173              		.cfi_endproc
 174              	.LFE131:
 176              		.section	.text.EXTI9_5_IRQHandler,"ax",%progbits
 177              		.align	1
 178              		.global	EXTI9_5_IRQHandler
 179              		.syntax unified
 180              		.thumb
 181              		.thumb_func
 182              		.fpu fpv4-sp-d16
 184              	EXTI9_5_IRQHandler:
 185              	.LFB132:
  22:../../applications/iotproject/src/func.c ****   HAL_GPIO_EXTI_IRQHandler(GPIO_PIN_5);
 186              		.loc 1 22 0
 187              		.cfi_startproc
 188              		@ args = 0, pretend = 0, frame = 0
 189              		@ frame_needed = 0, uses_anonymous_args = 0
ARM GAS  /tmp/ccPWelB9.s 			page 8


 190 0000 08B5     		push	{r3, lr}
 191              	.LCFI4:
 192              		.cfi_def_cfa_offset 8
 193              		.cfi_offset 3, -8
 194              		.cfi_offset 14, -4
  23:../../applications/iotproject/src/func.c **** }
 195              		.loc 1 23 0
 196 0002 2020     		movs	r0, #32
 197 0004 FFF7FEFF 		bl	HAL_GPIO_EXTI_IRQHandler
 198              	.LVL14:
 199 0008 08BD     		pop	{r3, pc}
 200              		.cfi_endproc
 201              	.LFE132:
 203              		.section	.text.EXTI0_IRQHandler,"ax",%progbits
 204              		.align	1
 205              		.global	EXTI0_IRQHandler
 206              		.syntax unified
 207              		.thumb
 208              		.thumb_func
 209              		.fpu fpv4-sp-d16
 211              	EXTI0_IRQHandler:
 212              	.LFB133:
  25:../../applications/iotproject/src/func.c ****   HAL_GPIO_EXTI_IRQHandler(GPIO_PIN_0);
 213              		.loc 1 25 0
 214              		.cfi_startproc
 215              		@ args = 0, pretend = 0, frame = 0
 216              		@ frame_needed = 0, uses_anonymous_args = 0
 217 0000 08B5     		push	{r3, lr}
 218              	.LCFI5:
 219              		.cfi_def_cfa_offset 8
 220              		.cfi_offset 3, -8
 221              		.cfi_offset 14, -4
  26:../../applications/iotproject/src/func.c **** }
 222              		.loc 1 26 0
 223 0002 0120     		movs	r0, #1
 224 0004 FFF7FEFF 		bl	HAL_GPIO_EXTI_IRQHandler
 225              	.LVL15:
 226 0008 08BD     		pop	{r3, pc}
 227              		.cfi_endproc
 228              	.LFE133:
 230              		.section	.text.EXTI1_IRQHandler,"ax",%progbits
 231              		.align	1
 232              		.global	EXTI1_IRQHandler
 233              		.syntax unified
 234              		.thumb
 235              		.thumb_func
 236              		.fpu fpv4-sp-d16
 238              	EXTI1_IRQHandler:
 239              	.LFB134:
  28:../../applications/iotproject/src/func.c ****   HAL_GPIO_EXTI_IRQHandler(GPIO_PIN_1);
 240              		.loc 1 28 0
 241              		.cfi_startproc
 242              		@ args = 0, pretend = 0, frame = 0
 243              		@ frame_needed = 0, uses_anonymous_args = 0
 244 0000 08B5     		push	{r3, lr}
 245              	.LCFI6:
 246              		.cfi_def_cfa_offset 8
ARM GAS  /tmp/ccPWelB9.s 			page 9


 247              		.cfi_offset 3, -8
 248              		.cfi_offset 14, -4
  29:../../applications/iotproject/src/func.c **** }
 249              		.loc 1 29 0
 250 0002 0220     		movs	r0, #2
 251 0004 FFF7FEFF 		bl	HAL_GPIO_EXTI_IRQHandler
 252              	.LVL16:
 253 0008 08BD     		pop	{r3, pc}
 254              		.cfi_endproc
 255              	.LFE134:
 257              		.section	.text.HAL_GPIO_EXTI_Callback,"ax",%progbits
 258              		.align	1
 259              		.global	HAL_GPIO_EXTI_Callback
 260              		.syntax unified
 261              		.thumb
 262              		.thumb_func
 263              		.fpu fpv4-sp-d16
 265              	HAL_GPIO_EXTI_Callback:
 266              	.LFB135:
  31:../../applications/iotproject/src/func.c ****   if(GPIO_PIN_5==gpioPinNumber){
 267              		.loc 1 31 0
 268              		.cfi_startproc
 269              		@ args = 0, pretend = 0, frame = 0
 270              		@ frame_needed = 0, uses_anonymous_args = 0
 271              	.LVL17:
 272 0000 10B5     		push	{r4, lr}
 273              	.LCFI7:
 274              		.cfi_def_cfa_offset 8
 275              		.cfi_offset 4, -8
 276              		.cfi_offset 14, -4
 277 0002 0446     		mov	r4, r0
  32:../../applications/iotproject/src/func.c ****   printf("PIN5 Int \r\n");
 278              		.loc 1 32 0
 279 0004 2028     		cmp	r0, #32
 280 0006 07D0     		beq	.L29
 281              	.LVL18:
 282              	.L24:
  37:../../applications/iotproject/src/func.c ****   printf("PIN13 Int \r\n");
 283              		.loc 1 37 0
 284 0008 B4F5005F 		cmp	r4, #8192
 285 000c 10D0     		beq	.L30
 286              	.L25:
  40:../../applications/iotproject/src/func.c ****     acc_int=0;
 287              		.loc 1 40 0
 288 000e 012C     		cmp	r4, #1
 289 0010 12D0     		beq	.L31
 290              	.L26:
  45:../../applications/iotproject/src/func.c ****   printf("PIN1 Int \r\n");
 291              		.loc 1 45 0
 292 0012 022C     		cmp	r4, #2
 293 0014 17D0     		beq	.L32
 294              	.L23:
 295 0016 10BD     		pop	{r4, pc}
 296              	.LVL19:
 297              	.L29:
  33:../../applications/iotproject/src/func.c ****   if(acc_int!=2)
 298              		.loc 1 33 0
ARM GAS  /tmp/ccPWelB9.s 			page 10


 299 0018 0D48     		ldr	r0, .L33
 300              	.LVL20:
 301 001a FFF7FEFF 		bl	puts
 302              	.LVL21:
  34:../../applications/iotproject/src/func.c ****     acc_int=1;
 303              		.loc 1 34 0
 304 001e 0D4B     		ldr	r3, .L33+4
 305 0020 1B78     		ldrb	r3, [r3]	@ zero_extendqisi2
 306 0022 DBB2     		uxtb	r3, r3
 307 0024 022B     		cmp	r3, #2
 308 0026 EFD0     		beq	.L24
  35:../../applications/iotproject/src/func.c ****   }
 309              		.loc 1 35 0
 310 0028 0122     		movs	r2, #1
 311 002a 0A4B     		ldr	r3, .L33+4
 312 002c 1A70     		strb	r2, [r3]
 313 002e EBE7     		b	.L24
 314              	.L30:
  38:../../applications/iotproject/src/func.c ****   }
 315              		.loc 1 38 0
 316 0030 0948     		ldr	r0, .L33+8
 317 0032 FFF7FEFF 		bl	puts
 318              	.LVL22:
 319 0036 EAE7     		b	.L25
 320              	.L31:
  41:../../applications/iotproject/src/func.c ****   //printf("PIN0 Int \r\n");
 321              		.loc 1 41 0
 322 0038 0022     		movs	r2, #0
 323 003a 064B     		ldr	r3, .L33+4
 324 003c 1A70     		strb	r2, [r3]
  43:../../applications/iotproject/src/func.c ****   }
 325              		.loc 1 43 0
 326 003e 0748     		ldr	r0, .L33+12
 327 0040 FFF7FEFF 		bl	puts
 328              	.LVL23:
 329 0044 E5E7     		b	.L26
 330              	.L32:
  46:../../applications/iotproject/src/func.c ****   }
 331              		.loc 1 46 0
 332 0046 0648     		ldr	r0, .L33+16
 333 0048 FFF7FEFF 		bl	puts
 334              	.LVL24:
  48:../../applications/iotproject/src/func.c **** 
 335              		.loc 1 48 0
 336 004c E3E7     		b	.L23
 337              	.L34:
 338 004e 00BF     		.align	2
 339              	.L33:
 340 0050 00000000 		.word	.LC6
 341 0054 00000000 		.word	acc_int
 342 0058 0C000000 		.word	.LC7
 343 005c 18000000 		.word	.LC8
 344 0060 24000000 		.word	.LC9
 345              		.cfi_endproc
 346              	.LFE135:
 348              		.section	.text.LoRaWAN_send,"ax",%progbits
 349              		.align	1
ARM GAS  /tmp/ccPWelB9.s 			page 11


 350              		.global	LoRaWAN_send
 351              		.syntax unified
 352              		.thumb
 353              		.thumb_func
 354              		.fpu fpv4-sp-d16
 356              	LoRaWAN_send:
 357              	.LFB136:
  51:../../applications/iotproject/src/func.c ****   if (lora_init)
 358              		.loc 1 51 0
 359              		.cfi_startproc
 360              		@ args = 0, pretend = 0, frame = 16
 361              		@ frame_needed = 0, uses_anonymous_args = 0
 362              	.LVL25:
 363 0000 00B5     		push	{lr}
 364              	.LCFI8:
 365              		.cfi_def_cfa_offset 4
 366              		.cfi_offset 14, -4
 367 0002 85B0     		sub	sp, sp, #20
 368              	.LCFI9:
 369              		.cfi_def_cfa_offset 24
  52:../../applications/iotproject/src/func.c ****   {
 370              		.loc 1 52 0
 371 0004 2A4B     		ldr	r3, .L41
 372 0006 1B78     		ldrb	r3, [r3]	@ zero_extendqisi2
 373 0008 002B     		cmp	r3, #0
 374 000a 4DD0     		beq	.L36
 375              	.LVL26:
 376              	.LBB2:
  59:../../applications/iotproject/src/func.c ****     loraMessage[i++] = bytes[0];
 377              		.loc 1 59 0
 378 000c 294B     		ldr	r3, .L41+4
 379 000e 1A68     		ldr	r2, [r3]	@ float
 380 0010 0092     		str	r2, [sp]	@ float
 381              	.LVL27:
  60:../../applications/iotproject/src/func.c ****     loraMessage[i++] = bytes[1];
 382              		.loc 1 60 0
 383 0012 9DF80020 		ldrb	r2, [sp]	@ zero_extendqisi2
 384 0016 8DF80820 		strb	r2, [sp, #8]
 385              	.LVL28:
  61:../../applications/iotproject/src/func.c ****     loraMessage[i++] = bytes[2];
 386              		.loc 1 61 0
 387 001a 9DF80120 		ldrb	r2, [sp, #1]	@ zero_extendqisi2
 388 001e 8DF80920 		strb	r2, [sp, #9]
 389              	.LVL29:
  62:../../applications/iotproject/src/func.c ****     loraMessage[i++] = bytes[3];
 390              		.loc 1 62 0
 391 0022 9DF80220 		ldrb	r2, [sp, #2]	@ zero_extendqisi2
 392 0026 8DF80A20 		strb	r2, [sp, #10]
 393              	.LVL30:
  63:../../applications/iotproject/src/func.c ****     *(float*)(bytes)=SHTData[1];
 394              		.loc 1 63 0
 395 002a 9DF80320 		ldrb	r2, [sp, #3]	@ zero_extendqisi2
 396 002e 8DF80B20 		strb	r2, [sp, #11]
  64:../../applications/iotproject/src/func.c ****     loraMessage[i++] = bytes[0];
 397              		.loc 1 64 0
 398 0032 5B68     		ldr	r3, [r3, #4]	@ float
 399 0034 0093     		str	r3, [sp]	@ float
ARM GAS  /tmp/ccPWelB9.s 			page 12


 400              	.LVL31:
  65:../../applications/iotproject/src/func.c ****     loraMessage[i++] = bytes[1];
 401              		.loc 1 65 0
 402 0036 9DF80030 		ldrb	r3, [sp]	@ zero_extendqisi2
 403 003a 8DF80C30 		strb	r3, [sp, #12]
 404              	.LVL32:
  66:../../applications/iotproject/src/func.c ****     loraMessage[i++] = bytes[2];
 405              		.loc 1 66 0
 406 003e 9DF80130 		ldrb	r3, [sp, #1]	@ zero_extendqisi2
 407 0042 8DF80D30 		strb	r3, [sp, #13]
 408              	.LVL33:
  67:../../applications/iotproject/src/func.c ****     loraMessage[i++] = bytes[3];
 409              		.loc 1 67 0
 410 0046 9DF80230 		ldrb	r3, [sp, #2]	@ zero_extendqisi2
 411 004a 8DF80E30 		strb	r3, [sp, #14]
 412              	.LVL34:
  68:../../applications/iotproject/src/func.c ****     osMutexWait(txMutexId, osWaitForever);
 413              		.loc 1 68 0
 414 004e 9DF80330 		ldrb	r3, [sp, #3]	@ zero_extendqisi2
 415 0052 8DF80F30 		strb	r3, [sp, #15]
  69:../../applications/iotproject/src/func.c ****     if(!Murata_LoRaWAN_Send((uint8_t *)loraMessage, i))
 416              		.loc 1 69 0
 417 0056 4FF0FF31 		mov	r1, #-1
 418 005a 174B     		ldr	r3, .L41+8
 419 005c 1868     		ldr	r0, [r3]
 420              	.LVL35:
 421 005e FFF7FEFF 		bl	osMutexWait
 422              	.LVL36:
  70:../../applications/iotproject/src/func.c ****     {
 423              		.loc 1 70 0
 424 0062 0821     		movs	r1, #8
 425 0064 0DEB0100 		add	r0, sp, r1
 426 0068 FFF7FEFF 		bl	Murata_LoRaWAN_Send
 427              	.LVL37:
 428 006c 50B9     		cbnz	r0, .L37
  72:../../applications/iotproject/src/func.c ****       if(lora_init == 10)
 429              		.loc 1 72 0
 430 006e 104A     		ldr	r2, .L41
 431 0070 1378     		ldrb	r3, [r2]	@ zero_extendqisi2
 432 0072 0133     		adds	r3, r3, #1
 433 0074 DBB2     		uxtb	r3, r3
 434 0076 1370     		strb	r3, [r2]
  73:../../applications/iotproject/src/func.c ****         lora_init = 0;
 435              		.loc 1 73 0
 436 0078 0A2B     		cmp	r3, #10
 437 007a 06D1     		bne	.L38
  74:../../applications/iotproject/src/func.c ****     }
 438              		.loc 1 74 0
 439 007c 0022     		movs	r2, #0
 440 007e 0C4B     		ldr	r3, .L41
 441 0080 1A70     		strb	r2, [r3]
 442 0082 02E0     		b	.L38
 443              	.L37:
  78:../../applications/iotproject/src/func.c ****     }
 444              		.loc 1 78 0
 445 0084 0122     		movs	r2, #1
 446 0086 0A4B     		ldr	r3, .L41
ARM GAS  /tmp/ccPWelB9.s 			page 13


 447 0088 1A70     		strb	r2, [r3]
 448              	.L38:
  81:../../applications/iotproject/src/func.c ****     osMutexRelease(txMutexId);
 449              		.loc 1 81 0 discriminator 1
 450 008a 40F6B830 		movw	r0, #3000
 451 008e FFF7FEFF 		bl	osDelay
 452              	.LVL38:
  82:../../applications/iotproject/src/func.c ****     LoRaWAN_Counter++;
 453              		.loc 1 82 0 discriminator 1
 454 0092 094B     		ldr	r3, .L41+8
 455 0094 1868     		ldr	r0, [r3]
 456 0096 FFF7FEFF 		bl	osMutexRelease
 457              	.LVL39:
  83:../../applications/iotproject/src/func.c ****   }
 458              		.loc 1 83 0 discriminator 1
 459 009a 084A     		ldr	r2, .L41+12
 460 009c 1388     		ldrh	r3, [r2]
 461 009e 0133     		adds	r3, r3, #1
 462 00a0 1380     		strh	r3, [r2]	@ movhi
 463              	.LVL40:
 464              	.L35:
 465              	.LBE2:
  88:../../applications/iotproject/src/func.c **** 
 466              		.loc 1 88 0
 467 00a2 05B0     		add	sp, sp, #20
 468              	.LCFI10:
 469              		.cfi_remember_state
 470              		.cfi_def_cfa_offset 4
 471              		@ sp needed
 472 00a4 5DF804FB 		ldr	pc, [sp], #4
 473              	.LVL41:
 474              	.L36:
 475              	.LCFI11:
 476              		.cfi_restore_state
  86:../../applications/iotproject/src/func.c ****   }
 477              		.loc 1 86 0
 478 00a8 0548     		ldr	r0, .L41+16
 479              	.LVL42:
 480 00aa FFF7FEFF 		bl	puts
 481              	.LVL43:
  88:../../applications/iotproject/src/func.c **** 
 482              		.loc 1 88 0
 483 00ae F8E7     		b	.L35
 484              	.L42:
 485              		.align	2
 486              	.L41:
 487 00b0 00000000 		.word	.LANCHOR0
 488 00b4 00000000 		.word	SHTData
 489 00b8 00000000 		.word	txMutexId
 490 00bc 00000000 		.word	.LANCHOR1
 491 00c0 00000000 		.word	.LC10
 492              		.cfi_endproc
 493              	.LFE136:
 495              		.section	.text.printWelcome,"ax",%progbits
 496              		.align	1
 497              		.global	printWelcome
 498              		.syntax unified
ARM GAS  /tmp/ccPWelB9.s 			page 14


 499              		.thumb
 500              		.thumb_func
 501              		.fpu fpv4-sp-d16
 503              	printWelcome:
 504              	.LFB138:
 100:../../applications/iotproject/src/func.c ****   printf("\r\n");
 505              		.loc 1 100 0
 506              		.cfi_startproc
 507              		@ args = 0, pretend = 0, frame = 0
 508              		@ frame_needed = 0, uses_anonymous_args = 0
 509 0000 38B5     		push	{r3, r4, r5, lr}
 510              	.LCFI12:
 511              		.cfi_def_cfa_offset 16
 512              		.cfi_offset 3, -16
 513              		.cfi_offset 4, -12
 514              		.cfi_offset 5, -8
 515              		.cfi_offset 14, -4
 101:../../applications/iotproject/src/func.c ****   printf("*****************************************\r\n");
 516              		.loc 1 101 0
 517 0002 104C     		ldr	r4, .L45
 518 0004 2046     		mov	r0, r4
 519 0006 FFF7FEFF 		bl	puts
 520              	.LVL44:
 102:../../applications/iotproject/src/func.c ****   printf("Application accelerometer and magnetometer \r\n");
 521              		.loc 1 102 0
 522 000a 0F4D     		ldr	r5, .L45+4
 523 000c 2846     		mov	r0, r5
 524 000e FFF7FEFF 		bl	puts
 525              	.LVL45:
 103:../../applications/iotproject/src/func.c ****   printf("*****************************************\r\n");
 526              		.loc 1 103 0
 527 0012 0E48     		ldr	r0, .L45+8
 528 0014 FFF7FEFF 		bl	puts
 529              	.LVL46:
 104:../../applications/iotproject/src/func.c ****   printf("\r\n");
 530              		.loc 1 104 0
 531 0018 2846     		mov	r0, r5
 532 001a FFF7FEFF 		bl	puts
 533              	.LVL47:
 105:../../applications/iotproject/src/func.c ****   HAL_GPIO_TogglePin(OCTA_BLED_GPIO_Port, OCTA_BLED_Pin);
 534              		.loc 1 105 0
 535 001e 2046     		mov	r0, r4
 536 0020 FFF7FEFF 		bl	puts
 537              	.LVL48:
 106:../../applications/iotproject/src/func.c ****   HAL_Delay(2000);
 538              		.loc 1 106 0
 539 0024 0A4C     		ldr	r4, .L45+12
 540 0026 4FF40041 		mov	r1, #32768
 541 002a 2046     		mov	r0, r4
 542 002c FFF7FEFF 		bl	HAL_GPIO_TogglePin
 543              	.LVL49:
 107:../../applications/iotproject/src/func.c ****   HAL_GPIO_TogglePin(OCTA_BLED_GPIO_Port, OCTA_BLED_Pin);
 544              		.loc 1 107 0
 545 0030 4FF4FA60 		mov	r0, #2000
 546 0034 FFF7FEFF 		bl	HAL_Delay
 547              	.LVL50:
 108:../../applications/iotproject/src/func.c **** }
ARM GAS  /tmp/ccPWelB9.s 			page 15


 548              		.loc 1 108 0
 549 0038 4FF40041 		mov	r1, #32768
 550 003c 2046     		mov	r0, r4
 551 003e FFF7FEFF 		bl	HAL_GPIO_TogglePin
 552              	.LVL51:
 553 0042 38BD     		pop	{r3, r4, r5, pc}
 554              	.L46:
 555              		.align	2
 556              	.L45:
 557 0044 00000000 		.word	.LC11
 558 0048 04000000 		.word	.LC12
 559 004c 30000000 		.word	.LC13
 560 0050 000C0048 		.word	1207962624
 561              		.cfi_endproc
 562              	.LFE138:
 564              		.section	.text.print_accelerometer,"ax",%progbits
 565              		.align	1
 566              		.global	print_accelerometer
 567              		.syntax unified
 568              		.thumb
 569              		.thumb_func
 570              		.fpu fpv4-sp-d16
 572              	print_accelerometer:
 573              	.LFB141:
 125:../../applications/iotproject/src/func.c ****   printf("\r\n");
 574              		.loc 1 125 0
 575              		.cfi_startproc
 576              		@ args = 0, pretend = 0, frame = 0
 577              		@ frame_needed = 0, uses_anonymous_args = 0
 578              	.LVL52:
 579 0000 30B5     		push	{r4, r5, lr}
 580              	.LCFI13:
 581              		.cfi_def_cfa_offset 12
 582              		.cfi_offset 4, -12
 583              		.cfi_offset 5, -8
 584              		.cfi_offset 14, -4
 585 0002 85B0     		sub	sp, sp, #20
 586              	.LCFI14:
 587              		.cfi_def_cfa_offset 32
 588 0004 0446     		mov	r4, r0
 126:../../applications/iotproject/src/func.c ****   printf("Accelerometer data: X: % 06.2f Y: % 06.2f Z: % 06.2f \r\n", data[0], data[1], data[2]);
 589              		.loc 1 126 0
 590 0006 0B4D     		ldr	r5, .L49
 591 0008 2846     		mov	r0, r5
 592              	.LVL53:
 593 000a FFF7FEFF 		bl	puts
 594              	.LVL54:
 127:../../applications/iotproject/src/func.c ****   printf("\r\n");
 595              		.loc 1 127 0
 596 000e D4E90023 		ldrd	r2, [r4]
 597 0012 D4E90401 		ldrd	r0, [r4, #16]
 598 0016 CDE90201 		strd	r0, [sp, #8]
 599 001a D4E90201 		ldrd	r0, [r4, #8]
 600 001e CDE90001 		strd	r0, [sp]
 601 0022 0548     		ldr	r0, .L49+4
 602 0024 FFF7FEFF 		bl	printf
 603              	.LVL55:
ARM GAS  /tmp/ccPWelB9.s 			page 16


 128:../../applications/iotproject/src/func.c **** }
 604              		.loc 1 128 0
 605 0028 2846     		mov	r0, r5
 606 002a FFF7FEFF 		bl	puts
 607              	.LVL56:
 129:../../applications/iotproject/src/func.c **** void print_magnetometer(uint16_t data[]) {
 608              		.loc 1 129 0
 609 002e 05B0     		add	sp, sp, #20
 610              	.LCFI15:
 611              		.cfi_def_cfa_offset 12
 612              		@ sp needed
 613 0030 30BD     		pop	{r4, r5, pc}
 614              	.LVL57:
 615              	.L50:
 616 0032 00BF     		.align	2
 617              	.L49:
 618 0034 00000000 		.word	.LC11
 619 0038 00000000 		.word	.LC14
 620              		.cfi_endproc
 621              	.LFE141:
 623              		.section	.text.accelerometer_measurement,"ax",%progbits
 624              		.align	1
 625              		.global	accelerometer_measurement
 626              		.syntax unified
 627              		.thumb
 628              		.thumb_func
 629              		.fpu fpv4-sp-d16
 631              	accelerometer_measurement:
 632              	.LFB139:
 110:../../applications/iotproject/src/func.c ****   double accDataRaw[3];
 633              		.loc 1 110 0
 634              		.cfi_startproc
 635              		@ args = 0, pretend = 0, frame = 24
 636              		@ frame_needed = 0, uses_anonymous_args = 0
 637 0000 10B5     		push	{r4, lr}
 638              	.LCFI16:
 639              		.cfi_def_cfa_offset 8
 640              		.cfi_offset 4, -8
 641              		.cfi_offset 14, -4
 642 0002 86B0     		sub	sp, sp, #24
 643              	.LCFI17:
 644              		.cfi_def_cfa_offset 32
 112:../../applications/iotproject/src/func.c ****   LSM303AGR_ACC_readAccelerationRawData(accDataRaw);
 645              		.loc 1 112 0
 646 0004 084C     		ldr	r4, .L53
 647 0006 4FF0FF31 		mov	r1, #-1
 648 000a 2068     		ldr	r0, [r4]
 649 000c FFF7FEFF 		bl	osMutexWait
 650              	.LVL58:
 113:../../applications/iotproject/src/func.c ****   osMutexRelease(i2cMutexId);
 651              		.loc 1 113 0
 652 0010 6846     		mov	r0, sp
 653 0012 FFF7FEFF 		bl	LSM303AGR_ACC_readAccelerationRawData
 654              	.LVL59:
 114:../../applications/iotproject/src/func.c ****   print_accelerometer(accDataRaw);
 655              		.loc 1 114 0
 656 0016 2068     		ldr	r0, [r4]
ARM GAS  /tmp/ccPWelB9.s 			page 17


 657 0018 FFF7FEFF 		bl	osMutexRelease
 658              	.LVL60:
 115:../../applications/iotproject/src/func.c **** }
 659              		.loc 1 115 0
 660 001c 6846     		mov	r0, sp
 661 001e FFF7FEFF 		bl	print_accelerometer
 662              	.LVL61:
 116:../../applications/iotproject/src/func.c **** void magnetometer_measurement(void) {
 663              		.loc 1 116 0
 664 0022 06B0     		add	sp, sp, #24
 665              	.LCFI18:
 666              		.cfi_def_cfa_offset 8
 667              		@ sp needed
 668 0024 10BD     		pop	{r4, pc}
 669              	.L54:
 670 0026 00BF     		.align	2
 671              	.L53:
 672 0028 00000000 		.word	i2cMutexId
 673              		.cfi_endproc
 674              	.LFE139:
 676              		.section	.text.print_magnetometer,"ax",%progbits
 677              		.align	1
 678              		.global	print_magnetometer
 679              		.syntax unified
 680              		.thumb
 681              		.thumb_func
 682              		.fpu fpv4-sp-d16
 684              	print_magnetometer:
 685              	.LFB142:
 130:../../applications/iotproject/src/func.c ****   printf("\r\n");
 686              		.loc 1 130 0
 687              		.cfi_startproc
 688              		@ args = 0, pretend = 0, frame = 0
 689              		@ frame_needed = 0, uses_anonymous_args = 0
 690              	.LVL62:
 691 0000 38B5     		push	{r3, r4, r5, lr}
 692              	.LCFI19:
 693              		.cfi_def_cfa_offset 16
 694              		.cfi_offset 3, -16
 695              		.cfi_offset 4, -12
 696              		.cfi_offset 5, -8
 697              		.cfi_offset 14, -4
 698 0002 0446     		mov	r4, r0
 131:../../applications/iotproject/src/func.c ****   printf("Magnetometer data: X: %d Y: %d Z: %d \r\n", data[0], data[1], data[2]);
 699              		.loc 1 131 0
 700 0004 064D     		ldr	r5, .L57
 701 0006 2846     		mov	r0, r5
 702              	.LVL63:
 703 0008 FFF7FEFF 		bl	puts
 704              	.LVL64:
 132:../../applications/iotproject/src/func.c ****   printf("\r\n");
 705              		.loc 1 132 0
 706 000c A388     		ldrh	r3, [r4, #4]
 707 000e 6288     		ldrh	r2, [r4, #2]
 708 0010 2188     		ldrh	r1, [r4]
 709 0012 0448     		ldr	r0, .L57+4
 710 0014 FFF7FEFF 		bl	printf
ARM GAS  /tmp/ccPWelB9.s 			page 18


 711              	.LVL65:
 133:../../applications/iotproject/src/func.c **** }
 712              		.loc 1 133 0
 713 0018 2846     		mov	r0, r5
 714 001a FFF7FEFF 		bl	puts
 715              	.LVL66:
 716 001e 38BD     		pop	{r3, r4, r5, pc}
 717              	.LVL67:
 718              	.L58:
 719              		.align	2
 720              	.L57:
 721 0020 00000000 		.word	.LC11
 722 0024 00000000 		.word	.LC15
 723              		.cfi_endproc
 724              	.LFE142:
 726              		.section	.text.magnetometer_measurement,"ax",%progbits
 727              		.align	1
 728              		.global	magnetometer_measurement
 729              		.syntax unified
 730              		.thumb
 731              		.thumb_func
 732              		.fpu fpv4-sp-d16
 734              	magnetometer_measurement:
 735              	.LFB140:
 117:../../applications/iotproject/src/func.c ****   uint16_t magDataRaw[3];
 736              		.loc 1 117 0
 737              		.cfi_startproc
 738              		@ args = 0, pretend = 0, frame = 8
 739              		@ frame_needed = 0, uses_anonymous_args = 0
 740 0000 10B5     		push	{r4, lr}
 741              	.LCFI20:
 742              		.cfi_def_cfa_offset 8
 743              		.cfi_offset 4, -8
 744              		.cfi_offset 14, -4
 745 0002 82B0     		sub	sp, sp, #8
 746              	.LCFI21:
 747              		.cfi_def_cfa_offset 16
 119:../../applications/iotproject/src/func.c ****   LSM303AGR_MAG_readMagneticRawData(magDataRaw);
 748              		.loc 1 119 0
 749 0004 084C     		ldr	r4, .L61
 750 0006 4FF0FF31 		mov	r1, #-1
 751 000a 2068     		ldr	r0, [r4]
 752 000c FFF7FEFF 		bl	osMutexWait
 753              	.LVL68:
 120:../../applications/iotproject/src/func.c ****   osMutexRelease(i2cMutexId);
 754              		.loc 1 120 0
 755 0010 6846     		mov	r0, sp
 756 0012 FFF7FEFF 		bl	LSM303AGR_MAG_readMagneticRawData
 757              	.LVL69:
 121:../../applications/iotproject/src/func.c ****   print_magnetometer(magDataRaw);
 758              		.loc 1 121 0
 759 0016 2068     		ldr	r0, [r4]
 760 0018 FFF7FEFF 		bl	osMutexRelease
 761              	.LVL70:
 122:../../applications/iotproject/src/func.c **** }
 762              		.loc 1 122 0
 763 001c 6846     		mov	r0, sp
ARM GAS  /tmp/ccPWelB9.s 			page 19


 764 001e FFF7FEFF 		bl	print_magnetometer
 765              	.LVL71:
 123:../../applications/iotproject/src/func.c **** 
 766              		.loc 1 123 0
 767 0022 02B0     		add	sp, sp, #8
 768              	.LCFI22:
 769              		.cfi_def_cfa_offset 8
 770              		@ sp needed
 771 0024 10BD     		pop	{r4, pc}
 772              	.L62:
 773 0026 00BF     		.align	2
 774              	.L61:
 775 0028 00000000 		.word	i2cMutexId
 776              		.cfi_endproc
 777              	.LFE140:
 779              		.section	.text.LorawanInit,"ax",%progbits
 780              		.align	1
 781              		.global	LorawanInit
 782              		.syntax unified
 783              		.thumb
 784              		.thumb_func
 785              		.fpu fpv4-sp-d16
 787              	LorawanInit:
 788              	.LFB143:
 135:../../applications/iotproject/src/func.c ****   lora_init = Murata_Initialize(short_UID);
 789              		.loc 1 135 0
 790              		.cfi_startproc
 791              		@ args = 0, pretend = 0, frame = 0
 792              		@ frame_needed = 0, uses_anonymous_args = 0
 793 0000 08B5     		push	{r3, lr}
 794              	.LCFI23:
 795              		.cfi_def_cfa_offset 8
 796              		.cfi_offset 3, -8
 797              		.cfi_offset 14, -4
 136:../../applications/iotproject/src/func.c ****   if (lora_init)
 798              		.loc 1 136 0
 799 0002 084B     		ldr	r3, .L68
 800 0004 D3E90001 		ldrd	r0, [r3]
 801 0008 FFF7FEFF 		bl	Murata_Initialize
 802              	.LVL72:
 803 000c 064B     		ldr	r3, .L68+4
 804 000e 1870     		strb	r0, [r3]
 137:../../applications/iotproject/src/func.c ****   {
 805              		.loc 1 137 0
 806 0010 18B9     		cbnz	r0, .L67
 141:../../applications/iotproject/src/func.c ****   }
 807              		.loc 1 141 0
 808 0012 0648     		ldr	r0, .L68+8
 809 0014 FFF7FEFF 		bl	puts
 810              	.LVL73:
 811 0018 08BD     		pop	{r3, pc}
 812              	.L67:
 139:../../applications/iotproject/src/func.c ****   }else{
 813              		.loc 1 139 0
 814 001a 0548     		ldr	r0, .L68+12
 815 001c FFF7FEFF 		bl	puts
 816              	.LVL74:
ARM GAS  /tmp/ccPWelB9.s 			page 20


 817 0020 08BD     		pop	{r3, pc}
 818              	.L69:
 819 0022 00BF     		.align	2
 820              	.L68:
 821 0024 00000000 		.word	short_UID
 822 0028 00000000 		.word	.LANCHOR0
 823 002c 18000000 		.word	.LC17
 824 0030 00000000 		.word	.LC16
 825              		.cfi_endproc
 826              	.LFE143:
 828              		.section	.text.HAL_TIM_PeriodElapsedCallback,"ax",%progbits
 829              		.align	1
 830              		.global	HAL_TIM_PeriodElapsedCallback
 831              		.syntax unified
 832              		.thumb
 833              		.thumb_func
 834              		.fpu fpv4-sp-d16
 836              	HAL_TIM_PeriodElapsedCallback:
 837              	.LFB144:
 144:../../applications/iotproject/src/func.c ****   if (htim->Instance == TIM1) {
 838              		.loc 1 144 0
 839              		.cfi_startproc
 840              		@ args = 0, pretend = 0, frame = 0
 841              		@ frame_needed = 0, uses_anonymous_args = 0
 842              	.LVL75:
 843 0000 08B5     		push	{r3, lr}
 844              	.LCFI24:
 845              		.cfi_def_cfa_offset 8
 846              		.cfi_offset 3, -8
 847              		.cfi_offset 14, -4
 145:../../applications/iotproject/src/func.c ****     HAL_IncTick();
 848              		.loc 1 145 0
 849 0002 0268     		ldr	r2, [r0]
 850 0004 034B     		ldr	r3, .L74
 851 0006 9A42     		cmp	r2, r3
 852 0008 00D0     		beq	.L73
 853              	.LVL76:
 854              	.L70:
 855 000a 08BD     		pop	{r3, pc}
 856              	.LVL77:
 857              	.L73:
 146:../../applications/iotproject/src/func.c ****   }
 858              		.loc 1 146 0
 859 000c FFF7FEFF 		bl	HAL_IncTick
 860              	.LVL78:
 148:../../applications/iotproject/src/func.c **** void Initialize_Sensors(void){
 861              		.loc 1 148 0
 862 0010 FBE7     		b	.L70
 863              	.L75:
 864 0012 00BF     		.align	2
 865              	.L74:
 866 0014 002C0140 		.word	1073818624
 867              		.cfi_endproc
 868              	.LFE144:
 870              		.section	.text.Initialize_Sensors,"ax",%progbits
 871              		.align	1
 872              		.global	Initialize_Sensors
ARM GAS  /tmp/ccPWelB9.s 			page 21


 873              		.syntax unified
 874              		.thumb
 875              		.thumb_func
 876              		.fpu fpv4-sp-d16
 878              	Initialize_Sensors:
 879              	.LFB145:
 149:../../applications/iotproject/src/func.c ****   LSM303AGR_setI2CInterface(&common_I2C);
 880              		.loc 1 149 0
 881              		.cfi_startproc
 882              		@ args = 0, pretend = 0, frame = 0
 883              		@ frame_needed = 0, uses_anonymous_args = 0
 884 0000 10B5     		push	{r4, lr}
 885              	.LCFI25:
 886              		.cfi_def_cfa_offset 8
 887              		.cfi_offset 4, -8
 888              		.cfi_offset 14, -4
 150:../../applications/iotproject/src/func.c ****   setI2CInterface_SHT31(&common_I2C);
 889              		.loc 1 150 0
 890 0002 0C4C     		ldr	r4, .L78
 891 0004 2046     		mov	r0, r4
 892 0006 FFF7FEFF 		bl	LSM303AGR_setI2CInterface
 893              	.LVL79:
 151:../../applications/iotproject/src/func.c ****   LSM303AGR_ACC_reset();
 894              		.loc 1 151 0
 895 000a 2046     		mov	r0, r4
 896 000c FFF7FEFF 		bl	setI2CInterface_SHT31
 897              	.LVL80:
 152:../../applications/iotproject/src/func.c ****   acc_int=0;
 898              		.loc 1 152 0
 899 0010 FFF7FEFF 		bl	LSM303AGR_ACC_reset
 900              	.LVL81:
 153:../../applications/iotproject/src/func.c ****   LSM303AGR_MAG_reset();
 901              		.loc 1 153 0
 902 0014 0022     		movs	r2, #0
 903 0016 084B     		ldr	r3, .L78+4
 904 0018 1A70     		strb	r2, [r3]
 154:../../applications/iotproject/src/func.c ****   HAL_Delay(50);
 905              		.loc 1 154 0
 906 001a FFF7FEFF 		bl	LSM303AGR_MAG_reset
 907              	.LVL82:
 155:../../applications/iotproject/src/func.c ****   LSM303AGR_init();
 908              		.loc 1 155 0
 909 001e 3220     		movs	r0, #50
 910 0020 FFF7FEFF 		bl	HAL_Delay
 911              	.LVL83:
 156:../../applications/iotproject/src/func.c ****   HAL_Delay(50);
 912              		.loc 1 156 0
 913 0024 FFF7FEFF 		bl	LSM303AGR_init
 914              	.LVL84:
 157:../../applications/iotproject/src/func.c ****   SHT31_begin();
 915              		.loc 1 157 0
 916 0028 3220     		movs	r0, #50
 917 002a FFF7FEFF 		bl	HAL_Delay
 918              	.LVL85:
 158:../../applications/iotproject/src/func.c **** }
 919              		.loc 1 158 0
 920 002e FFF7FEFF 		bl	SHT31_begin
ARM GAS  /tmp/ccPWelB9.s 			page 22


 921              	.LVL86:
 922 0032 10BD     		pop	{r4, pc}
 923              	.L79:
 924              		.align	2
 925              	.L78:
 926 0034 00000000 		.word	common_I2C
 927 0038 00000000 		.word	acc_int
 928              		.cfi_endproc
 929              	.LFE145:
 931              		.section	.text.Initialize_OS,"ax",%progbits
 932              		.align	1
 933              		.global	Initialize_OS
 934              		.syntax unified
 935              		.thumb
 936              		.thumb_func
 937              		.fpu fpv4-sp-d16
 939              	Initialize_OS:
 940              	.LFB147:
 163:../../applications/iotproject/src/func.c **** 
 941              		.loc 1 163 0
 942              		.cfi_startproc
 943              		@ args = 0, pretend = 0, frame = 56
 944              		@ frame_needed = 0, uses_anonymous_args = 0
 945 0000 F0B5     		push	{r4, r5, r6, r7, lr}
 946              	.LCFI26:
 947              		.cfi_def_cfa_offset 20
 948              		.cfi_offset 4, -20
 949              		.cfi_offset 5, -16
 950              		.cfi_offset 6, -12
 951              		.cfi_offset 7, -8
 952              		.cfi_offset 14, -4
 953 0002 8FB0     		sub	sp, sp, #60
 954              	.LCFI27:
 955              		.cfi_def_cfa_offset 80
 165:../../applications/iotproject/src/func.c ****   txMutexId = osMutexCreate(osMutex(txMutex));
 956              		.loc 1 165 0
 957 0004 0027     		movs	r7, #0
 958 0006 0EA8     		add	r0, sp, #56
 959 0008 40F8047D 		str	r7, [r0, #-4]!
 166:../../applications/iotproject/src/func.c **** 
 960              		.loc 1 166 0
 961 000c FFF7FEFF 		bl	osMutexCreate
 962              	.LVL87:
 963 0010 1C4B     		ldr	r3, .L82
 964 0012 1860     		str	r0, [r3]
 168:../../applications/iotproject/src/func.c ****   murata_rx_processing_handle = osThreadCreate(osThread(murata_rx_processing), NULL);
 965              		.loc 1 168 0
 966 0014 1C4C     		ldr	r4, .L82+4
 967 0016 08AD     		add	r5, sp, #32
 968 0018 2646     		mov	r6, r4
 969 001a 0FCE     		ldmia	r6!, {r0, r1, r2, r3}
 970 001c 0FC5     		stmia	r5!, {r0, r1, r2, r3}
 971 001e 3368     		ldr	r3, [r6]
 972 0020 2B60     		str	r3, [r5]
 169:../../applications/iotproject/src/func.c ****   Murata_SetProcessingThread(murata_rx_processing_handle);
 973              		.loc 1 169 0
 974 0022 3946     		mov	r1, r7
ARM GAS  /tmp/ccPWelB9.s 			page 23


 975 0024 08A8     		add	r0, sp, #32
 976 0026 FFF7FEFF 		bl	osThreadCreate
 977              	.LVL88:
 978 002a 184B     		ldr	r3, .L82+8
 979 002c 1860     		str	r0, [r3]
 170:../../applications/iotproject/src/func.c **** 
 980              		.loc 1 170 0
 981 002e FFF7FEFF 		bl	Murata_SetProcessingThread
 982              	.LVL89:
 172:../../applications/iotproject/src/func.c ****   moduleCheckTimId = osTimerCreate(osTimer(moduleCheckTim), osTimerPeriodic, NULL);
 983              		.loc 1 172 0
 984 0032 0EA8     		add	r0, sp, #56
 985 0034 164B     		ldr	r3, .L82+12
 986 0036 40F81C3D 		str	r3, [r0, #-28]!
 173:../../applications/iotproject/src/func.c ****   osTimerStart(moduleCheckTimId, MODULE_CHECK_INTERVAL * 1000);
 987              		.loc 1 173 0
 988 003a 3A46     		mov	r2, r7
 989 003c 0121     		movs	r1, #1
 990 003e FFF7FEFF 		bl	osTimerCreate
 991              	.LVL90:
 992 0042 144B     		ldr	r3, .L82+16
 993 0044 1860     		str	r0, [r3]
 174:../../applications/iotproject/src/func.c **** 
 994              		.loc 1 174 0
 995 0046 1449     		ldr	r1, .L82+20
 996 0048 FFF7FEFF 		bl	osTimerStart
 997              	.LVL91:
 176:../../applications/iotproject/src/func.c ****   GSPTimId = osTimerCreate(osTimer(GSPmeasuerTim), osTimerPeriodic, NULL);
 998              		.loc 1 176 0
 999 004c 0EA8     		add	r0, sp, #56
 1000 004e 134B     		ldr	r3, .L82+24
 1001 0050 40F8203D 		str	r3, [r0, #-32]!
 177:../../applications/iotproject/src/func.c ****   osTimerStart(GSPTimId, 1000);
 1002              		.loc 1 177 0
 1003 0054 3A46     		mov	r2, r7
 1004 0056 0121     		movs	r1, #1
 1005 0058 FFF7FEFF 		bl	osTimerCreate
 1006              	.LVL92:
 1007 005c 104B     		ldr	r3, .L82+28
 1008 005e 1860     		str	r0, [r3]
 178:../../applications/iotproject/src/func.c **** 
 1009              		.loc 1 178 0
 1010 0060 4FF47A71 		mov	r1, #1000
 1011 0064 FFF7FEFF 		bl	osTimerStart
 1012              	.LVL93:
 180:../../applications/iotproject/src/func.c ****   defaultTaskHandle = osThreadCreate(osThread(defaultTask), NULL);
 1013              		.loc 1 180 0
 1014 0068 01AD     		add	r5, sp, #4
 1015 006a 1434     		adds	r4, r4, #20
 1016 006c 0FCC     		ldmia	r4!, {r0, r1, r2, r3}
 1017 006e 0FC5     		stmia	r5!, {r0, r1, r2, r3}
 1018 0070 2368     		ldr	r3, [r4]
 1019 0072 2B60     		str	r3, [r5]
 181:../../applications/iotproject/src/func.c **** }
 1020              		.loc 1 181 0
 1021 0074 3946     		mov	r1, r7
 1022 0076 01A8     		add	r0, sp, #4
ARM GAS  /tmp/ccPWelB9.s 			page 24


 1023 0078 FFF7FEFF 		bl	osThreadCreate
 1024              	.LVL94:
 1025 007c 094B     		ldr	r3, .L82+32
 1026 007e 1860     		str	r0, [r3]
 182:../../applications/iotproject/src/func.c **** void Error_Handler(void) {
 1027              		.loc 1 182 0
 1028 0080 0FB0     		add	sp, sp, #60
 1029              	.LCFI28:
 1030              		.cfi_def_cfa_offset 20
 1031              		@ sp needed
 1032 0082 F0BD     		pop	{r4, r5, r6, r7, pc}
 1033              	.L83:
 1034              		.align	2
 1035              	.L82:
 1036 0084 00000000 		.word	txMutexId
 1037 0088 00000000 		.word	.LANCHOR2
 1038 008c 00000000 		.word	murata_rx_processing_handle
 1039 0090 00000000 		.word	check_modules
 1040 0094 00000000 		.word	moduleCheckTimId
 1041 0098 20A10700 		.word	500000
 1042 009c 00000000 		.word	measure
 1043 00a0 00000000 		.word	GSPTimId
 1044 00a4 00000000 		.word	defaultTaskHandle
 1045              		.cfi_endproc
 1046              	.LFE147:
 1048              		.section	.text.Error_Handler,"ax",%progbits
 1049              		.align	1
 1050              		.global	Error_Handler
 1051              		.syntax unified
 1052              		.thumb
 1053              		.thumb_func
 1054              		.fpu fpv4-sp-d16
 1056              	Error_Handler:
 1057              	.LFB148:
 183:../../applications/iotproject/src/func.c **** }
 1058              		.loc 1 183 0
 1059              		.cfi_startproc
 1060              		@ args = 0, pretend = 0, frame = 0
 1061              		@ frame_needed = 0, uses_anonymous_args = 0
 1062              		@ link register save eliminated.
 1063 0000 7047     		bx	lr
 1064              		.cfi_endproc
 1065              	.LFE148:
 1067              		.section	.text.HAL_UART_RxCpltCallback,"ax",%progbits
 1068              		.align	1
 1069              		.global	HAL_UART_RxCpltCallback
 1070              		.syntax unified
 1071              		.thumb
 1072              		.thumb_func
 1073              		.fpu fpv4-sp-d16
 1075              	HAL_UART_RxCpltCallback:
 1076              	.LFB149:
 186:../../applications/iotproject/src/func.c ****   if (huart == &P3_UART)
 1077              		.loc 1 186 0
 1078              		.cfi_startproc
 1079              		@ args = 0, pretend = 0, frame = 0
 1080              		@ frame_needed = 0, uses_anonymous_args = 0
ARM GAS  /tmp/ccPWelB9.s 			page 25


 1081              	.LVL95:
 186:../../applications/iotproject/src/func.c ****   if (huart == &P3_UART)
 1082              		.loc 1 186 0
 1083 0000 08B5     		push	{r3, lr}
 1084              	.LCFI29:
 1085              		.cfi_def_cfa_offset 8
 1086              		.cfi_offset 3, -8
 1087              		.cfi_offset 14, -4
 187:../../applications/iotproject/src/func.c ****   {
 1088              		.loc 1 187 0
 1089 0002 034B     		ldr	r3, .L89
 1090 0004 8342     		cmp	r3, r0
 1091 0006 00D0     		beq	.L88
 1092              	.LVL96:
 1093              	.L85:
 1094 0008 08BD     		pop	{r3, pc}
 1095              	.LVL97:
 1096              	.L88:
 189:../../applications/iotproject/src/func.c ****   }
 1097              		.loc 1 189 0
 1098 000a FFF7FEFF 		bl	Murata_rxCallback
 1099              	.LVL98:
 191:../../applications/iotproject/src/func.c **** 
 1100              		.loc 1 191 0
 1101 000e FBE7     		b	.L85
 1102              	.L90:
 1103              		.align	2
 1104              	.L89:
 1105 0010 00000000 		.word	P3_UART
 1106              		.cfi_endproc
 1107              	.LFE149:
 1109              		.section	.text.vApplicationIdleHook,"ax",%progbits
 1110              		.align	1
 1111              		.global	vApplicationIdleHook
 1112              		.syntax unified
 1113              		.thumb
 1114              		.thumb_func
 1115              		.fpu fpv4-sp-d16
 1117              	vApplicationIdleHook:
 1118              	.LFB151:
 213:../../applications/iotproject/src/func.c ****   }
 214:../../applications/iotproject/src/func.c ****   osThreadTerminate(NULL);
 215:../../applications/iotproject/src/func.c **** }
 216:../../applications/iotproject/src/func.c **** void vApplicationIdleHook(){
 1119              		.loc 1 216 0
 1120              		.cfi_startproc
 1121              		@ args = 0, pretend = 0, frame = 0
 1122              		@ frame_needed = 0, uses_anonymous_args = 0
 1123              		@ link register save eliminated.
 1124 0000 7047     		bx	lr
 1125              		.cfi_endproc
 1126              	.LFE151:
 1128              		.global	__aeabi_f2d
 1129              		.section	.text.print_temp_hum,"ax",%progbits
 1130              		.align	1
 1131              		.global	print_temp_hum
 1132              		.syntax unified
ARM GAS  /tmp/ccPWelB9.s 			page 26


 1133              		.thumb
 1134              		.thumb_func
 1135              		.fpu fpv4-sp-d16
 1137              	print_temp_hum:
 1138              	.LFB152:
 217:../../applications/iotproject/src/func.c ****   #if LOW_POWER
 218:../../applications/iotproject/src/func.c ****     HAL_PWR_EnterSLEEPMode(PWR_MAINREGULATOR_ON, PWR_SLEEPENTRY_WFE);
 219:../../applications/iotproject/src/func.c ****   #endif
 220:../../applications/iotproject/src/func.c **** }
 221:../../applications/iotproject/src/func.c **** void print_temp_hum(void){
 1139              		.loc 1 221 0
 1140              		.cfi_startproc
 1141              		@ args = 0, pretend = 0, frame = 0
 1142              		@ frame_needed = 0, uses_anonymous_args = 0
 1143              		.loc 1 221 0
 1144 0000 38B5     		push	{r3, r4, r5, lr}
 1145              	.LCFI30:
 1146              		.cfi_def_cfa_offset 16
 1147              		.cfi_offset 3, -16
 1148              		.cfi_offset 4, -12
 1149              		.cfi_offset 5, -8
 1150              		.cfi_offset 14, -4
 222:../../applications/iotproject/src/func.c ****   printf("\r\n");
 1151              		.loc 1 222 0
 1152 0002 0C4C     		ldr	r4, .L94
 1153 0004 2046     		mov	r0, r4
 1154 0006 FFF7FEFF 		bl	puts
 1155              	.LVL99:
 223:../../applications/iotproject/src/func.c ****   printf("Temperature: %.2f deg of C\r\n", SHTData[0]);
 1156              		.loc 1 223 0
 1157 000a 0B4D     		ldr	r5, .L94+4
 1158 000c 2868     		ldr	r0, [r5]	@ float
 1159 000e FFF7FEFF 		bl	__aeabi_f2d
 1160              	.LVL100:
 1161 0012 0246     		mov	r2, r0
 1162 0014 0B46     		mov	r3, r1
 1163 0016 0948     		ldr	r0, .L94+8
 1164 0018 FFF7FEFF 		bl	printf
 1165              	.LVL101:
 224:../../applications/iotproject/src/func.c ****   printf("Humidity: %.2f relative \r\n", SHTData[1]);
 1166              		.loc 1 224 0
 1167 001c 6868     		ldr	r0, [r5, #4]	@ float
 1168 001e FFF7FEFF 		bl	__aeabi_f2d
 1169              	.LVL102:
 1170 0022 0246     		mov	r2, r0
 1171 0024 0B46     		mov	r3, r1
 1172 0026 0648     		ldr	r0, .L94+12
 1173 0028 FFF7FEFF 		bl	printf
 1174              	.LVL103:
 225:../../applications/iotproject/src/func.c ****   printf("\r\n");
 1175              		.loc 1 225 0
 1176 002c 2046     		mov	r0, r4
 1177 002e FFF7FEFF 		bl	puts
 1178              	.LVL104:
 1179 0032 38BD     		pop	{r3, r4, r5, pc}
 1180              	.L95:
 1181              		.align	2
ARM GAS  /tmp/ccPWelB9.s 			page 27


 1182              	.L94:
 1183 0034 00000000 		.word	.LC11
 1184 0038 00000000 		.word	SHTData
 1185 003c 00000000 		.word	.LC20
 1186 0040 20000000 		.word	.LC21
 1187              		.cfi_endproc
 1188              	.LFE152:
 1190              		.section	.text.temp_hum_measurement,"ax",%progbits
 1191              		.align	1
 1192              		.global	temp_hum_measurement
 1193              		.syntax unified
 1194              		.thumb
 1195              		.thumb_func
 1196              		.fpu fpv4-sp-d16
 1198              	temp_hum_measurement:
 1199              	.LFB153:
 226:../../applications/iotproject/src/func.c **** }
 227:../../applications/iotproject/src/func.c **** 
 228:../../applications/iotproject/src/func.c **** void temp_hum_measurement(void){
 1200              		.loc 1 228 0
 1201              		.cfi_startproc
 1202              		@ args = 0, pretend = 0, frame = 0
 1203              		@ frame_needed = 0, uses_anonymous_args = 0
 1204 0000 08B5     		push	{r3, lr}
 1205              	.LCFI31:
 1206              		.cfi_def_cfa_offset 8
 1207              		.cfi_offset 3, -8
 1208              		.cfi_offset 14, -4
 229:../../applications/iotproject/src/func.c ****   SHT31_get_temp_hum(SHTData);
 1209              		.loc 1 229 0
 1210 0002 0348     		ldr	r0, .L98
 1211 0004 FFF7FEFF 		bl	SHT31_get_temp_hum
 1212              	.LVL105:
 230:../../applications/iotproject/src/func.c ****   print_temp_hum();
 1213              		.loc 1 230 0
 1214 0008 FFF7FEFF 		bl	print_temp_hum
 1215              	.LVL106:
 1216 000c 08BD     		pop	{r3, pc}
 1217              	.L99:
 1218 000e 00BF     		.align	2
 1219              	.L98:
 1220 0010 00000000 		.word	SHTData
 1221              		.cfi_endproc
 1222              	.LFE153:
 1224              		.section	.text.StartDefaultTask,"ax",%progbits
 1225              		.align	1
 1226              		.global	StartDefaultTask
 1227              		.syntax unified
 1228              		.thumb
 1229              		.thumb_func
 1230              		.fpu fpv4-sp-d16
 1232              	StartDefaultTask:
 1233              	.LFB130:
   7:../../applications/iotproject/src/func.c ****   printf("Start the device!\n\r");
 1234              		.loc 1 7 0
 1235              		.cfi_startproc
 1236              		@ Volatile: function does not return.
ARM GAS  /tmp/ccPWelB9.s 			page 28


 1237              		@ args = 0, pretend = 0, frame = 0
 1238              		@ frame_needed = 0, uses_anonymous_args = 0
 1239              	.LVL107:
 1240 0000 08B5     		push	{r3, lr}
 1241              	.LCFI32:
 1242              		.cfi_def_cfa_offset 8
 1243              		.cfi_offset 3, -8
 1244              		.cfi_offset 14, -4
   8:../../applications/iotproject/src/func.c ****   while (1) {
 1245              		.loc 1 8 0
 1246 0002 0C48     		ldr	r0, .L104
 1247              	.LVL108:
 1248 0004 FFF7FEFF 		bl	printf
 1249              	.LVL109:
 1250 0008 05E0     		b	.L102
 1251              	.L101:
  15:../../applications/iotproject/src/func.c ****     osDelay(1);
 1252              		.loc 1 15 0
 1253 000a 0020     		movs	r0, #0
 1254 000c FFF7FEFF 		bl	IWDG_feed
 1255              	.LVL110:
  16:../../applications/iotproject/src/func.c ****   }
 1256              		.loc 1 16 0
 1257 0010 0120     		movs	r0, #1
 1258 0012 FFF7FEFF 		bl	osDelay
 1259              	.LVL111:
 1260              	.L102:
  10:../../applications/iotproject/src/func.c ****       acc_int=2;
 1261              		.loc 1 10 0
 1262 0016 084B     		ldr	r3, .L104+4
 1263 0018 1B78     		ldrb	r3, [r3]	@ zero_extendqisi2
 1264 001a DBB2     		uxtb	r3, r3
 1265 001c 012B     		cmp	r3, #1
 1266 001e F4D1     		bne	.L101
 1267              	.LBB3:
  11:../../applications/iotproject/src/func.c ****       temp_hum_measurement();
 1268              		.loc 1 11 0
 1269 0020 0222     		movs	r2, #2
 1270 0022 054B     		ldr	r3, .L104+4
 1271 0024 1A70     		strb	r2, [r3]
  12:../../applications/iotproject/src/func.c ****       LoRaWAN_send(NULL);
 1272              		.loc 1 12 0
 1273 0026 FFF7FEFF 		bl	temp_hum_measurement
 1274              	.LVL112:
  13:../../applications/iotproject/src/func.c ****     }
 1275              		.loc 1 13 0
 1276 002a 0020     		movs	r0, #0
 1277 002c FFF7FEFF 		bl	LoRaWAN_send
 1278              	.LVL113:
 1279 0030 EBE7     		b	.L101
 1280              	.L105:
 1281 0032 00BF     		.align	2
 1282              	.L104:
 1283 0034 00000000 		.word	.LC22
 1284 0038 00000000 		.word	acc_int
 1285              	.LBE3:
 1286              		.cfi_endproc
ARM GAS  /tmp/ccPWelB9.s 			page 29


 1287              	.LFE130:
 1289              		.comm	short_UID,8,8
 1290              		.global	lora_init
 1291              		.global	LoRaWAN_Counter
 1292              		.comm	SHTData,8,4
 1293              		.comm	acc_int,1,1
 1294              		.comm	murata_rx_process_mutex_id,4,4
 1295              		.comm	txMutexId,4,4
 1296              		.comm	i2cMutexId,4,4
 1297              		.comm	GSPTimId,4,4
 1298              		.comm	moduleCheckTimId,4,4
 1299              		.comm	loraWANTimId,4,4
 1300              		.comm	murata_rx_processing_handle,4,4
 1301              		.comm	GSPmeasuerTaskHandle,4,4
 1302              		.comm	defaultTaskHandle,4,4
 1303              		.comm	temp,4,4
 1304              		.comm	humidity,4,4
 1305              		.comm	_i2caddr,1,1
 1306              		.comm	SHThi2cLib,4,4
 1307              		.comm	magRawData,6,4
 1308              		.comm	magRegisterData,6,4
 1309              		.comm	accRawData,6,4
 1310              		.comm	accRegisterData,6,4
 1311              		.comm	LSM303AGR_hi2c,4,4
 1312              		.comm	LSM303AGR_setting,1,1
 1313              		.comm	threadToNotify,4,4
 1314              		.comm	murata_reset_pin,4,4
 1315              		.comm	murata_wakeup_pin,4,4
 1316              		.comm	P3_header,44,4
 1317              		.comm	P2_header,44,4
 1318              		.comm	P1_header,44,4
 1319              		.comm	FLASH_SPI,100,4
 1320              		.comm	P3_SPI,100,4
 1321              		.comm	P2_SPI,100,4
 1322              		.comm	P1_SPI,100,4
 1323              		.comm	P3_I2C,76,4
 1324              		.comm	P2_I2C,76,4
 1325              		.comm	P1_I2C,76,4
 1326              		.comm	common_I2C,76,4
 1327              		.comm	P3_UART,120,4
 1328              		.comm	P2_UART,120,4
 1329              		.comm	P1_UART,120,4
 1330              		.comm	BLE_UART,120,4
 1331              		.comm	USB_UART,120,4
 1332              		.comm	hiwdg,16,4
 1333              		.comm	P3_DIO6,8,4
 1334              		.comm	P3_DIO5,8,4
 1335              		.comm	P3_DIO4,8,4
 1336              		.comm	P3_DIO3,8,4
 1337              		.comm	P3_DIO2,8,4
 1338              		.comm	P3_DIO1,8,4
 1339              		.comm	P2_DIO6,8,4
 1340              		.comm	P2_DIO5,8,4
 1341              		.comm	P2_DIO4,8,4
 1342              		.comm	P2_DIO3,8,4
 1343              		.comm	P2_DIO2,8,4
 1344              		.comm	P2_DIO1,8,4
ARM GAS  /tmp/ccPWelB9.s 			page 30


 1345              		.comm	P1_DIO6,8,4
 1346              		.comm	P1_DIO5,8,4
 1347              		.comm	P1_DIO4,8,4
 1348              		.comm	P1_DIO3,8,4
 1349              		.comm	P1_DIO2,8,4
 1350              		.comm	P1_DIO1,8,4
 1351              		.section	.rodata
 1352              		.align	2
 1353              		.set	.LANCHOR2,. + 0
 1354              	.LC18:
 1355 0000 0C000000 		.word	.LC0
 1356 0004 00000000 		.word	murata_process_rx_response
 1357 0008 0000     		.short	0
 1358 000a 0000     		.space	2
 1359 000c 00000000 		.word	0
 1360 0010 00020000 		.word	512
 1361              	.LC19:
 1362 0014 00000000 		.word	.LC2
 1363 0018 00000000 		.word	StartDefaultTask
 1364 001c FEFF     		.short	-2
 1365 001e 0000     		.space	2
 1366 0020 00000000 		.word	0
 1367 0024 80000000 		.word	128
 1368              		.section	.bss.LoRaWAN_Counter,"aw",%nobits
 1369              		.align	1
 1370              		.set	.LANCHOR1,. + 0
 1373              	LoRaWAN_Counter:
 1374 0000 0000     		.space	2
 1375              		.section	.bss.lora_init,"aw",%nobits
 1376              		.set	.LANCHOR0,. + 0
 1379              	lora_init:
 1380 0000 00       		.space	1
 1381              		.section	.rodata.HAL_GPIO_EXTI_Callback.str1.4,"aMS",%progbits,1
 1382              		.align	2
 1383              	.LC6:
 1384 0000 50494E35 		.ascii	"PIN5 Int \015\000"
 1384      20496E74 
 1384      200D00
 1385 000b 00       		.space	1
 1386              	.LC7:
 1387 000c 50494E31 		.ascii	"PIN13 Int \015\000"
 1387      3320496E 
 1387      74200D00 
 1388              	.LC8:
 1389 0018 52656172 		.ascii	"Rearmed \015\000"
 1389      6D656420 
 1389      0D00
 1390 0022 0000     		.space	2
 1391              	.LC9:
 1392 0024 50494E31 		.ascii	"PIN1 Int \015\000"
 1392      20496E74 
 1392      200D00
 1393              		.section	.rodata.LoRaWAN_send.str1.4,"aMS",%progbits,1
 1394              		.align	2
 1395              	.LC10:
 1396 0000 6D757261 		.ascii	"murata not initialized, not sending\015\000"
 1396      7461206E 
ARM GAS  /tmp/ccPWelB9.s 			page 31


 1396      6F742069 
 1396      6E697469 
 1396      616C697A 
 1397              		.section	.rodata.LorawanInit.str1.4,"aMS",%progbits,1
 1398              		.align	2
 1399              	.LC16:
 1400 0000 4C6F5261 		.ascii	"LoRaWAN module init OK\015\000"
 1400      57414E20 
 1400      6D6F6475 
 1400      6C652069 
 1400      6E697420 
 1401              	.LC17:
 1402 0018 4C6F5261 		.ascii	"LoRaWAN not initialized correctly!\015\000"
 1402      57414E20 
 1402      6E6F7420 
 1402      696E6974 
 1402      69616C69 
 1403              		.section	.rodata.StartDefaultTask.str1.4,"aMS",%progbits,1
 1404              		.align	2
 1405              	.LC22:
 1406 0000 53746172 		.ascii	"Start the device!\012\015\000"
 1406      74207468 
 1406      65206465 
 1406      76696365 
 1406      210A0D00 
 1407              		.section	.rodata.check_modules.str1.4,"aMS",%progbits,1
 1408              		.align	2
 1409              	.LC4:
 1410 0000 63686563 		.ascii	"checking the status of the modules\015\000"
 1410      6B696E67 
 1410      20746865 
 1410      20737461 
 1410      74757320 
 1411              		.section	.rodata.murata_process_rx_response.str1.4,"aMS",%progbits,1
 1412              		.align	2
 1413              	.LC5:
 1414 0000 54686520 		.ascii	"The transmission ended as expected\000"
 1414      7472616E 
 1414      736D6973 
 1414      73696F6E 
 1414      20656E64 
 1415              		.section	.rodata.printWelcome.str1.4,"aMS",%progbits,1
 1416              		.align	2
 1417              	.LC11:
 1418 0000 0D00     		.ascii	"\015\000"
 1419 0002 0000     		.space	2
 1420              	.LC12:
 1421 0004 2A2A2A2A 		.ascii	"*****************************************\015\000"
 1421      2A2A2A2A 
 1421      2A2A2A2A 
 1421      2A2A2A2A 
 1421      2A2A2A2A 
 1422 002f 00       		.space	1
 1423              	.LC13:
 1424 0030 4170706C 		.ascii	"Application accelerometer and magnetometer \015\000"
 1424      69636174 
 1424      696F6E20 
ARM GAS  /tmp/ccPWelB9.s 			page 32


 1424      61636365 
 1424      6C65726F 
 1425              		.section	.rodata.print_accelerometer.str1.4,"aMS",%progbits,1
 1426              		.align	2
 1427              	.LC14:
 1428 0000 41636365 		.ascii	"Accelerometer data: X: % 06.2f Y: % 06.2f Z: % 06.2"
 1428      6C65726F 
 1428      6D657465 
 1428      72206461 
 1428      74613A20 
 1429 0033 66200D0A 		.ascii	"f \015\012\000"
 1429      00
 1430              		.section	.rodata.print_magnetometer.str1.4,"aMS",%progbits,1
 1431              		.align	2
 1432              	.LC15:
 1433 0000 4D61676E 		.ascii	"Magnetometer data: X: %d Y: %d Z: %d \015\012\000"
 1433      65746F6D 
 1433      65746572 
 1433      20646174 
 1433      613A2058 
 1434              		.section	.rodata.print_temp_hum.str1.4,"aMS",%progbits,1
 1435              		.align	2
 1436              	.LC20:
 1437 0000 54656D70 		.ascii	"Temperature: %.2f deg of C\015\012\000"
 1437      65726174 
 1437      7572653A 
 1437      20252E32 
 1437      66206465 
 1438 001d 000000   		.space	3
 1439              	.LC21:
 1440 0020 48756D69 		.ascii	"Humidity: %.2f relative \015\012\000"
 1440      64697479 
 1440      3A20252E 
 1440      32662072 
 1440      656C6174 
 1441              		.section	.rodata.str1.4,"aMS",%progbits,1
 1442              		.align	2
 1443              	.LC2:
 1444 0000 64656661 		.ascii	"defaultTask\000"
 1444      756C7454 
 1444      61736B00 
 1445              	.LC0:
 1446 000c 6D757261 		.ascii	"murata_rx_processing\000"
 1446      74615F72 
 1446      785F7072 
 1446      6F636573 
 1446      73696E67 
 1447              		.text
 1448              	.Letext0:
 1449              		.file 2 "/usr/include/newlib/machine/_default_types.h"
 1450              		.file 3 "/usr/include/newlib/sys/lock.h"
 1451              		.file 4 "/usr/include/newlib/sys/_types.h"
 1452              		.file 5 "/usr/lib/gcc/arm-none-eabi/6.3.1/include/stddef.h"
 1453              		.file 6 "/usr/include/newlib/sys/reent.h"
 1454              		.file 7 "/usr/include/newlib/sys/_stdint.h"
 1455              		.file 8 "../../core/ST/CMSIS/Include/core_cm4.h"
 1456              		.file 9 "../../core/ST/CMSIS/Device/ST/STM32L4xx/Include/system_stm32l4xx.h"
ARM GAS  /tmp/ccPWelB9.s 			page 33


 1457              		.file 10 "../../core/ST/CMSIS/Device/ST/STM32L4xx/Include/stm32l496xx.h"
 1458              		.file 11 "../../core/ST/STM32L4xx_HAL_Driver/Inc/stm32l4xx_hal_def.h"
 1459              		.file 12 "../../core/ST/STM32L4xx_HAL_Driver/Inc/stm32l4xx_hal_dma.h"
 1460              		.file 13 "../../core/ST/STM32L4xx_HAL_Driver/Inc/stm32l4xx_hal_i2c.h"
 1461              		.file 14 "../../core/ST/STM32L4xx_HAL_Driver/Inc/stm32l4xx_hal_iwdg.h"
 1462              		.file 15 "../../core/ST/STM32L4xx_HAL_Driver/Inc/stm32l4xx_hal_spi.h"
 1463              		.file 16 "../../core/ST/STM32L4xx_HAL_Driver/Inc/stm32l4xx_hal_tim.h"
 1464              		.file 17 "../../core/ST/STM32L4xx_HAL_Driver/Inc/stm32l4xx_hal_uart.h"
 1465              		.file 18 "../../core/ST/STM32L4xx_HAL_Driver/Inc/stm32l4xx_hal.h"
 1466              		.file 19 "../../core/ST/Middlewares/Third_Party/FreeRTOS/Source/portable/GCC/ARM_CM4F/portmacro.h"
 1467              		.file 20 "../../core/ST/Middlewares/Third_Party/FreeRTOS/Source/include/task.h"
 1468              		.file 21 "../../core/ST/Middlewares/Third_Party/FreeRTOS/Source/include/timers.h"
 1469              		.file 22 "../../core/ST/Middlewares/Third_Party/FreeRTOS/Source/include/queue.h"
 1470              		.file 23 "../../core/ST/Middlewares/Third_Party/FreeRTOS/Source/include/semphr.h"
 1471              		.file 24 "../../core/ST/Middlewares/Third_Party/FreeRTOS/Source/CMSIS_RTOS/cmsis_os.h"
 1472              		.file 25 "../../core/platform/octa/inc/gpio.h"
 1473              		.file 26 "../../core/platform/octa/inc/iwdg.h"
 1474              		.file 27 "../../core/platform/octa/inc/uart.h"
 1475              		.file 28 "../../core/platform/octa/inc/i2c.h"
 1476              		.file 29 "../../core/platform/octa/inc/spi.h"
 1477              		.file 30 "../../core/platform/octa/inc/octa.h"
 1478              		.file 31 "../../shields/Murata/inc/murata.h"
 1479              		.file 32 "../../core/drivers/LSM303AGR/inc/LSM303AGRSensor.h"
 1480              		.file 33 "../../core/drivers/SHT31/inc/sht31.h"
 1481              		.file 34 "../../applications/iotproject/inc/iotproject.h"
 1482              		.file 35 "/usr/include/newlib/stdio.h"
 1483              		.file 36 "../../core/ST/STM32L4xx_HAL_Driver/Inc/stm32l4xx_hal_gpio.h"
 1484              		.file 37 "<built-in>"
ARM GAS  /tmp/ccPWelB9.s 			page 34

