ARM GAS  /tmp/ccH4JL22.s 			page 1


   1              		.cpu cortex-m4
   2              		.eabi_attribute 27, 1
   3              		.eabi_attribute 28, 1
   4              		.eabi_attribute 20, 1
   5              		.eabi_attribute 21, 1
   6              		.eabi_attribute 23, 3
   7              		.eabi_attribute 24, 1
   8              		.eabi_attribute 25, 1
   9              		.eabi_attribute 26, 1
  10              		.eabi_attribute 30, 1
  11              		.eabi_attribute 34, 1
  12              		.eabi_attribute 18, 4
  13              		.file	"GSP30.c"
  14              		.text
  15              	.Ltext0:
  16              		.cfi_sections	.debug_frame
  17              		.section	.text.GSP30_setI2CInterface,"ax",%progbits
  18              		.align	1
  19              		.global	GSP30_setI2CInterface
  20              		.syntax unified
  21              		.thumb
  22              		.thumb_func
  23              		.fpu fpv4-sp-d16
  25              	GSP30_setI2CInterface:
  26              	.LFB123:
  27              		.file 1 "../../core/drivers/SGP30/src/GSP30.c"
   1:../../core/drivers/SGP30/src/GSP30.c **** #include "GSP30.h"
   2:../../core/drivers/SGP30/src/GSP30.c **** void GSP30_setI2CInterface(I2C_HandleTypeDef *hi2c) {
  28              		.loc 1 2 0
  29              		.cfi_startproc
  30              		@ args = 0, pretend = 0, frame = 0
  31              		@ frame_needed = 0, uses_anonymous_args = 0
  32              		@ link register save eliminated.
  33              	.LVL0:
   3:../../core/drivers/SGP30/src/GSP30.c ****   GSP30_hi2c = hi2c;
  34              		.loc 1 3 0
  35 0000 014B     		ldr	r3, .L2
  36 0002 1860     		str	r0, [r3]
  37 0004 7047     		bx	lr
  38              	.L3:
  39 0006 00BF     		.align	2
  40              	.L2:
  41 0008 00000000 		.word	GSP30_hi2c
  42              		.cfi_endproc
  43              	.LFE123:
  45              		.section	.text.GSP30_readRegister,"ax",%progbits
  46              		.align	1
  47              		.global	GSP30_readRegister
  48              		.syntax unified
  49              		.thumb
  50              		.thumb_func
  51              		.fpu fpv4-sp-d16
  53              	GSP30_readRegister:
  54              	.LFB124:
   4:../../core/drivers/SGP30/src/GSP30.c **** }
   5:../../core/drivers/SGP30/src/GSP30.c **** 
   6:../../core/drivers/SGP30/src/GSP30.c **** HAL_StatusTypeDef GSP30_readRegister(uint16_t GSP30_reg, uint8_t GSP30_data) {
ARM GAS  /tmp/ccH4JL22.s 			page 2


  55              		.loc 1 6 0
  56              		.cfi_startproc
  57              		@ args = 0, pretend = 0, frame = 8
  58              		@ frame_needed = 0, uses_anonymous_args = 0
  59              	.LVL1:
  60 0000 10B5     		push	{r4, lr}
  61              	.LCFI0:
  62              		.cfi_def_cfa_offset 8
  63              		.cfi_offset 4, -8
  64              		.cfi_offset 14, -4
  65 0002 86B0     		sub	sp, sp, #24
  66              	.LCFI1:
  67              		.cfi_def_cfa_offset 32
  68 0004 06AB     		add	r3, sp, #24
  69 0006 03F8011D 		strb	r1, [r3, #-1]!
   7:../../core/drivers/SGP30/src/GSP30.c **** 
   8:../../core/drivers/SGP30/src/GSP30.c ****   HAL_I2C_Mem_Read(GSP30_hi2c, GSP30_I2C_ADDRESS, GSP30_reg, I2C_MEMADD_SIZE_16BIT, &GSP30_data, si
  70              		.loc 1 8 0
  71 000a 084A     		ldr	r2, .L6
  72 000c 1468     		ldr	r4, [r2]
  73 000e 4FF0FF32 		mov	r2, #-1
  74 0012 0292     		str	r2, [sp, #8]
  75 0014 0122     		movs	r2, #1
  76 0016 0192     		str	r2, [sp, #4]
  77 0018 0093     		str	r3, [sp]
  78 001a 0223     		movs	r3, #2
  79 001c 0246     		mov	r2, r0
  80 001e 5821     		movs	r1, #88
  81              	.LVL2:
  82 0020 2046     		mov	r0, r4
  83              	.LVL3:
  84 0022 FFF7FEFF 		bl	HAL_I2C_Mem_Read
  85              	.LVL4:
   9:../../core/drivers/SGP30/src/GSP30.c **** 
  10:../../core/drivers/SGP30/src/GSP30.c ****   return HAL_OK;
  11:../../core/drivers/SGP30/src/GSP30.c **** }
  86              		.loc 1 11 0
  87 0026 0020     		movs	r0, #0
  88 0028 06B0     		add	sp, sp, #24
  89              	.LCFI2:
  90              		.cfi_def_cfa_offset 8
  91              		@ sp needed
  92 002a 10BD     		pop	{r4, pc}
  93              	.L7:
  94              		.align	2
  95              	.L6:
  96 002c 00000000 		.word	GSP30_hi2c
  97              		.cfi_endproc
  98              	.LFE124:
 100              		.section	.text.GSP30_writeRegister,"ax",%progbits
 101              		.align	1
 102              		.global	GSP30_writeRegister
 103              		.syntax unified
 104              		.thumb
 105              		.thumb_func
 106              		.fpu fpv4-sp-d16
 108              	GSP30_writeRegister:
ARM GAS  /tmp/ccH4JL22.s 			page 3


 109              	.LFB125:
  12:../../core/drivers/SGP30/src/GSP30.c **** 
  13:../../core/drivers/SGP30/src/GSP30.c **** HAL_StatusTypeDef GSP30_writeRegister(uint16_t GSP30_reg, uint8_t GSP30_data) {
 110              		.loc 1 13 0
 111              		.cfi_startproc
 112              		@ args = 0, pretend = 0, frame = 8
 113              		@ frame_needed = 0, uses_anonymous_args = 0
 114              	.LVL5:
 115 0000 10B5     		push	{r4, lr}
 116              	.LCFI3:
 117              		.cfi_def_cfa_offset 8
 118              		.cfi_offset 4, -8
 119              		.cfi_offset 14, -4
 120 0002 86B0     		sub	sp, sp, #24
 121              	.LCFI4:
 122              		.cfi_def_cfa_offset 32
 123 0004 06AB     		add	r3, sp, #24
 124 0006 03F8011D 		strb	r1, [r3, #-1]!
  14:../../core/drivers/SGP30/src/GSP30.c **** 
  15:../../core/drivers/SGP30/src/GSP30.c ****   HAL_I2C_Mem_Write(GSP30_hi2c, GSP30_I2C_ADDRESS, GSP30_reg, I2C_MEMADD_SIZE_16BIT, &GSP30_data, s
 125              		.loc 1 15 0
 126 000a 084A     		ldr	r2, .L10
 127 000c 1468     		ldr	r4, [r2]
 128 000e 4FF0FF32 		mov	r2, #-1
 129 0012 0292     		str	r2, [sp, #8]
 130 0014 0122     		movs	r2, #1
 131 0016 0192     		str	r2, [sp, #4]
 132 0018 0093     		str	r3, [sp]
 133 001a 0223     		movs	r3, #2
 134 001c 0246     		mov	r2, r0
 135 001e 5821     		movs	r1, #88
 136              	.LVL6:
 137 0020 2046     		mov	r0, r4
 138              	.LVL7:
 139 0022 FFF7FEFF 		bl	HAL_I2C_Mem_Write
 140              	.LVL8:
  16:../../core/drivers/SGP30/src/GSP30.c **** 
  17:../../core/drivers/SGP30/src/GSP30.c ****   return HAL_OK;
  18:../../core/drivers/SGP30/src/GSP30.c **** }
 141              		.loc 1 18 0
 142 0026 0020     		movs	r0, #0
 143 0028 06B0     		add	sp, sp, #24
 144              	.LCFI5:
 145              		.cfi_def_cfa_offset 8
 146              		@ sp needed
 147 002a 10BD     		pop	{r4, pc}
 148              	.L11:
 149              		.align	2
 150              	.L10:
 151 002c 00000000 		.word	GSP30_hi2c
 152              		.cfi_endproc
 153              	.LFE125:
 155              		.section	.text.GSP30_init,"ax",%progbits
 156              		.align	1
 157              		.global	GSP30_init
 158              		.syntax unified
 159              		.thumb
ARM GAS  /tmp/ccH4JL22.s 			page 4


 160              		.thumb_func
 161              		.fpu fpv4-sp-d16
 163              	GSP30_init:
 164              	.LFB126:
  19:../../core/drivers/SGP30/src/GSP30.c **** 
  20:../../core/drivers/SGP30/src/GSP30.c **** void GSP30_init() {
 165              		.loc 1 20 0
 166              		.cfi_startproc
 167              		@ args = 0, pretend = 0, frame = 16
 168              		@ frame_needed = 0, uses_anonymous_args = 0
 169 0000 F0B5     		push	{r4, r5, r6, r7, lr}
 170              	.LCFI6:
 171              		.cfi_def_cfa_offset 20
 172              		.cfi_offset 4, -20
 173              		.cfi_offset 5, -16
 174              		.cfi_offset 6, -12
 175              		.cfi_offset 7, -8
 176              		.cfi_offset 14, -4
 177 0002 89B0     		sub	sp, sp, #36
 178              	.LCFI7:
 179              		.cfi_def_cfa_offset 56
  21:../../core/drivers/SGP30/src/GSP30.c **** 
  22:../../core/drivers/SGP30/src/GSP30.c ****   uint16_t addres[1];
  23:../../core/drivers/SGP30/src/GSP30.c ****   uint8_t data[6];
  24:../../core/drivers/SGP30/src/GSP30.c ****   addres[0] = 0x2003;
 180              		.loc 1 24 0
 181 0004 42F20301 		movw	r1, #8195
 182 0008 08AC     		add	r4, sp, #32
 183 000a 24F8041D 		strh	r1, [r4, #-4]!	@ movhi
  25:../../core/drivers/SGP30/src/GSP30.c ****   printf("Init Command: %x\n\r", addres[0]);
 184              		.loc 1 25 0
 185 000e 2348     		ldr	r0, .L14
 186 0010 FFF7FEFF 		bl	printf
 187              	.LVL9:
  26:../../core/drivers/SGP30/src/GSP30.c ****   GSP30_writeRegister(addres, data);
 188              		.loc 1 26 0
 189 0014 A4B2     		uxth	r4, r4
 190 0016 05AD     		add	r5, sp, #20
 191 0018 EDB2     		uxtb	r5, r5
 192 001a 2946     		mov	r1, r5
 193 001c 2046     		mov	r0, r4
 194 001e FFF7FEFF 		bl	GSP30_writeRegister
 195              	.LVL10:
  27:../../core/drivers/SGP30/src/GSP30.c **** 
  28:../../core/drivers/SGP30/src/GSP30.c ****   HAL_Delay(1000);
 196              		.loc 1 28 0
 197 0022 4FF47A70 		mov	r0, #1000
 198 0026 FFF7FEFF 		bl	HAL_Delay
 199              	.LVL11:
  29:../../core/drivers/SGP30/src/GSP30.c ****   addres[0] = 0x3682;
 200              		.loc 1 29 0
 201 002a 43F28263 		movw	r3, #13954
 202 002e ADF81C30 		strh	r3, [sp, #28]	@ movhi
  30:../../core/drivers/SGP30/src/GSP30.c ****   printf("Read ID\n\r");
 203              		.loc 1 30 0
 204 0032 1B48     		ldr	r0, .L14+4
 205 0034 FFF7FEFF 		bl	printf
ARM GAS  /tmp/ccH4JL22.s 			page 5


 206              	.LVL12:
  31:../../core/drivers/SGP30/src/GSP30.c ****   GSP30_writeRegister(addres, data);
 207              		.loc 1 31 0
 208 0038 2946     		mov	r1, r5
 209 003a 2046     		mov	r0, r4
 210 003c FFF7FEFF 		bl	GSP30_writeRegister
 211              	.LVL13:
  32:../../core/drivers/SGP30/src/GSP30.c ****   printf("answer with write: %x %x %x %x %x %x\n\r", data[0], data[1],data[2],data[3],data[4],data[
 212              		.loc 1 32 0
 213 0040 9DF81410 		ldrb	r1, [sp, #20]	@ zero_extendqisi2
 214 0044 9DF81520 		ldrb	r2, [sp, #21]	@ zero_extendqisi2
 215 0048 9DF81630 		ldrb	r3, [sp, #22]	@ zero_extendqisi2
 216 004c 9DF81700 		ldrb	r0, [sp, #23]	@ zero_extendqisi2
 217 0050 9DF81860 		ldrb	r6, [sp, #24]	@ zero_extendqisi2
 218 0054 9DF81970 		ldrb	r7, [sp, #25]	@ zero_extendqisi2
 219 0058 0297     		str	r7, [sp, #8]
 220 005a 0196     		str	r6, [sp, #4]
 221 005c 0090     		str	r0, [sp]
 222 005e 1148     		ldr	r0, .L14+8
 223 0060 FFF7FEFF 		bl	printf
 224              	.LVL14:
  33:../../core/drivers/SGP30/src/GSP30.c ****   GSP30_readRegister(addres, data);
 225              		.loc 1 33 0
 226 0064 2946     		mov	r1, r5
 227 0066 2046     		mov	r0, r4
 228 0068 FFF7FEFF 		bl	GSP30_readRegister
 229              	.LVL15:
  34:../../core/drivers/SGP30/src/GSP30.c ****   printf("answer with read: %x %x %x %x %x %x\n\r", data[0], data[1],data[2],data[3],data[4],data[5
 230              		.loc 1 34 0
 231 006c 9DF81410 		ldrb	r1, [sp, #20]	@ zero_extendqisi2
 232 0070 9DF81520 		ldrb	r2, [sp, #21]	@ zero_extendqisi2
 233 0074 9DF81630 		ldrb	r3, [sp, #22]	@ zero_extendqisi2
 234 0078 9DF81700 		ldrb	r0, [sp, #23]	@ zero_extendqisi2
 235 007c 9DF81840 		ldrb	r4, [sp, #24]	@ zero_extendqisi2
 236 0080 9DF81950 		ldrb	r5, [sp, #25]	@ zero_extendqisi2
 237 0084 0295     		str	r5, [sp, #8]
 238 0086 0194     		str	r4, [sp, #4]
 239 0088 0090     		str	r0, [sp]
 240 008a 0748     		ldr	r0, .L14+12
 241 008c FFF7FEFF 		bl	printf
 242              	.LVL16:
  35:../../core/drivers/SGP30/src/GSP30.c ****   HAL_Delay(100);
 243              		.loc 1 35 0
 244 0090 6420     		movs	r0, #100
 245 0092 FFF7FEFF 		bl	HAL_Delay
 246              	.LVL17:
  36:../../core/drivers/SGP30/src/GSP30.c **** }
 247              		.loc 1 36 0
 248 0096 09B0     		add	sp, sp, #36
 249              	.LCFI8:
 250              		.cfi_def_cfa_offset 20
 251              		@ sp needed
 252 0098 F0BD     		pop	{r4, r5, r6, r7, pc}
 253              	.L15:
 254 009a 00BF     		.align	2
 255              	.L14:
 256 009c 00000000 		.word	.LC0
ARM GAS  /tmp/ccH4JL22.s 			page 6


 257 00a0 14000000 		.word	.LC1
 258 00a4 20000000 		.word	.LC2
 259 00a8 48000000 		.word	.LC3
 260              		.cfi_endproc
 261              	.LFE126:
 263              		.section	.text.GSP30_reset,"ax",%progbits
 264              		.align	1
 265              		.global	GSP30_reset
 266              		.syntax unified
 267              		.thumb
 268              		.thumb_func
 269              		.fpu fpv4-sp-d16
 271              	GSP30_reset:
 272              	.LFB127:
  37:../../core/drivers/SGP30/src/GSP30.c **** 
  38:../../core/drivers/SGP30/src/GSP30.c **** /**
  39:../../core/drivers/SGP30/src/GSP30.c ****  * Resets the GSP30 accelerometer
  40:../../core/drivers/SGP30/src/GSP30.c ****  */
  41:../../core/drivers/SGP30/src/GSP30.c **** void GSP30_reset() {
 273              		.loc 1 41 0
 274              		.cfi_startproc
 275              		@ args = 0, pretend = 0, frame = 0
 276              		@ frame_needed = 0, uses_anonymous_args = 0
 277              		@ link register save eliminated.
 278 0000 7047     		bx	lr
 279              		.cfi_endproc
 280              	.LFE127:
 282              		.section	.text.GSP30_measure,"ax",%progbits
 283              		.align	1
 284              		.global	GSP30_measure
 285              		.syntax unified
 286              		.thumb
 287              		.thumb_func
 288              		.fpu fpv4-sp-d16
 290              	GSP30_measure:
 291              	.LFB128:
  42:../../core/drivers/SGP30/src/GSP30.c ****   // GSP30_setting = GSP30_ACC_BOOT;
  43:../../core/drivers/SGP30/src/GSP30.c ****   // GSP30_writeRegister(GSP30_ACC_CTRL_REG5, GSP30_setting, 0);
  44:../../core/drivers/SGP30/src/GSP30.c **** }
  45:../../core/drivers/SGP30/src/GSP30.c **** 
  46:../../core/drivers/SGP30/src/GSP30.c **** void GSP30_measure() {
 292              		.loc 1 46 0
 293              		.cfi_startproc
 294              		@ args = 0, pretend = 0, frame = 16
 295              		@ frame_needed = 0, uses_anonymous_args = 0
 296              		.loc 1 46 0
 297 0000 30B5     		push	{r4, r5, lr}
 298              	.LCFI9:
 299              		.cfi_def_cfa_offset 12
 300              		.cfi_offset 4, -12
 301              		.cfi_offset 5, -8
 302              		.cfi_offset 14, -4
 303 0002 89B0     		sub	sp, sp, #36
 304              	.LCFI10:
 305              		.cfi_def_cfa_offset 48
  47:../../core/drivers/SGP30/src/GSP30.c ****   uint16_t addres[1];
  48:../../core/drivers/SGP30/src/GSP30.c ****   uint8_t data[6];
ARM GAS  /tmp/ccH4JL22.s 			page 7


  49:../../core/drivers/SGP30/src/GSP30.c ****   uint8_t data1[1];
  50:../../core/drivers/SGP30/src/GSP30.c ****   addres[0] = 0x2008;
 306              		.loc 1 50 0
 307 0004 08A8     		add	r0, sp, #32
 308 0006 42F20803 		movw	r3, #8200
 309 000a 20F8043D 		strh	r3, [r0, #-4]!	@ movhi
  51:../../core/drivers/SGP30/src/GSP30.c ****   GSP30_writeRegister(addres, data1);
 310              		.loc 1 51 0
 311 000e 84B2     		uxth	r4, r0
 312 0010 04A9     		add	r1, sp, #16
 313 0012 01F0F801 		and	r1, r1, #248
 314 0016 2046     		mov	r0, r4
 315 0018 FFF7FEFF 		bl	GSP30_writeRegister
 316              	.LVL18:
  52:../../core/drivers/SGP30/src/GSP30.c ****   HAL_Delay(12);
 317              		.loc 1 52 0
 318 001c 0C20     		movs	r0, #12
 319 001e FFF7FEFF 		bl	HAL_Delay
 320              	.LVL19:
  53:../../core/drivers/SGP30/src/GSP30.c ****   GSP30_readRegister(addres, data);
 321              		.loc 1 53 0
 322 0022 05A9     		add	r1, sp, #20
 323 0024 01F0FC01 		and	r1, r1, #252
 324 0028 2046     		mov	r0, r4
 325 002a FFF7FEFF 		bl	GSP30_readRegister
 326              	.LVL20:
  54:../../core/drivers/SGP30/src/GSP30.c ****   printf("Data Read Out: %x %x %x %x %x %x\n\r", data[0], data[1],data[2],data[3],data[4],data[5]);
 327              		.loc 1 54 0
 328 002e 9DF81410 		ldrb	r1, [sp, #20]	@ zero_extendqisi2
 329 0032 9DF81520 		ldrb	r2, [sp, #21]	@ zero_extendqisi2
 330 0036 9DF81630 		ldrb	r3, [sp, #22]	@ zero_extendqisi2
 331 003a 9DF81700 		ldrb	r0, [sp, #23]	@ zero_extendqisi2
 332 003e 9DF81840 		ldrb	r4, [sp, #24]	@ zero_extendqisi2
 333 0042 9DF81950 		ldrb	r5, [sp, #25]	@ zero_extendqisi2
 334 0046 0295     		str	r5, [sp, #8]
 335 0048 0194     		str	r4, [sp, #4]
 336 004a 0090     		str	r0, [sp]
 337 004c 0848     		ldr	r0, .L19
 338 004e FFF7FEFF 		bl	printf
 339              	.LVL21:
  55:../../core/drivers/SGP30/src/GSP30.c ****   addres[0]=data[1]*256+data[0];
 340              		.loc 1 55 0
 341 0052 9DF81530 		ldrb	r3, [sp, #21]	@ zero_extendqisi2
 342 0056 9DF81410 		ldrb	r1, [sp, #20]	@ zero_extendqisi2
 343 005a 01EB0321 		add	r1, r1, r3, lsl #8
 344 005e 89B2     		uxth	r1, r1
 345 0060 ADF81C10 		strh	r1, [sp, #28]	@ movhi
  56:../../core/drivers/SGP30/src/GSP30.c ****   printf("Air Quality: %d\n\r",addres[0]);
 346              		.loc 1 56 0
 347 0064 0348     		ldr	r0, .L19+4
 348 0066 FFF7FEFF 		bl	printf
 349              	.LVL22:
  57:../../core/drivers/SGP30/src/GSP30.c **** }
 350              		.loc 1 57 0
 351 006a 09B0     		add	sp, sp, #36
 352              	.LCFI11:
 353              		.cfi_def_cfa_offset 12
ARM GAS  /tmp/ccH4JL22.s 			page 8


 354              		@ sp needed
 355 006c 30BD     		pop	{r4, r5, pc}
 356              	.L20:
 357 006e 00BF     		.align	2
 358              	.L19:
 359 0070 00000000 		.word	.LC4
 360 0074 24000000 		.word	.LC5
 361              		.cfi_endproc
 362              	.LFE128:
 364              		.section	.text.GSP30_readData,"ax",%progbits
 365              		.align	1
 366              		.global	GSP30_readData
 367              		.syntax unified
 368              		.thumb
 369              		.thumb_func
 370              		.fpu fpv4-sp-d16
 372              	GSP30_readData:
 373              	.LFB129:
  58:../../core/drivers/SGP30/src/GSP30.c **** 
  59:../../core/drivers/SGP30/src/GSP30.c **** void GSP30_readData(int32_t *pData) {
 374              		.loc 1 59 0
 375              		.cfi_startproc
 376              		@ args = 0, pretend = 0, frame = 0
 377              		@ frame_needed = 0, uses_anonymous_args = 0
 378              		@ link register save eliminated.
 379              	.LVL23:
 380 0000 7047     		bx	lr
 381              		.cfi_endproc
 382              	.LFE129:
 384              		.comm	GSP30_hi2c,4,4
 385              		.comm	GSP30_setting,1,1
 386              		.section	.rodata.GSP30_init.str1.4,"aMS",%progbits,1
 387              		.align	2
 388              	.LC0:
 389 0000 496E6974 		.ascii	"Init Command: %x\012\015\000"
 389      20436F6D 
 389      6D616E64 
 389      3A202578 
 389      0A0D00
 390 0013 00       		.space	1
 391              	.LC1:
 392 0014 52656164 		.ascii	"Read ID\012\015\000"
 392      2049440A 
 392      0D00
 393 001e 0000     		.space	2
 394              	.LC2:
 395 0020 616E7377 		.ascii	"answer with write: %x %x %x %x %x %x\012\015\000"
 395      65722077 
 395      69746820 
 395      77726974 
 395      653A2025 
 396 0047 00       		.space	1
 397              	.LC3:
 398 0048 616E7377 		.ascii	"answer with read: %x %x %x %x %x %x\012\015\000"
 398      65722077 
 398      69746820 
 398      72656164 
ARM GAS  /tmp/ccH4JL22.s 			page 9


 398      3A202578 
 399              		.section	.rodata.GSP30_measure.str1.4,"aMS",%progbits,1
 400              		.align	2
 401              	.LC4:
 402 0000 44617461 		.ascii	"Data Read Out: %x %x %x %x %x %x\012\015\000"
 402      20526561 
 402      64204F75 
 402      743A2025 
 402      78202578 
 403 0023 00       		.space	1
 404              	.LC5:
 405 0024 41697220 		.ascii	"Air Quality: %d\012\015\000"
 405      5175616C 
 405      6974793A 
 405      2025640A 
 405      0D00
 406              		.text
 407              	.Letext0:
 408              		.file 2 "/usr/include/newlib/machine/_default_types.h"
 409              		.file 3 "/usr/include/newlib/sys/_stdint.h"
 410              		.file 4 "../../core/ST/CMSIS/Include/core_cm4.h"
 411              		.file 5 "../../core/ST/CMSIS/Device/ST/STM32L4xx/Include/system_stm32l4xx.h"
 412              		.file 6 "../../core/ST/CMSIS/Device/ST/STM32L4xx/Include/stm32l496xx.h"
 413              		.file 7 "../../core/ST/STM32L4xx_HAL_Driver/Inc/stm32l4xx_hal_def.h"
 414              		.file 8 "../../core/ST/STM32L4xx_HAL_Driver/Inc/stm32l4xx_hal_dma.h"
 415              		.file 9 "../../core/ST/STM32L4xx_HAL_Driver/Inc/stm32l4xx_hal_i2c.h"
 416              		.file 10 "../../core/ST/STM32L4xx_HAL_Driver/Inc/stm32l4xx_hal.h"
 417              		.file 11 "../../core/drivers/SGP30/inc/GSP30.h"
 418              		.file 12 "<built-in>"
ARM GAS  /tmp/ccH4JL22.s 			page 10

