ARM GAS  /tmp/ccl8HWcF.s 			page 1


   1              		.cpu cortex-m4
   2              		.eabi_attribute 27, 1
   3              		.eabi_attribute 28, 1
   4              		.eabi_attribute 20, 1
   5              		.eabi_attribute 21, 1
   6              		.eabi_attribute 23, 3
   7              		.eabi_attribute 24, 1
   8              		.eabi_attribute 25, 1
   9              		.eabi_attribute 26, 1
  10              		.eabi_attribute 30, 1
  11              		.eabi_attribute 34, 1
  12              		.eabi_attribute 18, 4
  13              		.file	"i2c.c"
  14              		.text
  15              	.Ltext0:
  16              		.cfi_sections	.debug_frame
  17              		.section	.text.common_I2C_Init,"ax",%progbits
  18              		.align	1
  19              		.global	common_I2C_Init
  20              		.syntax unified
  21              		.thumb
  22              		.thumb_func
  23              		.fpu fpv4-sp-d16
  25              	common_I2C_Init:
  26              	.LFB123:
  27              		.file 1 "../../core/platform/octa/src/i2c.c"
   1:../../core/platform/octa/src/i2c.c **** #include "i2c.h"
   2:../../core/platform/octa/src/i2c.c **** 
   3:../../core/platform/octa/src/i2c.c **** /**
   4:../../core/platform/octa/src/i2c.c ****   * @brief I2C2 Initialization Function
   5:../../core/platform/octa/src/i2c.c ****   * @param None
   6:../../core/platform/octa/src/i2c.c ****   * @retval None
   7:../../core/platform/octa/src/i2c.c ****   */
   8:../../core/platform/octa/src/i2c.c **** 
   9:../../core/platform/octa/src/i2c.c ****  void common_I2C_Init(void)
  10:../../core/platform/octa/src/i2c.c ****  {
  28              		.loc 1 10 0
  29              		.cfi_startproc
  30              		@ args = 0, pretend = 0, frame = 0
  31              		@ frame_needed = 0, uses_anonymous_args = 0
  32 0000 08B5     		push	{r3, lr}
  33              	.LCFI0:
  34              		.cfi_def_cfa_offset 8
  35              		.cfi_offset 3, -8
  36              		.cfi_offset 14, -4
  11:../../core/platform/octa/src/i2c.c ****     common_I2C.Instance = I2C1;
  37              		.loc 1 11 0
  38 0002 1248     		ldr	r0, .L9
  39 0004 124B     		ldr	r3, .L9+4
  40 0006 0360     		str	r3, [r0]
  12:../../core/platform/octa/src/i2c.c ****     common_I2C.Init.Timing = 0x00101A26;
  41              		.loc 1 12 0
  42 0008 124B     		ldr	r3, .L9+8
  43 000a 4360     		str	r3, [r0, #4]
  13:../../core/platform/octa/src/i2c.c ****     common_I2C.Init.OwnAddress1 = 0;
  44              		.loc 1 13 0
  45 000c 0023     		movs	r3, #0
ARM GAS  /tmp/ccl8HWcF.s 			page 2


  46 000e 8360     		str	r3, [r0, #8]
  14:../../core/platform/octa/src/i2c.c ****     common_I2C.Init.AddressingMode = I2C_ADDRESSINGMODE_7BIT;
  47              		.loc 1 14 0
  48 0010 0122     		movs	r2, #1
  49 0012 C260     		str	r2, [r0, #12]
  15:../../core/platform/octa/src/i2c.c ****     common_I2C.Init.DualAddressMode = I2C_DUALADDRESS_DISABLE;
  50              		.loc 1 15 0
  51 0014 0361     		str	r3, [r0, #16]
  16:../../core/platform/octa/src/i2c.c ****     common_I2C.Init.OwnAddress2 = 0;
  52              		.loc 1 16 0
  53 0016 4361     		str	r3, [r0, #20]
  17:../../core/platform/octa/src/i2c.c ****     common_I2C.Init.OwnAddress2Masks = I2C_OA2_NOMASK;
  54              		.loc 1 17 0
  55 0018 8361     		str	r3, [r0, #24]
  18:../../core/platform/octa/src/i2c.c ****     common_I2C.Init.GeneralCallMode = I2C_GENERALCALL_DISABLE;
  56              		.loc 1 18 0
  57 001a C361     		str	r3, [r0, #28]
  19:../../core/platform/octa/src/i2c.c ****     common_I2C.Init.NoStretchMode = I2C_NOSTRETCH_DISABLE;
  58              		.loc 1 19 0
  59 001c 0362     		str	r3, [r0, #32]
  20:../../core/platform/octa/src/i2c.c ****     if (HAL_I2C_Init(&common_I2C) != HAL_OK)
  60              		.loc 1 20 0
  61 001e FFF7FEFF 		bl	HAL_I2C_Init
  62              	.LVL0:
  63 0022 50B9     		cbnz	r0, .L6
  64              	.L2:
  21:../../core/platform/octa/src/i2c.c ****     {
  22:../../core/platform/octa/src/i2c.c ****       Error_Handler();
  23:../../core/platform/octa/src/i2c.c ****     }
  24:../../core/platform/octa/src/i2c.c ****     /**Configure Analogue filter 
  25:../../core/platform/octa/src/i2c.c ****     */
  26:../../core/platform/octa/src/i2c.c ****     if (HAL_I2CEx_ConfigAnalogFilter(&common_I2C, I2C_ANALOGFILTER_ENABLE) != HAL_OK)
  65              		.loc 1 26 0
  66 0024 0021     		movs	r1, #0
  67 0026 0948     		ldr	r0, .L9
  68 0028 FFF7FEFF 		bl	HAL_I2CEx_ConfigAnalogFilter
  69              	.LVL1:
  70 002c 40B9     		cbnz	r0, .L7
  71              	.L3:
  27:../../core/platform/octa/src/i2c.c ****     {
  28:../../core/platform/octa/src/i2c.c ****       Error_Handler();
  29:../../core/platform/octa/src/i2c.c ****     }
  30:../../core/platform/octa/src/i2c.c ****     /**Configure Digital filter 
  31:../../core/platform/octa/src/i2c.c ****     */
  32:../../core/platform/octa/src/i2c.c ****     if (HAL_I2CEx_ConfigDigitalFilter(&common_I2C, 0) != HAL_OK)
  72              		.loc 1 32 0
  73 002e 0021     		movs	r1, #0
  74 0030 0648     		ldr	r0, .L9
  75 0032 FFF7FEFF 		bl	HAL_I2CEx_ConfigDigitalFilter
  76              	.LVL2:
  77 0036 30B9     		cbnz	r0, .L8
  78              	.L1:
  79 0038 08BD     		pop	{r3, pc}
  80              	.L6:
  81              	.LBB2:
  22:../../core/platform/octa/src/i2c.c ****     }
  82              		.loc 1 22 0
ARM GAS  /tmp/ccl8HWcF.s 			page 3


  83 003a FFF7FEFF 		bl	Error_Handler
  84              	.LVL3:
  85 003e F1E7     		b	.L2
  86              	.L7:
  87              	.LBE2:
  88              	.LBB3:
  28:../../core/platform/octa/src/i2c.c ****     }
  89              		.loc 1 28 0
  90 0040 FFF7FEFF 		bl	Error_Handler
  91              	.LVL4:
  92 0044 F3E7     		b	.L3
  93              	.L8:
  94              	.LBE3:
  95              	.LBB4:
  33:../../core/platform/octa/src/i2c.c ****     {
  34:../../core/platform/octa/src/i2c.c ****       Error_Handler();
  96              		.loc 1 34 0
  97 0046 FFF7FEFF 		bl	Error_Handler
  98              	.LVL5:
  99              	.LBE4:
  35:../../core/platform/octa/src/i2c.c ****     }
  36:../../core/platform/octa/src/i2c.c ****     /* USER CODE BEGIN I2C1_Init 2 */
  37:../../core/platform/octa/src/i2c.c **** 
  38:../../core/platform/octa/src/i2c.c ****     /* USER CODE END I2C1_Init 2 */
  39:../../core/platform/octa/src/i2c.c **** 
  40:../../core/platform/octa/src/i2c.c ****  }
 100              		.loc 1 40 0
 101 004a F5E7     		b	.L1
 102              	.L10:
 103              		.align	2
 104              	.L9:
 105 004c 00000000 		.word	common_I2C
 106 0050 00540040 		.word	1073763328
 107 0054 261A1000 		.word	1055270
 108              		.cfi_endproc
 109              	.LFE123:
 111              		.section	.text.P1_I2C_Init,"ax",%progbits
 112              		.align	1
 113              		.global	P1_I2C_Init
 114              		.syntax unified
 115              		.thumb
 116              		.thumb_func
 117              		.fpu fpv4-sp-d16
 119              	P1_I2C_Init:
 120              	.LFB124:
  41:../../core/platform/octa/src/i2c.c **** 
  42:../../core/platform/octa/src/i2c.c **** 
  43:../../core/platform/octa/src/i2c.c **** /**
  44:../../core/platform/octa/src/i2c.c ****   * @brief I2C3 Initialization Function
  45:../../core/platform/octa/src/i2c.c ****   * @param None
  46:../../core/platform/octa/src/i2c.c ****   * @retval None
  47:../../core/platform/octa/src/i2c.c ****   */
  48:../../core/platform/octa/src/i2c.c **** void P1_I2C_Init(void)
  49:../../core/platform/octa/src/i2c.c **** {
 121              		.loc 1 49 0
 122              		.cfi_startproc
 123              		@ args = 0, pretend = 0, frame = 0
ARM GAS  /tmp/ccl8HWcF.s 			page 4


 124              		@ frame_needed = 0, uses_anonymous_args = 0
 125 0000 08B5     		push	{r3, lr}
 126              	.LCFI1:
 127              		.cfi_def_cfa_offset 8
 128              		.cfi_offset 3, -8
 129              		.cfi_offset 14, -4
  50:../../core/platform/octa/src/i2c.c **** 
  51:../../core/platform/octa/src/i2c.c ****   /* USER CODE BEGIN I2C3_Init 0 */
  52:../../core/platform/octa/src/i2c.c **** 
  53:../../core/platform/octa/src/i2c.c ****   /* USER CODE END I2C3_Init 0 */
  54:../../core/platform/octa/src/i2c.c **** 
  55:../../core/platform/octa/src/i2c.c ****   /* USER CODE BEGIN I2C3_Init 1 */
  56:../../core/platform/octa/src/i2c.c **** 
  57:../../core/platform/octa/src/i2c.c ****   /* USER CODE END I2C3_Init 1 */
  58:../../core/platform/octa/src/i2c.c ****   P1_I2C.Instance = I2C3;
 130              		.loc 1 58 0
 131 0002 1248     		ldr	r0, .L19
 132 0004 124B     		ldr	r3, .L19+4
 133 0006 0360     		str	r3, [r0]
  59:../../core/platform/octa/src/i2c.c ****   P1_I2C.Init.Timing = 0x00101A26;
 134              		.loc 1 59 0
 135 0008 124B     		ldr	r3, .L19+8
 136 000a 4360     		str	r3, [r0, #4]
  60:../../core/platform/octa/src/i2c.c ****   P1_I2C.Init.OwnAddress1 = 0;
 137              		.loc 1 60 0
 138 000c 0023     		movs	r3, #0
 139 000e 8360     		str	r3, [r0, #8]
  61:../../core/platform/octa/src/i2c.c ****   P1_I2C.Init.AddressingMode = I2C_ADDRESSINGMODE_7BIT;
 140              		.loc 1 61 0
 141 0010 0122     		movs	r2, #1
 142 0012 C260     		str	r2, [r0, #12]
  62:../../core/platform/octa/src/i2c.c ****   P1_I2C.Init.DualAddressMode = I2C_DUALADDRESS_DISABLE;
 143              		.loc 1 62 0
 144 0014 0361     		str	r3, [r0, #16]
  63:../../core/platform/octa/src/i2c.c ****   P1_I2C.Init.OwnAddress2 = 0;
 145              		.loc 1 63 0
 146 0016 4361     		str	r3, [r0, #20]
  64:../../core/platform/octa/src/i2c.c ****   P1_I2C.Init.OwnAddress2Masks = I2C_OA2_NOMASK;
 147              		.loc 1 64 0
 148 0018 8361     		str	r3, [r0, #24]
  65:../../core/platform/octa/src/i2c.c ****   P1_I2C.Init.GeneralCallMode = I2C_GENERALCALL_DISABLE;
 149              		.loc 1 65 0
 150 001a C361     		str	r3, [r0, #28]
  66:../../core/platform/octa/src/i2c.c ****   P1_I2C.Init.NoStretchMode = I2C_NOSTRETCH_DISABLE;
 151              		.loc 1 66 0
 152 001c 0362     		str	r3, [r0, #32]
  67:../../core/platform/octa/src/i2c.c ****   if (HAL_I2C_Init(&P1_I2C) != HAL_OK)
 153              		.loc 1 67 0
 154 001e FFF7FEFF 		bl	HAL_I2C_Init
 155              	.LVL6:
 156 0022 50B9     		cbnz	r0, .L16
 157              	.L12:
  68:../../core/platform/octa/src/i2c.c ****   {
  69:../../core/platform/octa/src/i2c.c ****     Error_Handler();
  70:../../core/platform/octa/src/i2c.c ****   }
  71:../../core/platform/octa/src/i2c.c ****   /**Configure Analogue filter 
  72:../../core/platform/octa/src/i2c.c ****   */
ARM GAS  /tmp/ccl8HWcF.s 			page 5


  73:../../core/platform/octa/src/i2c.c ****   if (HAL_I2CEx_ConfigAnalogFilter(&P1_I2C, I2C_ANALOGFILTER_ENABLE) != HAL_OK)
 158              		.loc 1 73 0
 159 0024 0021     		movs	r1, #0
 160 0026 0948     		ldr	r0, .L19
 161 0028 FFF7FEFF 		bl	HAL_I2CEx_ConfigAnalogFilter
 162              	.LVL7:
 163 002c 40B9     		cbnz	r0, .L17
 164              	.L13:
  74:../../core/platform/octa/src/i2c.c ****   {
  75:../../core/platform/octa/src/i2c.c ****     Error_Handler();
  76:../../core/platform/octa/src/i2c.c ****   }
  77:../../core/platform/octa/src/i2c.c ****   /**Configure Digital filter 
  78:../../core/platform/octa/src/i2c.c ****   */
  79:../../core/platform/octa/src/i2c.c ****   if (HAL_I2CEx_ConfigDigitalFilter(&P1_I2C, 0) != HAL_OK)
 165              		.loc 1 79 0
 166 002e 0021     		movs	r1, #0
 167 0030 0648     		ldr	r0, .L19
 168 0032 FFF7FEFF 		bl	HAL_I2CEx_ConfigDigitalFilter
 169              	.LVL8:
 170 0036 30B9     		cbnz	r0, .L18
 171              	.L11:
 172 0038 08BD     		pop	{r3, pc}
 173              	.L16:
 174              	.LBB5:
  69:../../core/platform/octa/src/i2c.c ****   }
 175              		.loc 1 69 0
 176 003a FFF7FEFF 		bl	Error_Handler
 177              	.LVL9:
 178 003e F1E7     		b	.L12
 179              	.L17:
 180              	.LBE5:
 181              	.LBB6:
  75:../../core/platform/octa/src/i2c.c ****   }
 182              		.loc 1 75 0
 183 0040 FFF7FEFF 		bl	Error_Handler
 184              	.LVL10:
 185 0044 F3E7     		b	.L13
 186              	.L18:
 187              	.LBE6:
 188              	.LBB7:
  80:../../core/platform/octa/src/i2c.c ****   {
  81:../../core/platform/octa/src/i2c.c ****     Error_Handler();
 189              		.loc 1 81 0
 190 0046 FFF7FEFF 		bl	Error_Handler
 191              	.LVL11:
 192              	.LBE7:
  82:../../core/platform/octa/src/i2c.c ****   }
  83:../../core/platform/octa/src/i2c.c ****   /* USER CODE BEGIN I2C3_Init 2 */
  84:../../core/platform/octa/src/i2c.c **** 
  85:../../core/platform/octa/src/i2c.c ****   /* USER CODE END I2C3_Init 2 */
  86:../../core/platform/octa/src/i2c.c **** 
  87:../../core/platform/octa/src/i2c.c **** }
 193              		.loc 1 87 0
 194 004a F5E7     		b	.L11
 195              	.L20:
 196              		.align	2
 197              	.L19:
ARM GAS  /tmp/ccl8HWcF.s 			page 6


 198 004c 00000000 		.word	P1_I2C
 199 0050 005C0040 		.word	1073765376
 200 0054 261A1000 		.word	1055270
 201              		.cfi_endproc
 202              	.LFE124:
 204              		.section	.text.P2_I2C_Init,"ax",%progbits
 205              		.align	1
 206              		.global	P2_I2C_Init
 207              		.syntax unified
 208              		.thumb
 209              		.thumb_func
 210              		.fpu fpv4-sp-d16
 212              	P2_I2C_Init:
 213              	.LFB125:
  88:../../core/platform/octa/src/i2c.c **** 
  89:../../core/platform/octa/src/i2c.c **** void P2_I2C_Init(void)
  90:../../core/platform/octa/src/i2c.c **** {
 214              		.loc 1 90 0
 215              		.cfi_startproc
 216              		@ args = 0, pretend = 0, frame = 0
 217              		@ frame_needed = 0, uses_anonymous_args = 0
 218 0000 08B5     		push	{r3, lr}
 219              	.LCFI2:
 220              		.cfi_def_cfa_offset 8
 221              		.cfi_offset 3, -8
 222              		.cfi_offset 14, -4
  91:../../core/platform/octa/src/i2c.c **** 
  92:../../core/platform/octa/src/i2c.c ****   /* USER CODE BEGIN I2C2_Init 0 */
  93:../../core/platform/octa/src/i2c.c **** 
  94:../../core/platform/octa/src/i2c.c ****   /* USER CODE END I2C2_Init 0 */
  95:../../core/platform/octa/src/i2c.c **** 
  96:../../core/platform/octa/src/i2c.c ****   /* USER CODE BEGIN I2C2_Init 1 */
  97:../../core/platform/octa/src/i2c.c **** 
  98:../../core/platform/octa/src/i2c.c ****   /* USER CODE END I2C2_Init 1 */
  99:../../core/platform/octa/src/i2c.c ****   P2_I2C.Instance = I2C2;
 223              		.loc 1 99 0
 224 0002 1248     		ldr	r0, .L29
 225 0004 124B     		ldr	r3, .L29+4
 226 0006 0360     		str	r3, [r0]
 100:../../core/platform/octa/src/i2c.c ****   P2_I2C.Init.Timing = 0x00101A26;
 227              		.loc 1 100 0
 228 0008 124B     		ldr	r3, .L29+8
 229 000a 4360     		str	r3, [r0, #4]
 101:../../core/platform/octa/src/i2c.c ****   P2_I2C.Init.OwnAddress1 = 0;
 230              		.loc 1 101 0
 231 000c 0023     		movs	r3, #0
 232 000e 8360     		str	r3, [r0, #8]
 102:../../core/platform/octa/src/i2c.c ****   P2_I2C.Init.AddressingMode = I2C_ADDRESSINGMODE_7BIT;
 233              		.loc 1 102 0
 234 0010 0122     		movs	r2, #1
 235 0012 C260     		str	r2, [r0, #12]
 103:../../core/platform/octa/src/i2c.c ****   P2_I2C.Init.DualAddressMode = I2C_DUALADDRESS_DISABLE;
 236              		.loc 1 103 0
 237 0014 0361     		str	r3, [r0, #16]
 104:../../core/platform/octa/src/i2c.c ****   P2_I2C.Init.OwnAddress2 = 0;
 238              		.loc 1 104 0
 239 0016 4361     		str	r3, [r0, #20]
ARM GAS  /tmp/ccl8HWcF.s 			page 7


 105:../../core/platform/octa/src/i2c.c ****   P2_I2C.Init.OwnAddress2Masks = I2C_OA2_NOMASK;
 240              		.loc 1 105 0
 241 0018 8361     		str	r3, [r0, #24]
 106:../../core/platform/octa/src/i2c.c ****   P2_I2C.Init.GeneralCallMode = I2C_GENERALCALL_DISABLE;
 242              		.loc 1 106 0
 243 001a C361     		str	r3, [r0, #28]
 107:../../core/platform/octa/src/i2c.c ****   P2_I2C.Init.NoStretchMode = I2C_NOSTRETCH_DISABLE;
 244              		.loc 1 107 0
 245 001c 0362     		str	r3, [r0, #32]
 108:../../core/platform/octa/src/i2c.c ****   if (HAL_I2C_Init(&P2_I2C) != HAL_OK)
 246              		.loc 1 108 0
 247 001e FFF7FEFF 		bl	HAL_I2C_Init
 248              	.LVL12:
 249 0022 50B9     		cbnz	r0, .L26
 250              	.L22:
 109:../../core/platform/octa/src/i2c.c ****   {
 110:../../core/platform/octa/src/i2c.c ****     Error_Handler();
 111:../../core/platform/octa/src/i2c.c ****   }
 112:../../core/platform/octa/src/i2c.c ****   /**Configure Analogue filter 
 113:../../core/platform/octa/src/i2c.c ****   */
 114:../../core/platform/octa/src/i2c.c ****   if (HAL_I2CEx_ConfigAnalogFilter(&P2_I2C, I2C_ANALOGFILTER_ENABLE) != HAL_OK)
 251              		.loc 1 114 0
 252 0024 0021     		movs	r1, #0
 253 0026 0948     		ldr	r0, .L29
 254 0028 FFF7FEFF 		bl	HAL_I2CEx_ConfigAnalogFilter
 255              	.LVL13:
 256 002c 40B9     		cbnz	r0, .L27
 257              	.L23:
 115:../../core/platform/octa/src/i2c.c ****   {
 116:../../core/platform/octa/src/i2c.c ****     Error_Handler();
 117:../../core/platform/octa/src/i2c.c ****   }
 118:../../core/platform/octa/src/i2c.c ****   /**Configure Digital filter 
 119:../../core/platform/octa/src/i2c.c ****   */
 120:../../core/platform/octa/src/i2c.c ****   if (HAL_I2CEx_ConfigDigitalFilter(&P2_I2C, 0) != HAL_OK)
 258              		.loc 1 120 0
 259 002e 0021     		movs	r1, #0
 260 0030 0648     		ldr	r0, .L29
 261 0032 FFF7FEFF 		bl	HAL_I2CEx_ConfigDigitalFilter
 262              	.LVL14:
 263 0036 30B9     		cbnz	r0, .L28
 264              	.L21:
 265 0038 08BD     		pop	{r3, pc}
 266              	.L26:
 267              	.LBB8:
 110:../../core/platform/octa/src/i2c.c ****   }
 268              		.loc 1 110 0
 269 003a FFF7FEFF 		bl	Error_Handler
 270              	.LVL15:
 271 003e F1E7     		b	.L22
 272              	.L27:
 273              	.LBE8:
 274              	.LBB9:
 116:../../core/platform/octa/src/i2c.c ****   }
 275              		.loc 1 116 0
 276 0040 FFF7FEFF 		bl	Error_Handler
 277              	.LVL16:
 278 0044 F3E7     		b	.L23
ARM GAS  /tmp/ccl8HWcF.s 			page 8


 279              	.L28:
 280              	.LBE9:
 281              	.LBB10:
 121:../../core/platform/octa/src/i2c.c ****   {
 122:../../core/platform/octa/src/i2c.c ****     Error_Handler();
 282              		.loc 1 122 0
 283 0046 FFF7FEFF 		bl	Error_Handler
 284              	.LVL17:
 285              	.LBE10:
 123:../../core/platform/octa/src/i2c.c ****   }
 124:../../core/platform/octa/src/i2c.c ****   /* USER CODE BEGIN I2C2_Init 2 */
 125:../../core/platform/octa/src/i2c.c **** 
 126:../../core/platform/octa/src/i2c.c ****   /* USER CODE END I2C2_Init 2 */
 127:../../core/platform/octa/src/i2c.c **** 
 128:../../core/platform/octa/src/i2c.c **** }
 286              		.loc 1 128 0
 287 004a F5E7     		b	.L21
 288              	.L30:
 289              		.align	2
 290              	.L29:
 291 004c 00000000 		.word	P2_I2C
 292 0050 00580040 		.word	1073764352
 293 0054 261A1000 		.word	1055270
 294              		.cfi_endproc
 295              	.LFE125:
 297              		.section	.text.P3_I2C_Init,"ax",%progbits
 298              		.align	1
 299              		.global	P3_I2C_Init
 300              		.syntax unified
 301              		.thumb
 302              		.thumb_func
 303              		.fpu fpv4-sp-d16
 305              	P3_I2C_Init:
 306              	.LFB126:
 129:../../core/platform/octa/src/i2c.c **** 
 130:../../core/platform/octa/src/i2c.c **** /**
 131:../../core/platform/octa/src/i2c.c ****   * @brief I2C4 Initialization Function
 132:../../core/platform/octa/src/i2c.c ****   * @param None
 133:../../core/platform/octa/src/i2c.c ****   * @retval None
 134:../../core/platform/octa/src/i2c.c ****   */
 135:../../core/platform/octa/src/i2c.c **** void P3_I2C_Init(void)
 136:../../core/platform/octa/src/i2c.c **** {
 307              		.loc 1 136 0
 308              		.cfi_startproc
 309              		@ args = 0, pretend = 0, frame = 0
 310              		@ frame_needed = 0, uses_anonymous_args = 0
 311 0000 08B5     		push	{r3, lr}
 312              	.LCFI3:
 313              		.cfi_def_cfa_offset 8
 314              		.cfi_offset 3, -8
 315              		.cfi_offset 14, -4
 137:../../core/platform/octa/src/i2c.c **** 
 138:../../core/platform/octa/src/i2c.c ****   /* USER CODE BEGIN I2C4_Init 0 */
 139:../../core/platform/octa/src/i2c.c **** 
 140:../../core/platform/octa/src/i2c.c ****   /* USER CODE END I2C4_Init 0 */
 141:../../core/platform/octa/src/i2c.c **** 
 142:../../core/platform/octa/src/i2c.c ****   /* USER CODE BEGIN I2C4_Init 1 */
ARM GAS  /tmp/ccl8HWcF.s 			page 9


 143:../../core/platform/octa/src/i2c.c **** 
 144:../../core/platform/octa/src/i2c.c ****   /* USER CODE END I2C4_Init 1 */
 145:../../core/platform/octa/src/i2c.c ****   P3_I2C.Instance = I2C4;
 316              		.loc 1 145 0
 317 0002 1248     		ldr	r0, .L39
 318 0004 124B     		ldr	r3, .L39+4
 319 0006 0360     		str	r3, [r0]
 146:../../core/platform/octa/src/i2c.c ****   P3_I2C.Init.Timing = 0x00101A26;
 320              		.loc 1 146 0
 321 0008 124B     		ldr	r3, .L39+8
 322 000a 4360     		str	r3, [r0, #4]
 147:../../core/platform/octa/src/i2c.c ****   P3_I2C.Init.OwnAddress1 = 0;
 323              		.loc 1 147 0
 324 000c 0023     		movs	r3, #0
 325 000e 8360     		str	r3, [r0, #8]
 148:../../core/platform/octa/src/i2c.c ****   P3_I2C.Init.AddressingMode = I2C_ADDRESSINGMODE_7BIT;
 326              		.loc 1 148 0
 327 0010 0122     		movs	r2, #1
 328 0012 C260     		str	r2, [r0, #12]
 149:../../core/platform/octa/src/i2c.c ****   P3_I2C.Init.DualAddressMode = I2C_DUALADDRESS_DISABLE;
 329              		.loc 1 149 0
 330 0014 0361     		str	r3, [r0, #16]
 150:../../core/platform/octa/src/i2c.c ****   P3_I2C.Init.OwnAddress2 = 0;
 331              		.loc 1 150 0
 332 0016 4361     		str	r3, [r0, #20]
 151:../../core/platform/octa/src/i2c.c ****   P3_I2C.Init.OwnAddress2Masks = I2C_OA2_NOMASK;
 333              		.loc 1 151 0
 334 0018 8361     		str	r3, [r0, #24]
 152:../../core/platform/octa/src/i2c.c ****   P3_I2C.Init.GeneralCallMode = I2C_GENERALCALL_DISABLE;
 335              		.loc 1 152 0
 336 001a C361     		str	r3, [r0, #28]
 153:../../core/platform/octa/src/i2c.c ****   P3_I2C.Init.NoStretchMode = I2C_NOSTRETCH_DISABLE;
 337              		.loc 1 153 0
 338 001c 0362     		str	r3, [r0, #32]
 154:../../core/platform/octa/src/i2c.c ****   if (HAL_I2C_Init(&P3_I2C) != HAL_OK)
 339              		.loc 1 154 0
 340 001e FFF7FEFF 		bl	HAL_I2C_Init
 341              	.LVL18:
 342 0022 50B9     		cbnz	r0, .L36
 343              	.L32:
 155:../../core/platform/octa/src/i2c.c ****   {
 156:../../core/platform/octa/src/i2c.c ****     Error_Handler();
 157:../../core/platform/octa/src/i2c.c ****   }
 158:../../core/platform/octa/src/i2c.c ****   /**Configure Analogue filter 
 159:../../core/platform/octa/src/i2c.c ****   */
 160:../../core/platform/octa/src/i2c.c ****   if (HAL_I2CEx_ConfigAnalogFilter(&P3_I2C, I2C_ANALOGFILTER_ENABLE) != HAL_OK)
 344              		.loc 1 160 0
 345 0024 0021     		movs	r1, #0
 346 0026 0948     		ldr	r0, .L39
 347 0028 FFF7FEFF 		bl	HAL_I2CEx_ConfigAnalogFilter
 348              	.LVL19:
 349 002c 40B9     		cbnz	r0, .L37
 350              	.L33:
 161:../../core/platform/octa/src/i2c.c ****   {
 162:../../core/platform/octa/src/i2c.c ****     Error_Handler();
 163:../../core/platform/octa/src/i2c.c ****   }
 164:../../core/platform/octa/src/i2c.c ****   /**Configure Digital filter 
ARM GAS  /tmp/ccl8HWcF.s 			page 10


 165:../../core/platform/octa/src/i2c.c ****   */
 166:../../core/platform/octa/src/i2c.c ****   if (HAL_I2CEx_ConfigDigitalFilter(&P3_I2C, 0) != HAL_OK)
 351              		.loc 1 166 0
 352 002e 0021     		movs	r1, #0
 353 0030 0648     		ldr	r0, .L39
 354 0032 FFF7FEFF 		bl	HAL_I2CEx_ConfigDigitalFilter
 355              	.LVL20:
 356 0036 30B9     		cbnz	r0, .L38
 357              	.L31:
 358 0038 08BD     		pop	{r3, pc}
 359              	.L36:
 360              	.LBB11:
 156:../../core/platform/octa/src/i2c.c ****   }
 361              		.loc 1 156 0
 362 003a FFF7FEFF 		bl	Error_Handler
 363              	.LVL21:
 364 003e F1E7     		b	.L32
 365              	.L37:
 366              	.LBE11:
 367              	.LBB12:
 162:../../core/platform/octa/src/i2c.c ****   }
 368              		.loc 1 162 0
 369 0040 FFF7FEFF 		bl	Error_Handler
 370              	.LVL22:
 371 0044 F3E7     		b	.L33
 372              	.L38:
 373              	.LBE12:
 374              	.LBB13:
 167:../../core/platform/octa/src/i2c.c ****   {
 168:../../core/platform/octa/src/i2c.c ****     Error_Handler();
 375              		.loc 1 168 0
 376 0046 FFF7FEFF 		bl	Error_Handler
 377              	.LVL23:
 378              	.LBE13:
 169:../../core/platform/octa/src/i2c.c ****   }
 170:../../core/platform/octa/src/i2c.c ****   /* USER CODE BEGIN I2C4_Init 2 */
 171:../../core/platform/octa/src/i2c.c **** 
 172:../../core/platform/octa/src/i2c.c ****   /* USER CODE END I2C4_Init 2 */
 173:../../core/platform/octa/src/i2c.c **** 
 174:../../core/platform/octa/src/i2c.c **** }...
 379              		.loc 1 174 0
 380 004a F5E7     		b	.L31
 381              	.L40:
 382              		.align	2
 383              	.L39:
 384 004c 00000000 		.word	P3_I2C
 385 0050 00840040 		.word	1073775616
 386 0054 261A1000 		.word	1055270
 387              		.cfi_endproc
 388              	.LFE126:
 390              		.comm	P3_I2C,76,4
 391              		.comm	P2_I2C,76,4
 392              		.comm	P1_I2C,76,4
 393              		.comm	common_I2C,76,4
 394              		.text
 395              	.Letext0:
 396              		.file 2 "/usr/include/newlib/machine/_default_types.h"
ARM GAS  /tmp/ccl8HWcF.s 			page 11


 397              		.file 3 "/usr/include/newlib/sys/_stdint.h"
 398              		.file 4 "../../core/ST/CMSIS/Include/core_cm4.h"
 399              		.file 5 "../../core/ST/CMSIS/Device/ST/STM32L4xx/Include/system_stm32l4xx.h"
 400              		.file 6 "../../core/ST/CMSIS/Device/ST/STM32L4xx/Include/stm32l496xx.h"
 401              		.file 7 "../../core/ST/STM32L4xx_HAL_Driver/Inc/stm32l4xx_hal_def.h"
 402              		.file 8 "../../core/ST/STM32L4xx_HAL_Driver/Inc/stm32l4xx_hal_dma.h"
 403              		.file 9 "../../core/ST/STM32L4xx_HAL_Driver/Inc/stm32l4xx_hal_i2c.h"
 404              		.file 10 "../../core/ST/STM32L4xx_HAL_Driver/Inc/stm32l4xx_hal.h"
 405              		.file 11 "../../core/platform/octa/inc/i2c.h"
 406              		.file 12 "../../core/ST/STM32L4xx_HAL_Driver/Inc/stm32l4xx_hal_i2c_ex.h"
ARM GAS  /tmp/ccl8HWcF.s 			page 12

