ARM GAS  /tmp/ccohrizc.s 			page 1


   1              		.cpu cortex-m4
   2              		.eabi_attribute 27, 1
   3              		.eabi_attribute 28, 1
   4              		.eabi_attribute 20, 1
   5              		.eabi_attribute 21, 1
   6              		.eabi_attribute 23, 3
   7              		.eabi_attribute 24, 1
   8              		.eabi_attribute 25, 1
   9              		.eabi_attribute 26, 1
  10              		.eabi_attribute 30, 1
  11              		.eabi_attribute 34, 1
  12              		.eabi_attribute 18, 4
  13              		.file	"iotproject.c"
  14              		.text
  15              	.Ltext0:
  16              		.cfi_sections	.debug_frame
  17              		.section	.text.main,"ax",%progbits
  18              		.align	1
  19              		.global	main
  20              		.syntax unified
  21              		.thumb
  22              		.thumb_func
  23              		.fpu fpv4-sp-d16
  25              	main:
  26              	.LFB130:
  27              		.file 1 "../../applications/iotproject/src/iotproject.c"
   1:../../applications/iotproject/src/iotproject.c **** #include "iotproject.h"
   2:../../applications/iotproject/src/iotproject.c **** int main(void) {
  28              		.loc 1 2 0
  29              		.cfi_startproc
  30              		@ Volatile: function does not return.
  31              		@ args = 0, pretend = 0, frame = 0
  32              		@ frame_needed = 0, uses_anonymous_args = 0
  33 0000 08B5     		push	{r3, lr}
  34              	.LCFI0:
  35              		.cfi_def_cfa_offset 8
  36              		.cfi_offset 3, -8
  37              		.cfi_offset 14, -4
   3:../../applications/iotproject/src/iotproject.c ****   HAL_Init();
  38              		.loc 1 3 0
  39 0002 FFF7FEFF 		bl	HAL_Init
  40              	.LVL0:
   4:../../applications/iotproject/src/iotproject.c ****   SystemClock_Config();
  41              		.loc 1 4 0
  42 0006 FFF7FEFF 		bl	SystemClock_Config
  43              	.LVL1:
   5:../../applications/iotproject/src/iotproject.c ****   Initialize_Platform();
  44              		.loc 1 5 0
  45 000a FFF7FEFF 		bl	Initialize_Platform
  46              	.LVL2:
   6:../../applications/iotproject/src/iotproject.c ****   Initialize_OS();
  47              		.loc 1 6 0
  48 000e FFF7FEFF 		bl	Initialize_OS
  49              	.LVL3:
   7:../../applications/iotproject/src/iotproject.c ****   Initialize_Sensors();
  50              		.loc 1 7 0
  51 0012 FFF7FEFF 		bl	Initialize_Sensors
ARM GAS  /tmp/ccohrizc.s 			page 2


  52              	.LVL4:
   8:../../applications/iotproject/src/iotproject.c ****   IWDG_feed(NULL);
  53              		.loc 1 8 0
  54 0016 0020     		movs	r0, #0
  55 0018 FFF7FEFF 		bl	IWDG_feed
  56              	.LVL5:
   9:../../applications/iotproject/src/iotproject.c ****   GSP30_setI2CInterface(&P1_I2C);
  57              		.loc 1 9 0
  58 001c 0848     		ldr	r0, .L4
  59 001e FFF7FEFF 		bl	GSP30_setI2CInterface
  60              	.LVL6:
  10:../../applications/iotproject/src/iotproject.c ****   HAL_Delay(1000);
  61              		.loc 1 10 0
  62 0022 4FF47A70 		mov	r0, #1000
  63 0026 FFF7FEFF 		bl	HAL_Delay
  64              	.LVL7:
  11:../../applications/iotproject/src/iotproject.c ****   GSP30_init();
  65              		.loc 1 11 0
  66 002a FFF7FEFF 		bl	GSP30_init
  67              	.LVL8:
  12:../../applications/iotproject/src/iotproject.c **** 
  13:../../applications/iotproject/src/iotproject.c ****   LorawanInit();
  68              		.loc 1 13 0
  69 002e FFF7FEFF 		bl	LorawanInit
  70              	.LVL9:
  14:../../applications/iotproject/src/iotproject.c ****   osKernelStart();
  71              		.loc 1 14 0
  72 0032 FFF7FEFF 		bl	osKernelStart
  73              	.LVL10:
  74              	.L2:
  15:../../applications/iotproject/src/iotproject.c ****   while (1) {
  16:../../applications/iotproject/src/iotproject.c ****     printf("ERROR Kernel Meltdown!\n\r");
  75              		.loc 1 16 0 discriminator 1
  76 0036 0348     		ldr	r0, .L4+4
  77 0038 FFF7FEFF 		bl	printf
  78              	.LVL11:
  79 003c FBE7     		b	.L2
  80              	.L5:
  81 003e 00BF     		.align	2
  82              	.L4:
  83 0040 00000000 		.word	P1_I2C
  84 0044 00000000 		.word	.LC0
  85              		.cfi_endproc
  86              	.LFE130:
  88              		.comm	SHTData,8,4
  89              		.comm	acc_int,1,1
  90              		.comm	murata_rx_process_mutex_id,4,4
  91              		.comm	txMutexId,4,4
  92              		.comm	i2cMutexId,4,4
  93              		.comm	GSPTimId,4,4
  94              		.comm	moduleCheckTimId,4,4
  95              		.comm	loraWANTimId,4,4
  96              		.comm	murata_rx_processing_handle,4,4
  97              		.comm	GSPmeasuerTaskHandle,4,4
  98              		.comm	defaultTaskHandle,4,4
  99              		.comm	temp,4,4
 100              		.comm	humidity,4,4
ARM GAS  /tmp/ccohrizc.s 			page 3


 101              		.comm	_i2caddr,1,1
 102              		.comm	SHThi2cLib,4,4
 103              		.comm	magRawData,6,4
 104              		.comm	magRegisterData,6,4
 105              		.comm	accRawData,6,4
 106              		.comm	accRegisterData,6,4
 107              		.comm	LSM303AGR_hi2c,4,4
 108              		.comm	LSM303AGR_setting,1,1
 109              		.comm	threadToNotify,4,4
 110              		.comm	murata_reset_pin,4,4
 111              		.comm	murata_wakeup_pin,4,4
 112              		.comm	P3_header,44,4
 113              		.comm	P2_header,44,4
 114              		.comm	P1_header,44,4
 115              		.comm	FLASH_SPI,100,4
 116              		.comm	P3_SPI,100,4
 117              		.comm	P2_SPI,100,4
 118              		.comm	P1_SPI,100,4
 119              		.comm	P3_I2C,76,4
 120              		.comm	P2_I2C,76,4
 121              		.comm	P1_I2C,76,4
 122              		.comm	common_I2C,76,4
 123              		.comm	P3_UART,120,4
 124              		.comm	P2_UART,120,4
 125              		.comm	P1_UART,120,4
 126              		.comm	BLE_UART,120,4
 127              		.comm	USB_UART,120,4
 128              		.comm	hiwdg,16,4
 129              		.comm	P3_DIO6,8,4
 130              		.comm	P3_DIO5,8,4
 131              		.comm	P3_DIO4,8,4
 132              		.comm	P3_DIO3,8,4
 133              		.comm	P3_DIO2,8,4
 134              		.comm	P3_DIO1,8,4
 135              		.comm	P2_DIO6,8,4
 136              		.comm	P2_DIO5,8,4
 137              		.comm	P2_DIO4,8,4
 138              		.comm	P2_DIO3,8,4
 139              		.comm	P2_DIO2,8,4
 140              		.comm	P2_DIO1,8,4
 141              		.comm	P1_DIO6,8,4
 142              		.comm	P1_DIO5,8,4
 143              		.comm	P1_DIO4,8,4
 144              		.comm	P1_DIO3,8,4
 145              		.comm	P1_DIO2,8,4
 146              		.comm	P1_DIO1,8,4
 147              		.section	.rodata.main.str1.4,"aMS",%progbits,1
 148              		.align	2
 149              	.LC0:
 150 0000 4552524F 		.ascii	"ERROR Kernel Meltdown!\012\015\000"
 150      52204B65 
 150      726E656C 
 150      204D656C 
 150      74646F77 
 151              		.weak	SystemClock_Config
 152              		.text
 153              	.Letext0:
ARM GAS  /tmp/ccohrizc.s 			page 4


 154              		.file 2 "/usr/include/newlib/machine/_default_types.h"
 155              		.file 3 "/usr/include/newlib/sys/lock.h"
 156              		.file 4 "/usr/include/newlib/sys/_types.h"
 157              		.file 5 "/usr/lib/gcc/arm-none-eabi/6.3.1/include/stddef.h"
 158              		.file 6 "/usr/include/newlib/sys/reent.h"
 159              		.file 7 "/usr/include/newlib/sys/_stdint.h"
 160              		.file 8 "../../core/ST/CMSIS/Include/core_cm4.h"
 161              		.file 9 "../../core/ST/CMSIS/Device/ST/STM32L4xx/Include/system_stm32l4xx.h"
 162              		.file 10 "../../core/ST/CMSIS/Device/ST/STM32L4xx/Include/stm32l496xx.h"
 163              		.file 11 "../../core/ST/STM32L4xx_HAL_Driver/Inc/stm32l4xx_hal_def.h"
 164              		.file 12 "../../core/ST/STM32L4xx_HAL_Driver/Inc/stm32l4xx_hal_dma.h"
 165              		.file 13 "../../core/ST/STM32L4xx_HAL_Driver/Inc/stm32l4xx_hal_i2c.h"
 166              		.file 14 "../../core/ST/STM32L4xx_HAL_Driver/Inc/stm32l4xx_hal_iwdg.h"
 167              		.file 15 "../../core/ST/STM32L4xx_HAL_Driver/Inc/stm32l4xx_hal_spi.h"
 168              		.file 16 "../../core/ST/STM32L4xx_HAL_Driver/Inc/stm32l4xx_hal_uart.h"
 169              		.file 17 "../../core/ST/STM32L4xx_HAL_Driver/Inc/stm32l4xx_hal.h"
 170              		.file 18 "../../core/ST/Middlewares/Third_Party/FreeRTOS/Source/include/task.h"
 171              		.file 19 "../../core/ST/Middlewares/Third_Party/FreeRTOS/Source/include/timers.h"
 172              		.file 20 "../../core/ST/Middlewares/Third_Party/FreeRTOS/Source/include/queue.h"
 173              		.file 21 "../../core/ST/Middlewares/Third_Party/FreeRTOS/Source/include/semphr.h"
 174              		.file 22 "../../core/ST/Middlewares/Third_Party/FreeRTOS/Source/CMSIS_RTOS/cmsis_os.h"
 175              		.file 23 "../../core/platform/octa/inc/gpio.h"
 176              		.file 24 "../../core/platform/octa/inc/iwdg.h"
 177              		.file 25 "../../core/platform/octa/inc/uart.h"
 178              		.file 26 "../../core/platform/octa/inc/i2c.h"
 179              		.file 27 "../../core/platform/octa/inc/spi.h"
 180              		.file 28 "../../core/platform/octa/inc/octa.h"
 181              		.file 29 "../../shields/Murata/inc/murata.h"
 182              		.file 30 "../../core/drivers/LSM303AGR/inc/LSM303AGRSensor.h"
 183              		.file 31 "../../core/drivers/SHT31/inc/sht31.h"
 184              		.file 32 "../../applications/iotproject/inc/iotproject.h"
 185              		.file 33 "../../core/platform/octa/inc/sysclock.h"
 186              		.file 34 "../../core/platform/common/inc/platform.h"
 187              		.file 35 "/usr/include/newlib/stdio.h"
ARM GAS  /tmp/ccohrizc.s 			page 5


DEFINED SYMBOLS
                            *ABS*:0000000000000000 iotproject.c
     /tmp/ccohrizc.s:18     .text.main:0000000000000000 $t
     /tmp/ccohrizc.s:25     .text.main:0000000000000000 main
     /tmp/ccohrizc.s:83     .text.main:0000000000000040 $d
                            *COM*:000000000000004c P1_I2C
                            *COM*:0000000000000008 SHTData
                            *COM*:0000000000000001 acc_int
                            *COM*:0000000000000004 murata_rx_process_mutex_id
                            *COM*:0000000000000004 txMutexId
                            *COM*:0000000000000004 i2cMutexId
                            *COM*:0000000000000004 GSPTimId
                            *COM*:0000000000000004 moduleCheckTimId
                            *COM*:0000000000000004 loraWANTimId
                            *COM*:0000000000000004 murata_rx_processing_handle
                            *COM*:0000000000000004 GSPmeasuerTaskHandle
                            *COM*:0000000000000004 defaultTaskHandle
                            *COM*:0000000000000004 temp
                            *COM*:0000000000000004 humidity
                            *COM*:0000000000000001 _i2caddr
                            *COM*:0000000000000004 SHThi2cLib
                            *COM*:0000000000000006 magRawData
                            *COM*:0000000000000006 magRegisterData
                            *COM*:0000000000000006 accRawData
                            *COM*:0000000000000006 accRegisterData
                            *COM*:0000000000000004 LSM303AGR_hi2c
                            *COM*:0000000000000001 LSM303AGR_setting
                            *COM*:0000000000000004 threadToNotify
                            *COM*:0000000000000004 murata_reset_pin
                            *COM*:0000000000000004 murata_wakeup_pin
                            *COM*:000000000000002c P3_header
                            *COM*:000000000000002c P2_header
                            *COM*:000000000000002c P1_header
                            *COM*:0000000000000064 FLASH_SPI
                            *COM*:0000000000000064 P3_SPI
                            *COM*:0000000000000064 P2_SPI
                            *COM*:0000000000000064 P1_SPI
                            *COM*:000000000000004c P3_I2C
                            *COM*:000000000000004c P2_I2C
                            *COM*:000000000000004c common_I2C
                            *COM*:0000000000000078 P3_UART
                            *COM*:0000000000000078 P2_UART
                            *COM*:0000000000000078 P1_UART
                            *COM*:0000000000000078 BLE_UART
                            *COM*:0000000000000078 USB_UART
                            *COM*:0000000000000010 hiwdg
                            *COM*:0000000000000008 P3_DIO6
                            *COM*:0000000000000008 P3_DIO5
                            *COM*:0000000000000008 P3_DIO4
                            *COM*:0000000000000008 P3_DIO3
                            *COM*:0000000000000008 P3_DIO2
                            *COM*:0000000000000008 P3_DIO1
                            *COM*:0000000000000008 P2_DIO6
                            *COM*:0000000000000008 P2_DIO5
                            *COM*:0000000000000008 P2_DIO4
                            *COM*:0000000000000008 P2_DIO3
                            *COM*:0000000000000008 P2_DIO2
ARM GAS  /tmp/ccohrizc.s 			page 6


                            *COM*:0000000000000008 P2_DIO1
                            *COM*:0000000000000008 P1_DIO6
                            *COM*:0000000000000008 P1_DIO5
                            *COM*:0000000000000008 P1_DIO4
                            *COM*:0000000000000008 P1_DIO3
                            *COM*:0000000000000008 P1_DIO2
                            *COM*:0000000000000008 P1_DIO1
     /tmp/ccohrizc.s:148    .rodata.main.str1.4:0000000000000000 $d
                     .debug_frame:0000000000000010 $d

UNDEFINED SYMBOLS
HAL_Init
SystemClock_Config
Initialize_Platform
Initialize_OS
Initialize_Sensors
IWDG_feed
GSP30_setI2CInterface
HAL_Delay
GSP30_init
LorawanInit
osKernelStart
printf
