ARM GAS  C:\Users\RUBENJ~1\AppData\Local\Temp\ccZJq1Pt.s 			page 1


   1              		.cpu cortex-m4
   2              		.eabi_attribute 27, 1
   3              		.eabi_attribute 28, 1
   4              		.eabi_attribute 20, 1
   5              		.eabi_attribute 21, 1
   6              		.eabi_attribute 23, 3
   7              		.eabi_attribute 24, 1
   8              		.eabi_attribute 25, 1
   9              		.eabi_attribute 26, 1
  10              		.eabi_attribute 30, 1
  11              		.eabi_attribute 34, 1
  12              		.eabi_attribute 18, 4
  13              		.file	"sgp30.c"
  14              		.text
  15              	.Ltext0:
  16              		.cfi_sections	.debug_frame
  17              		.section	.text.sgp_get_profile_by_number,"ax",%progbits
  18              		.align	1
  19              		.arch armv7e-m
  20              		.syntax unified
  21              		.thumb
  22              		.thumb_func
  23              		.fpu fpv4-sp-d16
  25              	sgp_get_profile_by_number:
  26              	.LVL0:
  27              	.LFB129:
  28              		.file 1 "../../applications/SPG30-sensor-example/src/sgp30.c"
   1:../../applications/SPG30-sensor-example/src/sgp30.c **** /*
   2:../../applications/SPG30-sensor-example/src/sgp30.c ****  * Copyright (c) 2017, Sensirion AG
   3:../../applications/SPG30-sensor-example/src/sgp30.c ****  * All rights reserved.
   4:../../applications/SPG30-sensor-example/src/sgp30.c ****  *
   5:../../applications/SPG30-sensor-example/src/sgp30.c ****  * Redistribution and use in source and binary forms, with or without
   6:../../applications/SPG30-sensor-example/src/sgp30.c ****  * modification, are permitted provided that the following conditions are met:
   7:../../applications/SPG30-sensor-example/src/sgp30.c ****  *
   8:../../applications/SPG30-sensor-example/src/sgp30.c ****  * * Redistributions of source code must retain the above copyright notice, this
   9:../../applications/SPG30-sensor-example/src/sgp30.c ****  *   list of conditions and the following disclaimer.
  10:../../applications/SPG30-sensor-example/src/sgp30.c ****  *
  11:../../applications/SPG30-sensor-example/src/sgp30.c ****  * * Redistributions in binary form must reproduce the above copyright notice,
  12:../../applications/SPG30-sensor-example/src/sgp30.c ****  *   this list of conditions and the following disclaimer in the documentation
  13:../../applications/SPG30-sensor-example/src/sgp30.c ****  *   and/or other materials provided with the distribution.
  14:../../applications/SPG30-sensor-example/src/sgp30.c ****  *
  15:../../applications/SPG30-sensor-example/src/sgp30.c ****  * * Neither the name of Sensirion AG nor the names of its
  16:../../applications/SPG30-sensor-example/src/sgp30.c ****  *   contributors may be used to endorse or promote products derived from
  17:../../applications/SPG30-sensor-example/src/sgp30.c ****  *   this software without specific prior written permission.
  18:../../applications/SPG30-sensor-example/src/sgp30.c ****  *
  19:../../applications/SPG30-sensor-example/src/sgp30.c ****  * THIS SOFTWARE IS PROVIDED BY THE COPYRIGHT HOLDERS AND CONTRIBUTORS "AS IS"
  20:../../applications/SPG30-sensor-example/src/sgp30.c ****  * AND ANY EXPRESS OR IMPLIED WARRANTIES, INCLUDING, BUT NOT LIMITED TO, THE
  21:../../applications/SPG30-sensor-example/src/sgp30.c ****  * IMPLIED WARRANTIES OF MERCHANTABILITY AND FITNESS FOR A PARTICULAR PURPOSE ARE
  22:../../applications/SPG30-sensor-example/src/sgp30.c ****  * DISCLAIMED. IN NO EVENT SHALL THE COPYRIGHT HOLDER OR CONTRIBUTORS BE LIABLE
  23:../../applications/SPG30-sensor-example/src/sgp30.c ****  * FOR ANY DIRECT, INDIRECT, INCIDENTAL, SPECIAL, EXEMPLARY, OR CONSEQUENTIAL
  24:../../applications/SPG30-sensor-example/src/sgp30.c ****  * DAMAGES (INCLUDING, BUT NOT LIMITED TO, PROCUREMENT OF SUBSTITUTE GOODS OR
  25:../../applications/SPG30-sensor-example/src/sgp30.c ****  * SERVICES; LOSS OF USE, DATA, OR PROFITS; OR BUSINESS INTERRUPTION) HOWEVER
  26:../../applications/SPG30-sensor-example/src/sgp30.c ****  * CAUSED AND ON ANY THEORY OF LIABILITY, WHETHER IN CONTRACT, STRICT LIABILITY,
  27:../../applications/SPG30-sensor-example/src/sgp30.c ****  * OR TORT (INCLUDING NEGLIGENCE OR OTHERWISE) ARISING IN ANY WAY OUT OF THE USE
  28:../../applications/SPG30-sensor-example/src/sgp30.c ****  * OF THIS SOFTWARE, EVEN IF ADVISED OF THE POSSIBILITY OF SUCH DAMAGE.
  29:../../applications/SPG30-sensor-example/src/sgp30.c ****  */
  30:../../applications/SPG30-sensor-example/src/sgp30.c **** 
ARM GAS  C:\Users\RUBENJ~1\AppData\Local\Temp\ccZJq1Pt.s 			page 2


  31:../../applications/SPG30-sensor-example/src/sgp30.c **** #include "i2c.h"
  32:../../applications/SPG30-sensor-example/src/sgp30.c **** #include "sensirion_configuration.h"
  33:../../applications/SPG30-sensor-example/src/sgp30.c **** #include "sensirion_common.h"
  34:../../applications/SPG30-sensor-example/src/sgp30.c **** #include "sgp_featureset.h"
  35:../../applications/SPG30-sensor-example/src/sgp30.c **** #include "sgp30.h"
  36:../../applications/SPG30-sensor-example/src/sgp30.c **** 
  37:../../applications/SPG30-sensor-example/src/sgp30.c **** 
  38:../../applications/SPG30-sensor-example/src/sgp30.c **** #define SGP_DRV_VERSION_STR             "2.2.2"
  39:../../applications/SPG30-sensor-example/src/sgp30.c **** #define SGP_RAM_WORDS                   512
  40:../../applications/SPG30-sensor-example/src/sgp30.c **** #define SGP_BUFFER_SIZE                 ((SGP_RAM_WORDS + 2) * \
  41:../../applications/SPG30-sensor-example/src/sgp30.c ****                                          (SGP_WORD_LEN + CRC8_LEN))
  42:../../applications/SPG30-sensor-example/src/sgp30.c **** #define SGP_BUFFER_WORDS                (SGP_BUFFER_SIZE / SGP_WORD_LEN)
  43:../../applications/SPG30-sensor-example/src/sgp30.c **** #define SGP_MAX_PROFILE_RET_LEN         1024
  44:../../applications/SPG30-sensor-example/src/sgp30.c **** #define SGP_VALID_IAQ_BASELINE(b)       ((b) != 0)
  45:../../applications/SPG30-sensor-example/src/sgp30.c **** /**
  46:../../applications/SPG30-sensor-example/src/sgp30.c ****  * Check if chip featureset is compatible with driver featureset:
  47:../../applications/SPG30-sensor-example/src/sgp30.c ****  * Check product type mask 0xF000,
  48:../../applications/SPG30-sensor-example/src/sgp30.c ****  * ignore reserved bits    0x0E00,
  49:../../applications/SPG30-sensor-example/src/sgp30.c ****  * eng. bit not set        0x0100,
  50:../../applications/SPG30-sensor-example/src/sgp30.c ****  * major version matches   0x00E0,
  51:../../applications/SPG30-sensor-example/src/sgp30.c ****  * ignore minor version    0x001F if major version > 0 */
  52:../../applications/SPG30-sensor-example/src/sgp30.c **** #define SGP_FS_COMPAT(chip_fs, drv_fs)  ( \
  53:../../applications/SPG30-sensor-example/src/sgp30.c ****         ( /* major version > 0, ignore minor version */ \
  54:../../applications/SPG30-sensor-example/src/sgp30.c ****           (((drv_fs) & 0x00E0) > 0) && \
  55:../../applications/SPG30-sensor-example/src/sgp30.c ****           (((chip_fs) & 0xF1E0) == ((drv_fs) & 0xF1E0)) \
  56:../../applications/SPG30-sensor-example/src/sgp30.c ****         ) || \
  57:../../applications/SPG30-sensor-example/src/sgp30.c ****         ( /* major version == 0, check for minor version match */ \
  58:../../applications/SPG30-sensor-example/src/sgp30.c ****           (((drv_fs) & 0x00E0) == 0) && \
  59:../../applications/SPG30-sensor-example/src/sgp30.c ****           (((chip_fs) & 0xF1FF) == ((drv_fs) & 0xF1FF)) \
  60:../../applications/SPG30-sensor-example/src/sgp30.c ****         ))
  61:../../applications/SPG30-sensor-example/src/sgp30.c **** 
  62:../../applications/SPG30-sensor-example/src/sgp30.c **** #ifdef SGP_ADDRESS
  63:../../applications/SPG30-sensor-example/src/sgp30.c **** static const uint8_t SGP_I2C_ADDRESS = SGP_ADDRESS;
  64:../../applications/SPG30-sensor-example/src/sgp30.c **** #else
  65:../../applications/SPG30-sensor-example/src/sgp30.c **** static const uint8_t SGP_I2C_ADDRESS = 0x58;
  66:../../applications/SPG30-sensor-example/src/sgp30.c **** #endif
  67:../../applications/SPG30-sensor-example/src/sgp30.c **** 
  68:../../applications/SPG30-sensor-example/src/sgp30.c **** /* command and constants for reading the serial ID */
  69:../../applications/SPG30-sensor-example/src/sgp30.c **** #define SGP_CMD_GET_SERIAL_ID_DURATION_US   500
  70:../../applications/SPG30-sensor-example/src/sgp30.c **** #define SGP_CMD_GET_SERIAL_ID_WORDS         2
  71:../../applications/SPG30-sensor-example/src/sgp30.c **** static const sgp_command sgp_cmd_get_serial_id = {
  72:../../applications/SPG30-sensor-example/src/sgp30.c ****     .buf = {0x36, 0x82}
  73:../../applications/SPG30-sensor-example/src/sgp30.c **** };
  74:../../applications/SPG30-sensor-example/src/sgp30.c **** 
  75:../../applications/SPG30-sensor-example/src/sgp30.c **** /* command and constants for reading the featureset version */
  76:../../applications/SPG30-sensor-example/src/sgp30.c **** #define SGP_CMD_GET_FEATURESET_DURATION_US  1000
  77:../../applications/SPG30-sensor-example/src/sgp30.c **** #define SGP_CMD_GET_FEATURESET_WORDS        1
  78:../../applications/SPG30-sensor-example/src/sgp30.c **** static const sgp_command sgp_cmd_get_featureset = {
  79:../../applications/SPG30-sensor-example/src/sgp30.c ****     .buf = {0x20, 0x2f}
  80:../../applications/SPG30-sensor-example/src/sgp30.c **** };
  81:../../applications/SPG30-sensor-example/src/sgp30.c **** 
  82:../../applications/SPG30-sensor-example/src/sgp30.c **** /* command and constants for on-chip self-test */
  83:../../applications/SPG30-sensor-example/src/sgp30.c **** #define SGP_CMD_MEASURE_TEST_DURATION_US    220000
  84:../../applications/SPG30-sensor-example/src/sgp30.c **** #define SGP_CMD_MEASURE_TEST_WORDS          1
  85:../../applications/SPG30-sensor-example/src/sgp30.c **** #define SGP_CMD_MEASURE_TEST_OK             0xd400
  86:../../applications/SPG30-sensor-example/src/sgp30.c **** static const sgp_command sgp_cmd_measure_test = {
  87:../../applications/SPG30-sensor-example/src/sgp30.c ****     .buf = {0x20, 0x32}
ARM GAS  C:\Users\RUBENJ~1\AppData\Local\Temp\ccZJq1Pt.s 			page 3


  88:../../applications/SPG30-sensor-example/src/sgp30.c **** };
  89:../../applications/SPG30-sensor-example/src/sgp30.c **** 
  90:../../applications/SPG30-sensor-example/src/sgp30.c **** static const struct sgp_otp_featureset sgp_features_unknown = {
  91:../../applications/SPG30-sensor-example/src/sgp30.c ****     .profiles = NULL,
  92:../../applications/SPG30-sensor-example/src/sgp30.c ****     .number_of_profiles = 0,
  93:../../applications/SPG30-sensor-example/src/sgp30.c **** };
  94:../../applications/SPG30-sensor-example/src/sgp30.c **** 
  95:../../applications/SPG30-sensor-example/src/sgp30.c **** enum sgp_state_code {
  96:../../applications/SPG30-sensor-example/src/sgp30.c ****     WAIT_STATE,
  97:../../applications/SPG30-sensor-example/src/sgp30.c ****     MEASURING_PROFILE_STATE
  98:../../applications/SPG30-sensor-example/src/sgp30.c **** };
  99:../../applications/SPG30-sensor-example/src/sgp30.c **** 
 100:../../applications/SPG30-sensor-example/src/sgp30.c **** struct sgp_info {
 101:../../applications/SPG30-sensor-example/src/sgp30.c ****     u64 serial_id;
 102:../../applications/SPG30-sensor-example/src/sgp30.c ****     u16 feature_set_version;
 103:../../applications/SPG30-sensor-example/src/sgp30.c **** };
 104:../../applications/SPG30-sensor-example/src/sgp30.c **** 
 105:../../applications/SPG30-sensor-example/src/sgp30.c **** static struct sgp_data {
 106:../../applications/SPG30-sensor-example/src/sgp30.c ****     enum sgp_state_code current_state;
 107:../../applications/SPG30-sensor-example/src/sgp30.c ****     struct sgp_info info;
 108:../../applications/SPG30-sensor-example/src/sgp30.c ****     const struct sgp_otp_featureset *otp_features;
 109:../../applications/SPG30-sensor-example/src/sgp30.c ****     u16 word_buf[SGP_BUFFER_WORDS];
 110:../../applications/SPG30-sensor-example/src/sgp30.c **** } client_data;
 111:../../applications/SPG30-sensor-example/src/sgp30.c **** 
 112:../../applications/SPG30-sensor-example/src/sgp30.c **** 
 113:../../applications/SPG30-sensor-example/src/sgp30.c **** /**
 114:../../applications/SPG30-sensor-example/src/sgp30.c ****  * sgp_i2c_read_words() - read data words from SGP sensor
 115:../../applications/SPG30-sensor-example/src/sgp30.c ****  * @data:       Allocated buffer to store the read data.
 116:../../applications/SPG30-sensor-example/src/sgp30.c ****  *              The buffer may also have been modified on STATUS_FAIL return.
 117:../../applications/SPG30-sensor-example/src/sgp30.c ****  * @data_words: Number of data words to read (without CRC bytes)
 118:../../applications/SPG30-sensor-example/src/sgp30.c ****  *
 119:../../applications/SPG30-sensor-example/src/sgp30.c ****  * Return:      STATUS_OK on success, STATUS_FAIL otherwise
 120:../../applications/SPG30-sensor-example/src/sgp30.c ****  */
 121:../../applications/SPG30-sensor-example/src/sgp30.c **** static s16 sgp_i2c_read_words(u16 *data, u16 data_words) {
 122:../../applications/SPG30-sensor-example/src/sgp30.c ****     s16 ret;
 123:../../applications/SPG30-sensor-example/src/sgp30.c ****     u16 i, j;
 124:../../applications/SPG30-sensor-example/src/sgp30.c ****     u16 size = data_words * (SGP_WORD_LEN + CRC8_LEN);
 125:../../applications/SPG30-sensor-example/src/sgp30.c ****     u16 word_buf[SGP_MAX_PROFILE_RET_LEN / sizeof(u16)];
 126:../../applications/SPG30-sensor-example/src/sgp30.c ****     u8 * const buf8 = (u8 *)word_buf;
 127:../../applications/SPG30-sensor-example/src/sgp30.c **** 
 128:../../applications/SPG30-sensor-example/src/sgp30.c ****     ret = sensirion_i2c_read(SGP_I2C_ADDRESS, buf8, size);
 129:../../applications/SPG30-sensor-example/src/sgp30.c **** 
 130:../../applications/SPG30-sensor-example/src/sgp30.c ****     if (ret != 0)
 131:../../applications/SPG30-sensor-example/src/sgp30.c ****         return STATUS_FAIL;
 132:../../applications/SPG30-sensor-example/src/sgp30.c **** 
 133:../../applications/SPG30-sensor-example/src/sgp30.c ****     /* check the CRC for each word */
 134:../../applications/SPG30-sensor-example/src/sgp30.c ****     for (i = 0, j = 0;
 135:../../applications/SPG30-sensor-example/src/sgp30.c ****          i < size;
 136:../../applications/SPG30-sensor-example/src/sgp30.c ****          i += SGP_WORD_LEN + CRC8_LEN, j += SGP_WORD_LEN) {
 137:../../applications/SPG30-sensor-example/src/sgp30.c **** 
 138:../../applications/SPG30-sensor-example/src/sgp30.c ****         if (sensirion_common_check_crc(&buf8[i], SGP_WORD_LEN,
 139:../../applications/SPG30-sensor-example/src/sgp30.c ****                                        buf8[i + SGP_WORD_LEN]) == STATUS_FAIL) {
 140:../../applications/SPG30-sensor-example/src/sgp30.c ****             return STATUS_FAIL;
 141:../../applications/SPG30-sensor-example/src/sgp30.c ****         }
 142:../../applications/SPG30-sensor-example/src/sgp30.c ****         ((u8 *)data)[j]     = buf8[i];
 143:../../applications/SPG30-sensor-example/src/sgp30.c ****         ((u8 *)data)[j + 1] = buf8[i + 1];
 144:../../applications/SPG30-sensor-example/src/sgp30.c ****     }
ARM GAS  C:\Users\RUBENJ~1\AppData\Local\Temp\ccZJq1Pt.s 			page 4


 145:../../applications/SPG30-sensor-example/src/sgp30.c **** 
 146:../../applications/SPG30-sensor-example/src/sgp30.c ****     return STATUS_OK;
 147:../../applications/SPG30-sensor-example/src/sgp30.c **** }
 148:../../applications/SPG30-sensor-example/src/sgp30.c **** 
 149:../../applications/SPG30-sensor-example/src/sgp30.c **** 
 150:../../applications/SPG30-sensor-example/src/sgp30.c **** /**
 151:../../applications/SPG30-sensor-example/src/sgp30.c ****  * sgp_i2c_write() - writes to the SGP sensor
 152:../../applications/SPG30-sensor-example/src/sgp30.c ****  * @command:     Command
 153:../../applications/SPG30-sensor-example/src/sgp30.c ****  *
 154:../../applications/SPG30-sensor-example/src/sgp30.c ****  * Return:      STATUS_OK on success.
 155:../../applications/SPG30-sensor-example/src/sgp30.c ****  */
 156:../../applications/SPG30-sensor-example/src/sgp30.c **** static s16 sgp_i2c_write(const sgp_command *command) {
 157:../../applications/SPG30-sensor-example/src/sgp30.c ****     s8 ret;
 158:../../applications/SPG30-sensor-example/src/sgp30.c **** 
 159:../../applications/SPG30-sensor-example/src/sgp30.c ****     ret = sensirion_i2c_write(SGP_I2C_ADDRESS, command->buf, SGP_COMMAND_LEN);
 160:../../applications/SPG30-sensor-example/src/sgp30.c ****     if (ret != 0)
 161:../../applications/SPG30-sensor-example/src/sgp30.c ****         return STATUS_FAIL;
 162:../../applications/SPG30-sensor-example/src/sgp30.c **** 
 163:../../applications/SPG30-sensor-example/src/sgp30.c ****     return STATUS_OK;
 164:../../applications/SPG30-sensor-example/src/sgp30.c **** }
 165:../../applications/SPG30-sensor-example/src/sgp30.c **** 
 166:../../applications/SPG30-sensor-example/src/sgp30.c **** 
 167:../../applications/SPG30-sensor-example/src/sgp30.c **** /**
 168:../../applications/SPG30-sensor-example/src/sgp30.c ****  * unpack_signals() - unpack signals which are stored in client_data.word_buf
 169:../../applications/SPG30-sensor-example/src/sgp30.c ****  * @profile:    The profile
 170:../../applications/SPG30-sensor-example/src/sgp30.c ****  */
 171:../../applications/SPG30-sensor-example/src/sgp30.c **** static void unpack_signals(const struct sgp_profile *profile) {
 172:../../applications/SPG30-sensor-example/src/sgp30.c ****     s16 i, j;
 173:../../applications/SPG30-sensor-example/src/sgp30.c ****     const struct sgp_signal *signal;
 174:../../applications/SPG30-sensor-example/src/sgp30.c ****     u16 data_words = profile->number_of_signals;
 175:../../applications/SPG30-sensor-example/src/sgp30.c ****     u16 word_buf[data_words];
 176:../../applications/SPG30-sensor-example/src/sgp30.c ****     u16 value;
 177:../../applications/SPG30-sensor-example/src/sgp30.c **** 
 178:../../applications/SPG30-sensor-example/src/sgp30.c ****     /* copy buffer */
 179:../../applications/SPG30-sensor-example/src/sgp30.c ****     for (i = 0; i < data_words; i++)
 180:../../applications/SPG30-sensor-example/src/sgp30.c ****         word_buf[i] = client_data.word_buf[i];
 181:../../applications/SPG30-sensor-example/src/sgp30.c **** 
 182:../../applications/SPG30-sensor-example/src/sgp30.c ****     /* signals are in reverse order in the data buffer */
 183:../../applications/SPG30-sensor-example/src/sgp30.c ****     for (i = profile->number_of_signals - 1, j = 0; i >= 0; i -= 1, j += 1) {
 184:../../applications/SPG30-sensor-example/src/sgp30.c ****         signal = profile->signals[profile->number_of_signals - i - 1];
 185:../../applications/SPG30-sensor-example/src/sgp30.c ****         value = be16_to_cpu(word_buf[i]);
 186:../../applications/SPG30-sensor-example/src/sgp30.c **** 
 187:../../applications/SPG30-sensor-example/src/sgp30.c ****         if (signal->conversion_function != NULL)
 188:../../applications/SPG30-sensor-example/src/sgp30.c ****             client_data.word_buf[j] = signal->conversion_function(value);
 189:../../applications/SPG30-sensor-example/src/sgp30.c ****         else
 190:../../applications/SPG30-sensor-example/src/sgp30.c ****             client_data.word_buf[j] = value;
 191:../../applications/SPG30-sensor-example/src/sgp30.c ****     }
 192:../../applications/SPG30-sensor-example/src/sgp30.c **** }
 193:../../applications/SPG30-sensor-example/src/sgp30.c **** 
 194:../../applications/SPG30-sensor-example/src/sgp30.c **** /**
 195:../../applications/SPG30-sensor-example/src/sgp30.c ****  * read_measurement() - reads the result of a profile measurement
 196:../../applications/SPG30-sensor-example/src/sgp30.c ****  *
 197:../../applications/SPG30-sensor-example/src/sgp30.c ****  * Return:  Length of the written data to the buffer. Negative if it fails.
 198:../../applications/SPG30-sensor-example/src/sgp30.c ****  */
 199:../../applications/SPG30-sensor-example/src/sgp30.c **** static s16 read_measurement(const struct sgp_profile *profile) {
 200:../../applications/SPG30-sensor-example/src/sgp30.c **** 
 201:../../applications/SPG30-sensor-example/src/sgp30.c ****     s16 ret;
ARM GAS  C:\Users\RUBENJ~1\AppData\Local\Temp\ccZJq1Pt.s 			page 5


 202:../../applications/SPG30-sensor-example/src/sgp30.c **** 
 203:../../applications/SPG30-sensor-example/src/sgp30.c ****     switch (client_data.current_state) {
 204:../../applications/SPG30-sensor-example/src/sgp30.c **** 
 205:../../applications/SPG30-sensor-example/src/sgp30.c ****         case MEASURING_PROFILE_STATE:
 206:../../applications/SPG30-sensor-example/src/sgp30.c ****             ret = sgp_i2c_read_words(client_data.word_buf,
 207:../../applications/SPG30-sensor-example/src/sgp30.c ****                                      profile->number_of_signals);
 208:../../applications/SPG30-sensor-example/src/sgp30.c **** 
 209:../../applications/SPG30-sensor-example/src/sgp30.c ****             if (ret)
 210:../../applications/SPG30-sensor-example/src/sgp30.c ****                 /* Measurement in progress */
 211:../../applications/SPG30-sensor-example/src/sgp30.c ****                 return STATUS_FAIL;
 212:../../applications/SPG30-sensor-example/src/sgp30.c **** 
 213:../../applications/SPG30-sensor-example/src/sgp30.c ****             unpack_signals(profile);
 214:../../applications/SPG30-sensor-example/src/sgp30.c ****             client_data.current_state = WAIT_STATE;
 215:../../applications/SPG30-sensor-example/src/sgp30.c **** 
 216:../../applications/SPG30-sensor-example/src/sgp30.c ****             return STATUS_OK;
 217:../../applications/SPG30-sensor-example/src/sgp30.c **** 
 218:../../applications/SPG30-sensor-example/src/sgp30.c ****         default:
 219:../../applications/SPG30-sensor-example/src/sgp30.c ****             /* No command issued */
 220:../../applications/SPG30-sensor-example/src/sgp30.c ****             return STATUS_FAIL;
 221:../../applications/SPG30-sensor-example/src/sgp30.c ****     }
 222:../../applications/SPG30-sensor-example/src/sgp30.c **** }
 223:../../applications/SPG30-sensor-example/src/sgp30.c **** 
 224:../../applications/SPG30-sensor-example/src/sgp30.c **** /**
 225:../../applications/SPG30-sensor-example/src/sgp30.c ****  * sgp_i2c_read_words_from_cmd() - reads data words from the SGP sensor after a
 226:../../applications/SPG30-sensor-example/src/sgp30.c ****  *                                 command has been issued
 227:../../applications/SPG30-sensor-example/src/sgp30.c ****  * @cmd:        Command
 228:../../applications/SPG30-sensor-example/src/sgp30.c ****  * @data_words: Allocated buffer to store the read data
 229:../../applications/SPG30-sensor-example/src/sgp30.c ****  * @num_words:  Data words to read (without CRC bytes)
 230:../../applications/SPG30-sensor-example/src/sgp30.c ****  *
 231:../../applications/SPG30-sensor-example/src/sgp30.c ****  * Return:      STATUS_OK on success, else STATUS_FAIL
 232:../../applications/SPG30-sensor-example/src/sgp30.c ****  */
 233:../../applications/SPG30-sensor-example/src/sgp30.c **** static s16 sgp_i2c_read_words_from_cmd(const sgp_command *cmd,
 234:../../applications/SPG30-sensor-example/src/sgp30.c ****                                        u32 duration_us,
 235:../../applications/SPG30-sensor-example/src/sgp30.c ****                                        u16 *data_words,
 236:../../applications/SPG30-sensor-example/src/sgp30.c ****                                        u16 num_words) {
 237:../../applications/SPG30-sensor-example/src/sgp30.c **** 
 238:../../applications/SPG30-sensor-example/src/sgp30.c ****     if (sgp_i2c_write(cmd) == STATUS_FAIL)
 239:../../applications/SPG30-sensor-example/src/sgp30.c ****         return STATUS_FAIL;
 240:../../applications/SPG30-sensor-example/src/sgp30.c **** 
 241:../../applications/SPG30-sensor-example/src/sgp30.c ****     /* the chip needs some time to write the data into the RAM */
 242:../../applications/SPG30-sensor-example/src/sgp30.c ****     sensirion_sleep_usec(duration_us);
 243:../../applications/SPG30-sensor-example/src/sgp30.c ****     return sgp_i2c_read_words(data_words, num_words);
 244:../../applications/SPG30-sensor-example/src/sgp30.c **** }
 245:../../applications/SPG30-sensor-example/src/sgp30.c **** 
 246:../../applications/SPG30-sensor-example/src/sgp30.c **** 
 247:../../applications/SPG30-sensor-example/src/sgp30.c **** /**
 248:../../applications/SPG30-sensor-example/src/sgp30.c ****  * sgp_run_profile() - run a profile and read write its return to client_data
 249:../../applications/SPG30-sensor-example/src/sgp30.c ****  * @profile     A pointer to the profile
 250:../../applications/SPG30-sensor-example/src/sgp30.c ****  *
 251:../../applications/SPG30-sensor-example/src/sgp30.c ****  * Return:      STATUS_OK on success, else STATUS_FAIL
 252:../../applications/SPG30-sensor-example/src/sgp30.c ****  */
 253:../../applications/SPG30-sensor-example/src/sgp30.c **** static s16 sgp_run_profile(const struct sgp_profile *profile) {
 254:../../applications/SPG30-sensor-example/src/sgp30.c ****     u32 duration_us = profile->duration_us + 5;
 255:../../applications/SPG30-sensor-example/src/sgp30.c **** 
 256:../../applications/SPG30-sensor-example/src/sgp30.c ****     if (sgp_i2c_write(&profile->command) == STATUS_FAIL)
 257:../../applications/SPG30-sensor-example/src/sgp30.c ****         return STATUS_FAIL;
 258:../../applications/SPG30-sensor-example/src/sgp30.c **** 
ARM GAS  C:\Users\RUBENJ~1\AppData\Local\Temp\ccZJq1Pt.s 			page 6


 259:../../applications/SPG30-sensor-example/src/sgp30.c ****     sensirion_sleep_usec(duration_us);
 260:../../applications/SPG30-sensor-example/src/sgp30.c **** 
 261:../../applications/SPG30-sensor-example/src/sgp30.c ****     if (profile->number_of_signals > 0) {
 262:../../applications/SPG30-sensor-example/src/sgp30.c ****         client_data.current_state = MEASURING_PROFILE_STATE;
 263:../../applications/SPG30-sensor-example/src/sgp30.c ****         return read_measurement(profile);
 264:../../applications/SPG30-sensor-example/src/sgp30.c ****     }
 265:../../applications/SPG30-sensor-example/src/sgp30.c **** 
 266:../../applications/SPG30-sensor-example/src/sgp30.c ****     return STATUS_OK;
 267:../../applications/SPG30-sensor-example/src/sgp30.c **** }
 268:../../applications/SPG30-sensor-example/src/sgp30.c **** 
 269:../../applications/SPG30-sensor-example/src/sgp30.c **** 
 270:../../applications/SPG30-sensor-example/src/sgp30.c **** /**
 271:../../applications/SPG30-sensor-example/src/sgp30.c ****  * sgp_get_profile_by_number() - get a profile by its identifier number
 272:../../applications/SPG30-sensor-example/src/sgp30.c ****  * @number      The number that identifies the profile
 273:../../applications/SPG30-sensor-example/src/sgp30.c ****  *
 274:../../applications/SPG30-sensor-example/src/sgp30.c ****  * Return:      A pointer to the profile or NULL if the profile does not exists
 275:../../applications/SPG30-sensor-example/src/sgp30.c ****  */
 276:../../applications/SPG30-sensor-example/src/sgp30.c **** static const struct sgp_profile *sgp_get_profile_by_number(u16 number) {
  29              		.loc 1 276 72 view -0
  30              		.cfi_startproc
  31              		@ args = 0, pretend = 0, frame = 0
  32              		@ frame_needed = 0, uses_anonymous_args = 0
  33              		@ link register save eliminated.
  34              		.loc 1 276 72 is_stmt 0 view .LVU1
  35 0000 30B4     		push	{r4, r5}
  36              	.LCFI0:
  37              		.cfi_def_cfa_offset 8
  38              		.cfi_offset 4, -8
  39              		.cfi_offset 5, -4
 277:../../applications/SPG30-sensor-example/src/sgp30.c ****     u8 i;
  40              		.loc 1 277 5 is_stmt 1 view .LVU2
 278:../../applications/SPG30-sensor-example/src/sgp30.c ****     const struct sgp_profile *profile = NULL;
  41              		.loc 1 278 5 view .LVU3
  42              	.LVL1:
 279:../../applications/SPG30-sensor-example/src/sgp30.c **** 
 280:../../applications/SPG30-sensor-example/src/sgp30.c ****     for (i = 0; i < client_data.otp_features->number_of_profiles; i++) {
  43              		.loc 1 280 5 view .LVU4
 278:../../applications/SPG30-sensor-example/src/sgp30.c ****     const struct sgp_profile *profile = NULL;
  44              		.loc 1 278 31 is_stmt 0 view .LVU5
  45 0002 0021     		movs	r1, #0
  46              		.loc 1 280 12 view .LVU6
  47 0004 0B46     		mov	r3, r1
  48              	.LVL2:
  49              	.L2:
  50              		.loc 1 280 19 discriminator 1 view .LVU7
  51 0006 9DB2     		uxth	r5, r3
  52              		.loc 1 280 32 discriminator 1 view .LVU8
  53 0008 0A4A     		ldr	r2, .L9
  54 000a 9269     		ldr	r2, [r2, #24]
  55              		.loc 1 280 45 discriminator 1 view .LVU9
  56 000c 9488     		ldrh	r4, [r2, #4]
  57              		.loc 1 280 5 discriminator 1 view .LVU10
  58 000e A542     		cmp	r5, r4
  59 0010 08D2     		bcs	.L3
 281:../../applications/SPG30-sensor-example/src/sgp30.c ****         profile = client_data.otp_features->profiles[i];
  60              		.loc 1 281 9 is_stmt 1 view .LVU11
  61              		.loc 1 281 43 is_stmt 0 view .LVU12
ARM GAS  C:\Users\RUBENJ~1\AppData\Local\Temp\ccZJq1Pt.s 			page 7


  62 0012 1268     		ldr	r2, [r2]
  63              		.loc 1 281 17 view .LVU13
  64 0014 52F82310 		ldr	r1, [r2, r3, lsl #2]
  65              	.LVL3:
 282:../../applications/SPG30-sensor-example/src/sgp30.c ****         if (number == profile->number)
  66              		.loc 1 282 9 is_stmt 1 view .LVU14
  67              		.loc 1 282 30 is_stmt 0 view .LVU15
  68 0018 8A7A     		ldrb	r2, [r1, #10]	@ zero_extendqisi2
  69              		.loc 1 282 12 view .LVU16
  70 001a 8242     		cmp	r2, r0
  71 001c 02D0     		beq	.L3
 280:../../applications/SPG30-sensor-example/src/sgp30.c ****         profile = client_data.otp_features->profiles[i];
  72              		.loc 1 280 68 discriminator 2 view .LVU17
  73 001e 0133     		adds	r3, r3, #1
  74              	.LVL4:
 280:../../applications/SPG30-sensor-example/src/sgp30.c ****         profile = client_data.otp_features->profiles[i];
  75              		.loc 1 280 68 discriminator 2 view .LVU18
  76 0020 DBB2     		uxtb	r3, r3
  77              	.LVL5:
 280:../../applications/SPG30-sensor-example/src/sgp30.c ****         profile = client_data.otp_features->profiles[i];
  78              		.loc 1 280 68 discriminator 2 view .LVU19
  79 0022 F0E7     		b	.L2
  80              	.L3:
 283:../../applications/SPG30-sensor-example/src/sgp30.c ****             break;
 284:../../applications/SPG30-sensor-example/src/sgp30.c ****     }
 285:../../applications/SPG30-sensor-example/src/sgp30.c **** 
 286:../../applications/SPG30-sensor-example/src/sgp30.c ****     if (i == client_data.otp_features->number_of_profiles) {
  81              		.loc 1 286 5 is_stmt 1 view .LVU20
  82              		.loc 1 286 8 is_stmt 0 view .LVU21
  83 0024 A542     		cmp	r5, r4
  84 0026 02D0     		beq	.L8
  85              	.LVL6:
  86              	.L1:
 287:../../applications/SPG30-sensor-example/src/sgp30.c ****         return NULL;
 288:../../applications/SPG30-sensor-example/src/sgp30.c ****     }
 289:../../applications/SPG30-sensor-example/src/sgp30.c **** 
 290:../../applications/SPG30-sensor-example/src/sgp30.c ****     return profile;
 291:../../applications/SPG30-sensor-example/src/sgp30.c **** }
  87              		.loc 1 291 1 view .LVU22
  88 0028 0846     		mov	r0, r1
  89              	.LVL7:
  90              		.loc 1 291 1 view .LVU23
  91 002a 30BC     		pop	{r4, r5}
  92              	.LCFI1:
  93              		.cfi_remember_state
  94              		.cfi_restore 5
  95              		.cfi_restore 4
  96              		.cfi_def_cfa_offset 0
  97 002c 7047     		bx	lr
  98              	.LVL8:
  99              	.L8:
 100              	.LCFI2:
 101              		.cfi_restore_state
 287:../../applications/SPG30-sensor-example/src/sgp30.c ****         return NULL;
 102              		.loc 1 287 16 view .LVU24
 103 002e 0021     		movs	r1, #0
 104              	.LVL9:
ARM GAS  C:\Users\RUBENJ~1\AppData\Local\Temp\ccZJq1Pt.s 			page 8


 287:../../applications/SPG30-sensor-example/src/sgp30.c ****         return NULL;
 105              		.loc 1 287 16 view .LVU25
 106 0030 FAE7     		b	.L1
 107              	.L10:
 108 0032 00BF     		.align	2
 109              	.L9:
 110 0034 00000000 		.word	.LANCHOR0
 111              		.cfi_endproc
 112              	.LFE129:
 114              		.section	.text.sgp_detect_featureset_version,"ax",%progbits
 115              		.align	1
 116              		.syntax unified
 117              		.thumb
 118              		.thumb_func
 119              		.fpu fpv4-sp-d16
 121              	sgp_detect_featureset_version:
 122              	.LVL10:
 123              	.LFB132:
 292:../../applications/SPG30-sensor-example/src/sgp30.c **** 
 293:../../applications/SPG30-sensor-example/src/sgp30.c **** 
 294:../../applications/SPG30-sensor-example/src/sgp30.c **** /**
 295:../../applications/SPG30-sensor-example/src/sgp30.c ****  * sgp_run_profile_by_number() - run a profile by its identifier number
 296:../../applications/SPG30-sensor-example/src/sgp30.c ****  * @number:     The number that identifies the profile
 297:../../applications/SPG30-sensor-example/src/sgp30.c ****  *
 298:../../applications/SPG30-sensor-example/src/sgp30.c ****  * Return:      STATUS_OK on success, else STATUS_FAIL
 299:../../applications/SPG30-sensor-example/src/sgp30.c ****  */
 300:../../applications/SPG30-sensor-example/src/sgp30.c **** static s16 sgp_run_profile_by_number(u16 number) {
 301:../../applications/SPG30-sensor-example/src/sgp30.c ****     const struct sgp_profile *profile;
 302:../../applications/SPG30-sensor-example/src/sgp30.c **** 
 303:../../applications/SPG30-sensor-example/src/sgp30.c ****     profile = sgp_get_profile_by_number(number);
 304:../../applications/SPG30-sensor-example/src/sgp30.c ****     if (profile == NULL)
 305:../../applications/SPG30-sensor-example/src/sgp30.c ****         return STATUS_FAIL;
 306:../../applications/SPG30-sensor-example/src/sgp30.c **** 
 307:../../applications/SPG30-sensor-example/src/sgp30.c ****     if (sgp_run_profile(profile) == STATUS_FAIL)
 308:../../applications/SPG30-sensor-example/src/sgp30.c ****         return STATUS_FAIL;
 309:../../applications/SPG30-sensor-example/src/sgp30.c **** 
 310:../../applications/SPG30-sensor-example/src/sgp30.c ****     return STATUS_OK;
 311:../../applications/SPG30-sensor-example/src/sgp30.c **** }
 312:../../applications/SPG30-sensor-example/src/sgp30.c **** 
 313:../../applications/SPG30-sensor-example/src/sgp30.c **** 
 314:../../applications/SPG30-sensor-example/src/sgp30.c **** /**
 315:../../applications/SPG30-sensor-example/src/sgp30.c ****  * sgp_fill_cmd_send_buf() - create the i2c send buffer for a command and a set
 316:../../applications/SPG30-sensor-example/src/sgp30.c ****  *                           of argument words.
 317:../../applications/SPG30-sensor-example/src/sgp30.c ****  *                           The output buffer interleaves argument words with
 318:../../applications/SPG30-sensor-example/src/sgp30.c ****  *                           their checksums.
 319:../../applications/SPG30-sensor-example/src/sgp30.c ****  * @buf:        The generated buffer to send over i2c. Then buffer length must
 320:../../applications/SPG30-sensor-example/src/sgp30.c ****  *              be at least SGP_COMMAND_LEN + num_args * (SGP_WORD_LEN +
 321:../../applications/SPG30-sensor-example/src/sgp30.c ****  *              CRC8_LEN).
 322:../../applications/SPG30-sensor-example/src/sgp30.c ****  * @cmd:        The sgp i2c command to send. It already includes a checksum.
 323:../../applications/SPG30-sensor-example/src/sgp30.c ****  * @args:       The arguments to the command. Can be NULL if none.
 324:../../applications/SPG30-sensor-example/src/sgp30.c ****  * @num_args:   The number of word arguments in args.
 325:../../applications/SPG30-sensor-example/src/sgp30.c ****  * Return:      Bytes written to buf: SGP_COMMAND_LEN + num_args *
 326:../../applications/SPG30-sensor-example/src/sgp30.c ****  *              (SGP_WORD_LEN + CRC8_LEN).
 327:../../applications/SPG30-sensor-example/src/sgp30.c ****  */
 328:../../applications/SPG30-sensor-example/src/sgp30.c **** static u16 sgp_fill_cmd_send_buf(u8 *buf, const sgp_command *cmd,
 329:../../applications/SPG30-sensor-example/src/sgp30.c ****                                  const u16 *args, u8 num_args) {
 330:../../applications/SPG30-sensor-example/src/sgp30.c ****     u16 word;
ARM GAS  C:\Users\RUBENJ~1\AppData\Local\Temp\ccZJq1Pt.s 			page 9


 331:../../applications/SPG30-sensor-example/src/sgp30.c ****     u8 crc;
 332:../../applications/SPG30-sensor-example/src/sgp30.c ****     u8 i;
 333:../../applications/SPG30-sensor-example/src/sgp30.c ****     u8 idx = 0;
 334:../../applications/SPG30-sensor-example/src/sgp30.c **** 
 335:../../applications/SPG30-sensor-example/src/sgp30.c ****     buf[idx++] = cmd->buf[0];
 336:../../applications/SPG30-sensor-example/src/sgp30.c ****     buf[idx++] = cmd->buf[1];
 337:../../applications/SPG30-sensor-example/src/sgp30.c **** 
 338:../../applications/SPG30-sensor-example/src/sgp30.c ****     for (i = 0; i < num_args; ++i) {
 339:../../applications/SPG30-sensor-example/src/sgp30.c ****         word = be16_to_cpu(args[i]);
 340:../../applications/SPG30-sensor-example/src/sgp30.c ****         crc = sensirion_common_generate_crc((u8 *)&word, SGP_WORD_LEN);
 341:../../applications/SPG30-sensor-example/src/sgp30.c **** 
 342:../../applications/SPG30-sensor-example/src/sgp30.c ****         buf[idx++] = (u8)((word & 0x00FF) >> 0);
 343:../../applications/SPG30-sensor-example/src/sgp30.c ****         buf[idx++] = (u8)((word & 0xFF00) >> 8);
 344:../../applications/SPG30-sensor-example/src/sgp30.c ****         buf[idx++] = crc;
 345:../../applications/SPG30-sensor-example/src/sgp30.c ****     }
 346:../../applications/SPG30-sensor-example/src/sgp30.c ****     return idx;
 347:../../applications/SPG30-sensor-example/src/sgp30.c **** }
 348:../../applications/SPG30-sensor-example/src/sgp30.c **** 
 349:../../applications/SPG30-sensor-example/src/sgp30.c **** 
 350:../../applications/SPG30-sensor-example/src/sgp30.c **** /**
 351:../../applications/SPG30-sensor-example/src/sgp30.c ****  * sgp_detect_featureset_version() - extracts the featureset and initializes
 352:../../applications/SPG30-sensor-example/src/sgp30.c ****  *                                   client_data.
 353:../../applications/SPG30-sensor-example/src/sgp30.c ****  *
 354:../../applications/SPG30-sensor-example/src/sgp30.c ****  * @featureset:  Pointer to the featureset bits
 355:../../applications/SPG30-sensor-example/src/sgp30.c ****  *
 356:../../applications/SPG30-sensor-example/src/sgp30.c ****  * Return:    STATUS_OK on success
 357:../../applications/SPG30-sensor-example/src/sgp30.c ****  */
 358:../../applications/SPG30-sensor-example/src/sgp30.c **** static s16 sgp_detect_featureset_version(u16 *featureset) {
 124              		.loc 1 358 59 is_stmt 1 view -0
 125              		.cfi_startproc
 126              		@ args = 0, pretend = 0, frame = 0
 127              		@ frame_needed = 0, uses_anonymous_args = 0
 128              		@ link register save eliminated.
 129              		.loc 1 358 59 is_stmt 0 view .LVU27
 130 0000 F0B4     		push	{r4, r5, r6, r7}
 131              	.LCFI3:
 132              		.cfi_def_cfa_offset 16
 133              		.cfi_offset 4, -16
 134              		.cfi_offset 5, -12
 135              		.cfi_offset 6, -8
 136              		.cfi_offset 7, -4
 359:../../applications/SPG30-sensor-example/src/sgp30.c ****     s16 i, j;
 137              		.loc 1 359 5 is_stmt 1 view .LVU28
 360:../../applications/SPG30-sensor-example/src/sgp30.c ****     s16 ret = STATUS_FAIL;
 138              		.loc 1 360 5 view .LVU29
 139              	.LVL11:
 361:../../applications/SPG30-sensor-example/src/sgp30.c ****     u16 feature_set_version = be16_to_cpu(*featureset);
 140              		.loc 1 361 5 view .LVU30
 141              		.loc 1 361 31 is_stmt 0 view .LVU31
 142 0002 0388     		ldrh	r3, [r0]
 143 0004 1D0A     		lsrs	r5, r3, #8
 144 0006 45EA0325 		orr	r5, r5, r3, lsl #8
 145              		.loc 1 361 9 view .LVU32
 146 000a ADB2     		uxth	r5, r5
 147              	.LVL12:
 362:../../applications/SPG30-sensor-example/src/sgp30.c ****     const struct sgp_otp_featureset *sgp_featureset;
 148              		.loc 1 362 5 is_stmt 1 view .LVU33
ARM GAS  C:\Users\RUBENJ~1\AppData\Local\Temp\ccZJq1Pt.s 			page 10


 363:../../applications/SPG30-sensor-example/src/sgp30.c **** 
 364:../../applications/SPG30-sensor-example/src/sgp30.c ****     client_data.info.feature_set_version = feature_set_version;
 149              		.loc 1 364 5 view .LVU34
 150              		.loc 1 364 42 is_stmt 0 view .LVU35
 151 000c 194B     		ldr	r3, .L22
 152 000e 1D82     		strh	r5, [r3, #16]	@ movhi
 365:../../applications/SPG30-sensor-example/src/sgp30.c ****     client_data.otp_features = &sgp_features_unknown;
 153              		.loc 1 365 5 is_stmt 1 view .LVU36
 154              		.loc 1 365 30 is_stmt 0 view .LVU37
 155 0010 194A     		ldr	r2, .L22+4
 156 0012 9A61     		str	r2, [r3, #24]
 366:../../applications/SPG30-sensor-example/src/sgp30.c ****     for (i = 0; i < sgp_supported_featuresets.number_of_supported_featuresets; ++i) {
 157              		.loc 1 366 5 is_stmt 1 view .LVU38
 158              	.LVL13:
 360:../../applications/SPG30-sensor-example/src/sgp30.c ****     u16 feature_set_version = be16_to_cpu(*featureset);
 159              		.loc 1 360 9 is_stmt 0 view .LVU39
 160 0014 4FF0FF30 		mov	r0, #-1
 161              	.LVL14:
 162              		.loc 1 366 12 view .LVU40
 163 0018 0026     		movs	r6, #0
 164              		.loc 1 366 5 view .LVU41
 165 001a 1FE0     		b	.L12
 166              	.LVL15:
 167              	.L16:
 367:../../applications/SPG30-sensor-example/src/sgp30.c ****         sgp_featureset = sgp_supported_featuresets.featuresets[i];
 368:../../applications/SPG30-sensor-example/src/sgp30.c ****         for (j = 0; j < sgp_featureset->number_of_supported_featureset_versions; ++j) {
 168              		.loc 1 368 82 discriminator 2 view .LVU42
 169 001c 0132     		adds	r2, r2, #1
 170              	.LVL16:
 171              		.loc 1 368 82 discriminator 2 view .LVU43
 172 001e 12B2     		sxth	r2, r2
 173              	.LVL17:
 174              	.L13:
 175              		.loc 1 368 39 discriminator 1 view .LVU44
 176 0020 A389     		ldrh	r3, [r4, #12]
 177              		.loc 1 368 9 discriminator 1 view .LVU45
 178 0022 9A42     		cmp	r2, r3
 179 0024 18DA     		bge	.L17
 369:../../applications/SPG30-sensor-example/src/sgp30.c ****             if (SGP_FS_COMPAT(feature_set_version,
 180              		.loc 1 369 13 is_stmt 1 view .LVU46
 181              		.loc 1 369 17 is_stmt 0 view .LVU47
 182 0026 A368     		ldr	r3, [r4, #8]
 183 0028 33F81230 		ldrh	r3, [r3, r2, lsl #1]
 184              		.loc 1 369 16 view .LVU48
 185 002c 13F0E007 		ands	r7, r3, #224
 186 0030 07D0     		beq	.L14
 187              		.loc 1 369 17 discriminator 1 view .LVU49
 188 0032 83EA0501 		eor	r1, r3, r5
 189 0036 21F46161 		bic	r1, r1, #3600
 190 003a 21F00F01 		bic	r1, r1, #15
 191 003e 89B2     		uxth	r1, r1
 192 0040 39B1     		cbz	r1, .L15
 193              	.L14:
 194              		.loc 1 369 17 discriminator 3 view .LVU50
 195 0042 002F     		cmp	r7, #0
 196 0044 EAD1     		bne	.L16
 197              		.loc 1 369 17 discriminator 4 view .LVU51
ARM GAS  C:\Users\RUBENJ~1\AppData\Local\Temp\ccZJq1Pt.s 			page 11


 198 0046 6B40     		eors	r3, r3, r5
 199 0048 23F46063 		bic	r3, r3, #3584
 200 004c 9BB2     		uxth	r3, r3
 201 004e 002B     		cmp	r3, #0
 202 0050 E4D1     		bne	.L16
 203              	.L15:
 370:../../applications/SPG30-sensor-example/src/sgp30.c ****                               sgp_featureset->supported_featureset_versions[j])) {
 371:../../applications/SPG30-sensor-example/src/sgp30.c ****                 client_data.otp_features = sgp_featureset;
 204              		.loc 1 371 17 is_stmt 1 view .LVU52
 205              		.loc 1 371 42 is_stmt 0 view .LVU53
 206 0052 084B     		ldr	r3, .L22
 207 0054 9C61     		str	r4, [r3, #24]
 372:../../applications/SPG30-sensor-example/src/sgp30.c ****                 ret = STATUS_OK;
 208              		.loc 1 372 17 is_stmt 1 view .LVU54
 209              	.LVL18:
 373:../../applications/SPG30-sensor-example/src/sgp30.c ****                 break;
 210              		.loc 1 373 17 view .LVU55
 372:../../applications/SPG30-sensor-example/src/sgp30.c ****                 ret = STATUS_OK;
 211              		.loc 1 372 21 is_stmt 0 view .LVU56
 212 0056 0020     		movs	r0, #0
 213              	.LVL19:
 214              	.L17:
 366:../../applications/SPG30-sensor-example/src/sgp30.c ****         sgp_featureset = sgp_supported_featuresets.featuresets[i];
 215              		.loc 1 366 80 discriminator 2 view .LVU57
 216 0058 0136     		adds	r6, r6, #1
 217              	.LVL20:
 366:../../applications/SPG30-sensor-example/src/sgp30.c ****         sgp_featureset = sgp_supported_featuresets.featuresets[i];
 218              		.loc 1 366 80 discriminator 2 view .LVU58
 219 005a 36B2     		sxth	r6, r6
 220              	.LVL21:
 221              	.L12:
 366:../../applications/SPG30-sensor-example/src/sgp30.c ****         sgp_featureset = sgp_supported_featuresets.featuresets[i];
 222              		.loc 1 366 46 discriminator 1 view .LVU59
 223 005c 074B     		ldr	r3, .L22+8
 224 005e 9B88     		ldrh	r3, [r3, #4]
 366:../../applications/SPG30-sensor-example/src/sgp30.c ****         sgp_featureset = sgp_supported_featuresets.featuresets[i];
 225              		.loc 1 366 5 discriminator 1 view .LVU60
 226 0060 9E42     		cmp	r6, r3
 227 0062 05DA     		bge	.L21
 367:../../applications/SPG30-sensor-example/src/sgp30.c ****         for (j = 0; j < sgp_featureset->number_of_supported_featureset_versions; ++j) {
 228              		.loc 1 367 9 is_stmt 1 view .LVU61
 367:../../applications/SPG30-sensor-example/src/sgp30.c ****         for (j = 0; j < sgp_featureset->number_of_supported_featureset_versions; ++j) {
 229              		.loc 1 367 51 is_stmt 0 view .LVU62
 230 0064 054B     		ldr	r3, .L22+8
 231 0066 1B68     		ldr	r3, [r3]
 367:../../applications/SPG30-sensor-example/src/sgp30.c ****         for (j = 0; j < sgp_featureset->number_of_supported_featureset_versions; ++j) {
 232              		.loc 1 367 24 view .LVU63
 233 0068 53F82640 		ldr	r4, [r3, r6, lsl #2]
 234              	.LVL22:
 368:../../applications/SPG30-sensor-example/src/sgp30.c ****             if (SGP_FS_COMPAT(feature_set_version,
 235              		.loc 1 368 9 is_stmt 1 view .LVU64
 368:../../applications/SPG30-sensor-example/src/sgp30.c ****             if (SGP_FS_COMPAT(feature_set_version,
 236              		.loc 1 368 16 is_stmt 0 view .LVU65
 237 006c 0022     		movs	r2, #0
 368:../../applications/SPG30-sensor-example/src/sgp30.c ****             if (SGP_FS_COMPAT(feature_set_version,
 238              		.loc 1 368 9 view .LVU66
 239 006e D7E7     		b	.L13
ARM GAS  C:\Users\RUBENJ~1\AppData\Local\Temp\ccZJq1Pt.s 			page 12


 240              	.LVL23:
 241              	.L21:
 374:../../applications/SPG30-sensor-example/src/sgp30.c ****             }
 375:../../applications/SPG30-sensor-example/src/sgp30.c ****         }
 376:../../applications/SPG30-sensor-example/src/sgp30.c ****     }
 377:../../applications/SPG30-sensor-example/src/sgp30.c ****     return ret;
 378:../../applications/SPG30-sensor-example/src/sgp30.c **** }
 242              		.loc 1 378 1 view .LVU67
 243 0070 F0BC     		pop	{r4, r5, r6, r7}
 244              	.LCFI4:
 245              		.cfi_restore 7
 246              		.cfi_restore 6
 247              		.cfi_restore 5
 248              		.cfi_restore 4
 249              		.cfi_def_cfa_offset 0
 250              	.LVL24:
 251              		.loc 1 378 1 view .LVU68
 252 0072 7047     		bx	lr
 253              	.L23:
 254              		.align	2
 255              	.L22:
 256 0074 00000000 		.word	.LANCHOR0
 257 0078 00000000 		.word	.LANCHOR1
 258 007c 00000000 		.word	sgp_supported_featuresets
 259              		.cfi_endproc
 260              	.LFE132:
 262              		.section	.text.sgp_i2c_write,"ax",%progbits
 263              		.align	1
 264              		.syntax unified
 265              		.thumb
 266              		.thumb_func
 267              		.fpu fpv4-sp-d16
 269              	sgp_i2c_write:
 270              	.LVL25:
 271              	.LFB124:
 156:../../applications/SPG30-sensor-example/src/sgp30.c ****     s8 ret;
 272              		.loc 1 156 54 is_stmt 1 view -0
 273              		.cfi_startproc
 274              		@ args = 0, pretend = 0, frame = 0
 275              		@ frame_needed = 0, uses_anonymous_args = 0
 156:../../applications/SPG30-sensor-example/src/sgp30.c ****     s8 ret;
 276              		.loc 1 156 54 is_stmt 0 view .LVU70
 277 0000 08B5     		push	{r3, lr}
 278              	.LCFI5:
 279              		.cfi_def_cfa_offset 8
 280              		.cfi_offset 3, -8
 281              		.cfi_offset 14, -4
 157:../../applications/SPG30-sensor-example/src/sgp30.c **** 
 282              		.loc 1 157 5 is_stmt 1 view .LVU71
 159:../../applications/SPG30-sensor-example/src/sgp30.c ****     if (ret != 0)
 283              		.loc 1 159 5 view .LVU72
 159:../../applications/SPG30-sensor-example/src/sgp30.c ****     if (ret != 0)
 284              		.loc 1 159 11 is_stmt 0 view .LVU73
 285 0002 0222     		movs	r2, #2
 286 0004 0146     		mov	r1, r0
 287 0006 5820     		movs	r0, #88
 288              	.LVL26:
ARM GAS  C:\Users\RUBENJ~1\AppData\Local\Temp\ccZJq1Pt.s 			page 13


 159:../../applications/SPG30-sensor-example/src/sgp30.c ****     if (ret != 0)
 289              		.loc 1 159 11 view .LVU74
 290 0008 FFF7FEFF 		bl	sensirion_i2c_write
 291              	.LVL27:
 159:../../applications/SPG30-sensor-example/src/sgp30.c ****     if (ret != 0)
 292              		.loc 1 159 9 view .LVU75
 293 000c 40B2     		sxtb	r0, r0
 294              	.LVL28:
 160:../../applications/SPG30-sensor-example/src/sgp30.c ****         return STATUS_FAIL;
 295              		.loc 1 160 5 is_stmt 1 view .LVU76
 160:../../applications/SPG30-sensor-example/src/sgp30.c ****         return STATUS_FAIL;
 296              		.loc 1 160 8 is_stmt 0 view .LVU77
 297 000e 00B9     		cbnz	r0, .L28
 298              	.LVL29:
 299              	.L25:
 164:../../applications/SPG30-sensor-example/src/sgp30.c **** 
 300              		.loc 1 164 1 view .LVU78
 301 0010 08BD     		pop	{r3, pc}
 302              	.LVL30:
 303              	.L28:
 161:../../applications/SPG30-sensor-example/src/sgp30.c **** 
 304              		.loc 1 161 16 view .LVU79
 305 0012 4FF0FF30 		mov	r0, #-1
 306              	.LVL31:
 161:../../applications/SPG30-sensor-example/src/sgp30.c **** 
 307              		.loc 1 161 16 view .LVU80
 308 0016 FBE7     		b	.L25
 309              		.cfi_endproc
 310              	.LFE124:
 312              		.section	.text.sgp_i2c_read_words,"ax",%progbits
 313              		.align	1
 314              		.syntax unified
 315              		.thumb
 316              		.thumb_func
 317              		.fpu fpv4-sp-d16
 319              	sgp_i2c_read_words:
 320              	.LVL32:
 321              	.LFB123:
 121:../../applications/SPG30-sensor-example/src/sgp30.c ****     s16 ret;
 322              		.loc 1 121 58 is_stmt 1 view -0
 323              		.cfi_startproc
 324              		@ args = 0, pretend = 0, frame = 1024
 325              		@ frame_needed = 0, uses_anonymous_args = 0
 121:../../applications/SPG30-sensor-example/src/sgp30.c ****     s16 ret;
 326              		.loc 1 121 58 is_stmt 0 view .LVU82
 327 0000 2DE9F041 		push	{r4, r5, r6, r7, r8, lr}
 328              	.LCFI6:
 329              		.cfi_def_cfa_offset 24
 330              		.cfi_offset 4, -24
 331              		.cfi_offset 5, -20
 332              		.cfi_offset 6, -16
 333              		.cfi_offset 7, -12
 334              		.cfi_offset 8, -8
 335              		.cfi_offset 14, -4
 336 0004 ADF5806D 		sub	sp, sp, #1024
 337              	.LCFI7:
 338              		.cfi_def_cfa_offset 1048
ARM GAS  C:\Users\RUBENJ~1\AppData\Local\Temp\ccZJq1Pt.s 			page 14


 339 0008 0646     		mov	r6, r0
 122:../../applications/SPG30-sensor-example/src/sgp30.c ****     u16 i, j;
 340              		.loc 1 122 5 is_stmt 1 view .LVU83
 123:../../applications/SPG30-sensor-example/src/sgp30.c ****     u16 size = data_words * (SGP_WORD_LEN + CRC8_LEN);
 341              		.loc 1 123 5 view .LVU84
 124:../../applications/SPG30-sensor-example/src/sgp30.c ****     u16 word_buf[SGP_MAX_PROFILE_RET_LEN / sizeof(u16)];
 342              		.loc 1 124 5 view .LVU85
 124:../../applications/SPG30-sensor-example/src/sgp30.c ****     u16 word_buf[SGP_MAX_PROFILE_RET_LEN / sizeof(u16)];
 343              		.loc 1 124 9 is_stmt 0 view .LVU86
 344 000a 01EB4101 		add	r1, r1, r1, lsl #1
 345              	.LVL33:
 124:../../applications/SPG30-sensor-example/src/sgp30.c ****     u16 word_buf[SGP_MAX_PROFILE_RET_LEN / sizeof(u16)];
 346              		.loc 1 124 9 view .LVU87
 347 000e 8FB2     		uxth	r7, r1
 348              	.LVL34:
 125:../../applications/SPG30-sensor-example/src/sgp30.c ****     u8 * const buf8 = (u8 *)word_buf;
 349              		.loc 1 125 5 is_stmt 1 view .LVU88
 126:../../applications/SPG30-sensor-example/src/sgp30.c **** 
 350              		.loc 1 126 5 view .LVU89
 128:../../applications/SPG30-sensor-example/src/sgp30.c **** 
 351              		.loc 1 128 5 view .LVU90
 128:../../applications/SPG30-sensor-example/src/sgp30.c **** 
 352              		.loc 1 128 11 is_stmt 0 view .LVU91
 353 0010 3A46     		mov	r2, r7
 354 0012 6946     		mov	r1, sp
 355 0014 5820     		movs	r0, #88
 356              	.LVL35:
 128:../../applications/SPG30-sensor-example/src/sgp30.c **** 
 357              		.loc 1 128 11 view .LVU92
 358 0016 FFF7FEFF 		bl	sensirion_i2c_read
 359              	.LVL36:
 128:../../applications/SPG30-sensor-example/src/sgp30.c **** 
 360              		.loc 1 128 9 view .LVU93
 361 001a 0FFA80F8 		sxth	r8, r0
 362              	.LVL37:
 130:../../applications/SPG30-sensor-example/src/sgp30.c ****         return STATUS_FAIL;
 363              		.loc 1 130 5 is_stmt 1 view .LVU94
 130:../../applications/SPG30-sensor-example/src/sgp30.c ****         return STATUS_FAIL;
 364              		.loc 1 130 8 is_stmt 0 view .LVU95
 365 001e B8F1000F 		cmp	r8, #0
 366 0022 1BD1     		bne	.L33
 134:../../applications/SPG30-sensor-example/src/sgp30.c ****          i < size;
 367              		.loc 1 134 19 view .LVU96
 368 0024 0025     		movs	r5, #0
 134:../../applications/SPG30-sensor-example/src/sgp30.c ****          i < size;
 369              		.loc 1 134 12 view .LVU97
 370 0026 2C46     		mov	r4, r5
 371              	.L31:
 372              	.LVL38:
 134:../../applications/SPG30-sensor-example/src/sgp30.c ****          i < size;
 373              		.loc 1 134 5 discriminator 1 view .LVU98
 374 0028 BC42     		cmp	r4, r7
 375 002a 1CD2     		bcs	.L30
 138:../../applications/SPG30-sensor-example/src/sgp30.c ****                                        buf8[i + SGP_WORD_LEN]) == STATUS_FAIL) {
 376              		.loc 1 138 9 is_stmt 1 view .LVU99
 139:../../applications/SPG30-sensor-example/src/sgp30.c ****             return STATUS_FAIL;
 377              		.loc 1 139 44 is_stmt 0 view .LVU100
ARM GAS  C:\Users\RUBENJ~1\AppData\Local\Temp\ccZJq1Pt.s 			page 15


 378 002c A31C     		adds	r3, r4, #2
 138:../../applications/SPG30-sensor-example/src/sgp30.c ****                                        buf8[i + SGP_WORD_LEN]) == STATUS_FAIL) {
 379              		.loc 1 138 13 view .LVU101
 380 002e 1DF80320 		ldrb	r2, [sp, r3]	@ zero_extendqisi2
 381 0032 0221     		movs	r1, #2
 382 0034 0DEB0400 		add	r0, sp, r4
 383 0038 FFF7FEFF 		bl	sensirion_common_check_crc
 384              	.LVL39:
 138:../../applications/SPG30-sensor-example/src/sgp30.c ****                                        buf8[i + SGP_WORD_LEN]) == STATUS_FAIL) {
 385              		.loc 1 138 12 view .LVU102
 386 003c B0F1FF3F 		cmp	r0, #-1
 387 0040 0FD0     		beq	.L34
 142:../../applications/SPG30-sensor-example/src/sgp30.c ****         ((u8 *)data)[j + 1] = buf8[i + 1];
 388              		.loc 1 142 9 is_stmt 1 view .LVU103
 142:../../applications/SPG30-sensor-example/src/sgp30.c ****         ((u8 *)data)[j + 1] = buf8[i + 1];
 389              		.loc 1 142 35 is_stmt 0 view .LVU104
 390 0042 1DF80430 		ldrb	r3, [sp, r4]	@ zero_extendqisi2
 142:../../applications/SPG30-sensor-example/src/sgp30.c ****         ((u8 *)data)[j + 1] = buf8[i + 1];
 391              		.loc 1 142 29 view .LVU105
 392 0046 7355     		strb	r3, [r6, r5]
 143:../../applications/SPG30-sensor-example/src/sgp30.c ****     }
 393              		.loc 1 143 9 is_stmt 1 view .LVU106
 143:../../applications/SPG30-sensor-example/src/sgp30.c ****     }
 394              		.loc 1 143 21 is_stmt 0 view .LVU107
 395 0048 6B1C     		adds	r3, r5, #1
 143:../../applications/SPG30-sensor-example/src/sgp30.c ****     }
 396              		.loc 1 143 35 view .LVU108
 397 004a 0DF10102 		add	r2, sp, #1
 398 004e 125D     		ldrb	r2, [r2, r4]	@ zero_extendqisi2
 143:../../applications/SPG30-sensor-example/src/sgp30.c ****     }
 399              		.loc 1 143 29 view .LVU109
 400 0050 F254     		strb	r2, [r6, r3]
 136:../../applications/SPG30-sensor-example/src/sgp30.c **** 
 401              		.loc 1 136 12 view .LVU110
 402 0052 0334     		adds	r4, r4, #3
 403              	.LVL40:
 136:../../applications/SPG30-sensor-example/src/sgp30.c **** 
 404              		.loc 1 136 12 view .LVU111
 405 0054 A4B2     		uxth	r4, r4
 406              	.LVL41:
 136:../../applications/SPG30-sensor-example/src/sgp30.c **** 
 407              		.loc 1 136 42 view .LVU112
 408 0056 AB1C     		adds	r3, r5, #2
 409 0058 9DB2     		uxth	r5, r3
 410              	.LVL42:
 136:../../applications/SPG30-sensor-example/src/sgp30.c **** 
 411              		.loc 1 136 42 view .LVU113
 412 005a E5E7     		b	.L31
 413              	.LVL43:
 414              	.L33:
 131:../../applications/SPG30-sensor-example/src/sgp30.c **** 
 415              		.loc 1 131 16 view .LVU114
 416 005c 4FF0FF38 		mov	r8, #-1
 417              	.LVL44:
 131:../../applications/SPG30-sensor-example/src/sgp30.c **** 
 418              		.loc 1 131 16 view .LVU115
 419 0060 01E0     		b	.L30
ARM GAS  C:\Users\RUBENJ~1\AppData\Local\Temp\ccZJq1Pt.s 			page 16


 420              	.LVL45:
 421              	.L34:
 140:../../applications/SPG30-sensor-example/src/sgp30.c ****         }
 422              		.loc 1 140 20 view .LVU116
 423 0062 4FF0FF38 		mov	r8, #-1
 424              	.LVL46:
 425              	.L30:
 147:../../applications/SPG30-sensor-example/src/sgp30.c **** 
 426              		.loc 1 147 1 view .LVU117
 427 0066 4046     		mov	r0, r8
 428 0068 0DF5806D 		add	sp, sp, #1024
 429              	.LCFI8:
 430              		.cfi_def_cfa_offset 24
 431              	.LVL47:
 147:../../applications/SPG30-sensor-example/src/sgp30.c **** 
 432              		.loc 1 147 1 view .LVU118
 433              		@ sp needed
 434 006c BDE8F081 		pop	{r4, r5, r6, r7, r8, pc}
 147:../../applications/SPG30-sensor-example/src/sgp30.c **** 
 435              		.loc 1 147 1 view .LVU119
 436              		.cfi_endproc
 437              	.LFE123:
 439              		.section	.text.sgp_i2c_read_words_from_cmd,"ax",%progbits
 440              		.align	1
 441              		.syntax unified
 442              		.thumb
 443              		.thumb_func
 444              		.fpu fpv4-sp-d16
 446              	sgp_i2c_read_words_from_cmd:
 447              	.LVL48:
 448              	.LFB127:
 236:../../applications/SPG30-sensor-example/src/sgp30.c **** 
 449              		.loc 1 236 55 is_stmt 1 view -0
 450              		.cfi_startproc
 451              		@ args = 0, pretend = 0, frame = 0
 452              		@ frame_needed = 0, uses_anonymous_args = 0
 236:../../applications/SPG30-sensor-example/src/sgp30.c **** 
 453              		.loc 1 236 55 is_stmt 0 view .LVU121
 454 0000 70B5     		push	{r4, r5, r6, lr}
 455              	.LCFI9:
 456              		.cfi_def_cfa_offset 16
 457              		.cfi_offset 4, -16
 458              		.cfi_offset 5, -12
 459              		.cfi_offset 6, -8
 460              		.cfi_offset 14, -4
 461 0002 0E46     		mov	r6, r1
 462 0004 1446     		mov	r4, r2
 463 0006 1D46     		mov	r5, r3
 238:../../applications/SPG30-sensor-example/src/sgp30.c ****         return STATUS_FAIL;
 464              		.loc 1 238 5 is_stmt 1 view .LVU122
 238:../../applications/SPG30-sensor-example/src/sgp30.c ****         return STATUS_FAIL;
 465              		.loc 1 238 9 is_stmt 0 view .LVU123
 466 0008 FFF7FEFF 		bl	sgp_i2c_write
 467              	.LVL49:
 238:../../applications/SPG30-sensor-example/src/sgp30.c ****         return STATUS_FAIL;
 468              		.loc 1 238 8 view .LVU124
 469 000c B0F1FF3F 		cmp	r0, #-1
ARM GAS  C:\Users\RUBENJ~1\AppData\Local\Temp\ccZJq1Pt.s 			page 17


 470 0010 06D0     		beq	.L37
 242:../../applications/SPG30-sensor-example/src/sgp30.c ****     return sgp_i2c_read_words(data_words, num_words);
 471              		.loc 1 242 5 is_stmt 1 view .LVU125
 472 0012 3046     		mov	r0, r6
 473 0014 FFF7FEFF 		bl	sensirion_sleep_usec
 474              	.LVL50:
 243:../../applications/SPG30-sensor-example/src/sgp30.c **** }
 475              		.loc 1 243 5 view .LVU126
 243:../../applications/SPG30-sensor-example/src/sgp30.c **** }
 476              		.loc 1 243 12 is_stmt 0 view .LVU127
 477 0018 2946     		mov	r1, r5
 478 001a 2046     		mov	r0, r4
 479 001c FFF7FEFF 		bl	sgp_i2c_read_words
 480              	.LVL51:
 481              	.L37:
 244:../../applications/SPG30-sensor-example/src/sgp30.c **** 
 482              		.loc 1 244 1 view .LVU128
 483 0020 70BD     		pop	{r4, r5, r6, pc}
 244:../../applications/SPG30-sensor-example/src/sgp30.c **** 
 484              		.loc 1 244 1 view .LVU129
 485              		.cfi_endproc
 486              	.LFE127:
 488              		.section	.text.unpack_signals,"ax",%progbits
 489              		.align	1
 490              		.syntax unified
 491              		.thumb
 492              		.thumb_func
 493              		.fpu fpv4-sp-d16
 495              	unpack_signals:
 496              	.LVL52:
 497              	.LFB125:
 171:../../applications/SPG30-sensor-example/src/sgp30.c ****     s16 i, j;
 498              		.loc 1 171 63 is_stmt 1 view -0
 499              		.cfi_startproc
 500              		@ args = 0, pretend = 0, frame = 0
 501              		@ frame_needed = 1, uses_anonymous_args = 0
 171:../../applications/SPG30-sensor-example/src/sgp30.c ****     s16 i, j;
 502              		.loc 1 171 63 is_stmt 0 view .LVU131
 503 0000 2DE9F041 		push	{r4, r5, r6, r7, r8, lr}
 504              	.LCFI10:
 505              		.cfi_def_cfa_offset 24
 506              		.cfi_offset 4, -24
 507              		.cfi_offset 5, -20
 508              		.cfi_offset 6, -16
 509              		.cfi_offset 7, -12
 510              		.cfi_offset 8, -8
 511              		.cfi_offset 14, -4
 512 0004 00AF     		add	r7, sp, #0
 513              	.LCFI11:
 514              		.cfi_def_cfa_register 7
 515 0006 0546     		mov	r5, r0
 172:../../applications/SPG30-sensor-example/src/sgp30.c ****     const struct sgp_signal *signal;
 516              		.loc 1 172 5 is_stmt 1 view .LVU132
 173:../../applications/SPG30-sensor-example/src/sgp30.c ****     u16 data_words = profile->number_of_signals;
 517              		.loc 1 173 5 view .LVU133
 174:../../applications/SPG30-sensor-example/src/sgp30.c ****     u16 word_buf[data_words];
 518              		.loc 1 174 5 view .LVU134
ARM GAS  C:\Users\RUBENJ~1\AppData\Local\Temp\ccZJq1Pt.s 			page 18


 174:../../applications/SPG30-sensor-example/src/sgp30.c ****     u16 word_buf[data_words];
 519              		.loc 1 174 9 is_stmt 0 view .LVU135
 520 0008 0089     		ldrh	r0, [r0, #8]
 521              	.LVL53:
 175:../../applications/SPG30-sensor-example/src/sgp30.c ****     u16 value;
 522              		.loc 1 175 5 is_stmt 1 view .LVU136
 175:../../applications/SPG30-sensor-example/src/sgp30.c ****     u16 value;
 523              		.loc 1 175 9 is_stmt 0 view .LVU137
 524 000a 4300     		lsls	r3, r0, #1
 525 000c 0733     		adds	r3, r3, #7
 526 000e DB08     		lsrs	r3, r3, #3
 527 0010 6A46     		mov	r2, sp
 528 0012 A2EBC303 		sub	r3, r2, r3, lsl #3
 529 0016 9D46     		mov	sp, r3
 530 0018 6E46     		mov	r6, sp
 531              	.LVL54:
 176:../../applications/SPG30-sensor-example/src/sgp30.c **** 
 532              		.loc 1 176 5 is_stmt 1 view .LVU138
 179:../../applications/SPG30-sensor-example/src/sgp30.c ****         word_buf[i] = client_data.word_buf[i];
 533              		.loc 1 179 5 view .LVU139
 179:../../applications/SPG30-sensor-example/src/sgp30.c ****         word_buf[i] = client_data.word_buf[i];
 534              		.loc 1 179 12 is_stmt 0 view .LVU140
 535 001a 0023     		movs	r3, #0
 536              	.LVL55:
 537              	.L40:
 179:../../applications/SPG30-sensor-example/src/sgp30.c ****         word_buf[i] = client_data.word_buf[i];
 538              		.loc 1 179 5 discriminator 1 view .LVU141
 539 001c 9842     		cmp	r0, r3
 540 001e 0ADD     		ble	.L47
 180:../../applications/SPG30-sensor-example/src/sgp30.c **** 
 541              		.loc 1 180 9 is_stmt 1 discriminator 3 view .LVU142
 180:../../applications/SPG30-sensor-example/src/sgp30.c **** 
 542              		.loc 1 180 43 is_stmt 0 discriminator 3 view .LVU143
 543 0020 03F10C01 		add	r1, r3, #12
 544 0024 1C4A     		ldr	r2, .L49
 545 0026 02EB4102 		add	r2, r2, r1, lsl #1
 546 002a 9288     		ldrh	r2, [r2, #4]
 180:../../applications/SPG30-sensor-example/src/sgp30.c **** 
 547              		.loc 1 180 21 discriminator 3 view .LVU144
 548 002c 26F81320 		strh	r2, [r6, r3, lsl #1]	@ movhi
 179:../../applications/SPG30-sensor-example/src/sgp30.c ****         word_buf[i] = client_data.word_buf[i];
 549              		.loc 1 179 34 discriminator 3 view .LVU145
 550 0030 0133     		adds	r3, r3, #1
 551              	.LVL56:
 179:../../applications/SPG30-sensor-example/src/sgp30.c ****         word_buf[i] = client_data.word_buf[i];
 552              		.loc 1 179 34 discriminator 3 view .LVU146
 553 0032 1BB2     		sxth	r3, r3
 554              	.LVL57:
 179:../../applications/SPG30-sensor-example/src/sgp30.c ****         word_buf[i] = client_data.word_buf[i];
 555              		.loc 1 179 34 discriminator 3 view .LVU147
 556 0034 F2E7     		b	.L40
 557              	.L47:
 183:../../applications/SPG30-sensor-example/src/sgp30.c ****         signal = profile->signals[profile->number_of_signals - i - 1];
 558              		.loc 1 183 5 is_stmt 1 view .LVU148
 183:../../applications/SPG30-sensor-example/src/sgp30.c ****         signal = profile->signals[profile->number_of_signals - i - 1];
 559              		.loc 1 183 21 is_stmt 0 view .LVU149
 560 0036 2C89     		ldrh	r4, [r5, #8]
ARM GAS  C:\Users\RUBENJ~1\AppData\Local\Temp\ccZJq1Pt.s 			page 19


 183:../../applications/SPG30-sensor-example/src/sgp30.c ****         signal = profile->signals[profile->number_of_signals - i - 1];
 561              		.loc 1 183 41 view .LVU150
 562 0038 013C     		subs	r4, r4, #1
 183:../../applications/SPG30-sensor-example/src/sgp30.c ****         signal = profile->signals[profile->number_of_signals - i - 1];
 563              		.loc 1 183 12 view .LVU151
 564 003a 24B2     		sxth	r4, r4
 565              	.LVL58:
 183:../../applications/SPG30-sensor-example/src/sgp30.c ****         signal = profile->signals[profile->number_of_signals - i - 1];
 566              		.loc 1 183 48 view .LVU152
 567 003c 4FF00008 		mov	r8, #0
 183:../../applications/SPG30-sensor-example/src/sgp30.c ****         signal = profile->signals[profile->number_of_signals - i - 1];
 568              		.loc 1 183 5 view .LVU153
 569 0040 0BE0     		b	.L42
 570              	.LVL59:
 571              	.L43:
 190:../../applications/SPG30-sensor-example/src/sgp30.c ****     }
 572              		.loc 1 190 13 is_stmt 1 view .LVU154
 190:../../applications/SPG30-sensor-example/src/sgp30.c ****     }
 573              		.loc 1 190 37 is_stmt 0 view .LVU155
 574 0042 08F10C03 		add	r3, r8, #12
 575 0046 144A     		ldr	r2, .L49
 576              	.LVL60:
 190:../../applications/SPG30-sensor-example/src/sgp30.c ****     }
 577              		.loc 1 190 37 view .LVU156
 578 0048 02EB4303 		add	r3, r2, r3, lsl #1
 579 004c 9880     		strh	r0, [r3, #4]	@ movhi
 580              	.LVL61:
 581              	.L44:
 183:../../applications/SPG30-sensor-example/src/sgp30.c ****         signal = profile->signals[profile->number_of_signals - i - 1];
 582              		.loc 1 183 63 discriminator 2 view .LVU157
 583 004e 013C     		subs	r4, r4, #1
 584              	.LVL62:
 183:../../applications/SPG30-sensor-example/src/sgp30.c ****         signal = profile->signals[profile->number_of_signals - i - 1];
 585              		.loc 1 183 63 discriminator 2 view .LVU158
 586 0050 24B2     		sxth	r4, r4
 587              	.LVL63:
 183:../../applications/SPG30-sensor-example/src/sgp30.c ****         signal = profile->signals[profile->number_of_signals - i - 1];
 588              		.loc 1 183 71 discriminator 2 view .LVU159
 589 0052 08F10108 		add	r8, r8, #1
 590              	.LVL64:
 183:../../applications/SPG30-sensor-example/src/sgp30.c ****         signal = profile->signals[profile->number_of_signals - i - 1];
 591              		.loc 1 183 71 discriminator 2 view .LVU160
 592 0056 0FFA88F8 		sxth	r8, r8
 593              	.LVL65:
 594              	.L42:
 183:../../applications/SPG30-sensor-example/src/sgp30.c ****         signal = profile->signals[profile->number_of_signals - i - 1];
 595              		.loc 1 183 5 discriminator 1 view .LVU161
 596 005a 002C     		cmp	r4, #0
 597 005c 18DB     		blt	.L48
 184:../../applications/SPG30-sensor-example/src/sgp30.c ****         value = be16_to_cpu(word_buf[i]);
 598              		.loc 1 184 9 is_stmt 1 view .LVU162
 184:../../applications/SPG30-sensor-example/src/sgp30.c ****         value = be16_to_cpu(word_buf[i]);
 599              		.loc 1 184 25 is_stmt 0 view .LVU163
 600 005e 6A68     		ldr	r2, [r5, #4]
 184:../../applications/SPG30-sensor-example/src/sgp30.c ****         value = be16_to_cpu(word_buf[i]);
 601              		.loc 1 184 42 view .LVU164
 602 0060 2B89     		ldrh	r3, [r5, #8]
ARM GAS  C:\Users\RUBENJ~1\AppData\Local\Temp\ccZJq1Pt.s 			page 20


 184:../../applications/SPG30-sensor-example/src/sgp30.c ****         value = be16_to_cpu(word_buf[i]);
 603              		.loc 1 184 62 view .LVU165
 604 0062 1B1B     		subs	r3, r3, r4
 184:../../applications/SPG30-sensor-example/src/sgp30.c ****         value = be16_to_cpu(word_buf[i]);
 605              		.loc 1 184 34 view .LVU166
 606 0064 03F18043 		add	r3, r3, #1073741824
 607 0068 013B     		subs	r3, r3, #1
 184:../../applications/SPG30-sensor-example/src/sgp30.c ****         value = be16_to_cpu(word_buf[i]);
 608              		.loc 1 184 16 view .LVU167
 609 006a 52F82320 		ldr	r2, [r2, r3, lsl #2]
 610              	.LVL66:
 185:../../applications/SPG30-sensor-example/src/sgp30.c **** 
 611              		.loc 1 185 9 is_stmt 1 view .LVU168
 185:../../applications/SPG30-sensor-example/src/sgp30.c **** 
 612              		.loc 1 185 17 is_stmt 0 view .LVU169
 613 006e 36F81430 		ldrh	r3, [r6, r4, lsl #1]
 614 0072 180A     		lsrs	r0, r3, #8
 615 0074 40EA0320 		orr	r0, r0, r3, lsl #8
 185:../../applications/SPG30-sensor-example/src/sgp30.c **** 
 616              		.loc 1 185 15 view .LVU170
 617 0078 80B2     		uxth	r0, r0
 618              	.LVL67:
 187:../../applications/SPG30-sensor-example/src/sgp30.c ****             client_data.word_buf[j] = signal->conversion_function(value);
 619              		.loc 1 187 9 is_stmt 1 view .LVU171
 187:../../applications/SPG30-sensor-example/src/sgp30.c ****             client_data.word_buf[j] = signal->conversion_function(value);
 620              		.loc 1 187 19 is_stmt 0 view .LVU172
 621 007a 1368     		ldr	r3, [r2]
 187:../../applications/SPG30-sensor-example/src/sgp30.c ****             client_data.word_buf[j] = signal->conversion_function(value);
 622              		.loc 1 187 12 view .LVU173
 623 007c 002B     		cmp	r3, #0
 624 007e E0D0     		beq	.L43
 188:../../applications/SPG30-sensor-example/src/sgp30.c ****         else
 625              		.loc 1 188 13 is_stmt 1 view .LVU174
 188:../../applications/SPG30-sensor-example/src/sgp30.c ****         else
 626              		.loc 1 188 39 is_stmt 0 view .LVU175
 627 0080 9847     		blx	r3
 628              	.LVL68:
 188:../../applications/SPG30-sensor-example/src/sgp30.c ****         else
 629              		.loc 1 188 37 view .LVU176
 630 0082 08F10C03 		add	r3, r8, #12
 631 0086 044A     		ldr	r2, .L49
 632 0088 02EB4303 		add	r3, r2, r3, lsl #1
 633 008c 9880     		strh	r0, [r3, #4]	@ movhi
 634 008e DEE7     		b	.L44
 635              	.L48:
 192:../../applications/SPG30-sensor-example/src/sgp30.c **** 
 636              		.loc 1 192 1 view .LVU177
 637 0090 BD46     		mov	sp, r7
 638              	.LCFI12:
 639              		.cfi_def_cfa_register 13
 640              		@ sp needed
 641 0092 BDE8F081 		pop	{r4, r5, r6, r7, r8, pc}
 642              	.LVL69:
 643              	.L50:
 192:../../applications/SPG30-sensor-example/src/sgp30.c **** 
 644              		.loc 1 192 1 view .LVU178
 645 0096 00BF     		.align	2
ARM GAS  C:\Users\RUBENJ~1\AppData\Local\Temp\ccZJq1Pt.s 			page 21


 646              	.L49:
 647 0098 00000000 		.word	.LANCHOR0
 648              		.cfi_endproc
 649              	.LFE125:
 651              		.section	.text.read_measurement,"ax",%progbits
 652              		.align	1
 653              		.syntax unified
 654              		.thumb
 655              		.thumb_func
 656              		.fpu fpv4-sp-d16
 658              	read_measurement:
 659              	.LVL70:
 660              	.LFB126:
 199:../../applications/SPG30-sensor-example/src/sgp30.c **** 
 661              		.loc 1 199 64 is_stmt 1 view -0
 662              		.cfi_startproc
 663              		@ args = 0, pretend = 0, frame = 0
 664              		@ frame_needed = 0, uses_anonymous_args = 0
 199:../../applications/SPG30-sensor-example/src/sgp30.c **** 
 665              		.loc 1 199 64 is_stmt 0 view .LVU180
 666 0000 38B5     		push	{r3, r4, r5, lr}
 667              	.LCFI13:
 668              		.cfi_def_cfa_offset 16
 669              		.cfi_offset 3, -16
 670              		.cfi_offset 4, -12
 671              		.cfi_offset 5, -8
 672              		.cfi_offset 14, -4
 201:../../applications/SPG30-sensor-example/src/sgp30.c **** 
 673              		.loc 1 201 5 is_stmt 1 view .LVU181
 203:../../applications/SPG30-sensor-example/src/sgp30.c **** 
 674              		.loc 1 203 5 view .LVU182
 203:../../applications/SPG30-sensor-example/src/sgp30.c **** 
 675              		.loc 1 203 24 is_stmt 0 view .LVU183
 676 0002 0C4B     		ldr	r3, .L56
 677 0004 1B78     		ldrb	r3, [r3]	@ zero_extendqisi2
 203:../../applications/SPG30-sensor-example/src/sgp30.c **** 
 678              		.loc 1 203 5 view .LVU184
 679 0006 012B     		cmp	r3, #1
 680 0008 0ED1     		bne	.L53
 681 000a 0446     		mov	r4, r0
 206:../../applications/SPG30-sensor-example/src/sgp30.c ****                                      profile->number_of_signals);
 682              		.loc 1 206 13 is_stmt 1 view .LVU185
 206:../../applications/SPG30-sensor-example/src/sgp30.c ****                                      profile->number_of_signals);
 683              		.loc 1 206 19 is_stmt 0 view .LVU186
 684 000c 0189     		ldrh	r1, [r0, #8]
 685 000e 0A48     		ldr	r0, .L56+4
 686              	.LVL71:
 206:../../applications/SPG30-sensor-example/src/sgp30.c ****                                      profile->number_of_signals);
 687              		.loc 1 206 19 view .LVU187
 688 0010 FFF7FEFF 		bl	sgp_i2c_read_words
 689              	.LVL72:
 209:../../applications/SPG30-sensor-example/src/sgp30.c ****                 /* Measurement in progress */
 690              		.loc 1 209 13 is_stmt 1 view .LVU188
 209:../../applications/SPG30-sensor-example/src/sgp30.c ****                 /* Measurement in progress */
 691              		.loc 1 209 16 is_stmt 0 view .LVU189
 692 0014 0546     		mov	r5, r0
 693 0016 50B9     		cbnz	r0, .L54
ARM GAS  C:\Users\RUBENJ~1\AppData\Local\Temp\ccZJq1Pt.s 			page 22


 213:../../applications/SPG30-sensor-example/src/sgp30.c ****             client_data.current_state = WAIT_STATE;
 694              		.loc 1 213 13 is_stmt 1 view .LVU190
 695 0018 2046     		mov	r0, r4
 696              	.LVL73:
 213:../../applications/SPG30-sensor-example/src/sgp30.c ****             client_data.current_state = WAIT_STATE;
 697              		.loc 1 213 13 is_stmt 0 view .LVU191
 698 001a FFF7FEFF 		bl	unpack_signals
 699              	.LVL74:
 214:../../applications/SPG30-sensor-example/src/sgp30.c **** 
 700              		.loc 1 214 13 is_stmt 1 view .LVU192
 214:../../applications/SPG30-sensor-example/src/sgp30.c **** 
 701              		.loc 1 214 39 is_stmt 0 view .LVU193
 702 001e 054B     		ldr	r3, .L56
 703 0020 0022     		movs	r2, #0
 704 0022 1A70     		strb	r2, [r3]
 216:../../applications/SPG30-sensor-example/src/sgp30.c **** 
 705              		.loc 1 216 13 is_stmt 1 view .LVU194
 706              	.LVL75:
 707              	.L52:
 222:../../applications/SPG30-sensor-example/src/sgp30.c **** 
 708              		.loc 1 222 1 is_stmt 0 view .LVU195
 709 0024 2846     		mov	r0, r5
 710 0026 38BD     		pop	{r3, r4, r5, pc}
 711              	.LVL76:
 712              	.L53:
 220:../../applications/SPG30-sensor-example/src/sgp30.c ****     }
 713              		.loc 1 220 20 view .LVU196
 714 0028 4FF0FF35 		mov	r5, #-1
 715 002c FAE7     		b	.L52
 716              	.LVL77:
 717              	.L54:
 211:../../applications/SPG30-sensor-example/src/sgp30.c **** 
 718              		.loc 1 211 24 view .LVU197
 719 002e 4FF0FF35 		mov	r5, #-1
 720 0032 F7E7     		b	.L52
 721              	.L57:
 722              		.align	2
 723              	.L56:
 724 0034 00000000 		.word	.LANCHOR0
 725 0038 1C000000 		.word	.LANCHOR0+28
 726              		.cfi_endproc
 727              	.LFE126:
 729              		.section	.text.sgp_run_profile,"ax",%progbits
 730              		.align	1
 731              		.syntax unified
 732              		.thumb
 733              		.thumb_func
 734              		.fpu fpv4-sp-d16
 736              	sgp_run_profile:
 737              	.LVL78:
 738              	.LFB128:
 253:../../applications/SPG30-sensor-example/src/sgp30.c ****     u32 duration_us = profile->duration_us + 5;
 739              		.loc 1 253 63 is_stmt 1 view -0
 740              		.cfi_startproc
 741              		@ args = 0, pretend = 0, frame = 0
 742              		@ frame_needed = 0, uses_anonymous_args = 0
 253:../../applications/SPG30-sensor-example/src/sgp30.c ****     u32 duration_us = profile->duration_us + 5;
ARM GAS  C:\Users\RUBENJ~1\AppData\Local\Temp\ccZJq1Pt.s 			page 23


 743              		.loc 1 253 63 is_stmt 0 view .LVU199
 744 0000 38B5     		push	{r3, r4, r5, lr}
 745              	.LCFI14:
 746              		.cfi_def_cfa_offset 16
 747              		.cfi_offset 3, -16
 748              		.cfi_offset 4, -12
 749              		.cfi_offset 5, -8
 750              		.cfi_offset 14, -4
 751 0002 0546     		mov	r5, r0
 254:../../applications/SPG30-sensor-example/src/sgp30.c **** 
 752              		.loc 1 254 5 is_stmt 1 view .LVU200
 254:../../applications/SPG30-sensor-example/src/sgp30.c **** 
 753              		.loc 1 254 30 is_stmt 0 view .LVU201
 754 0004 50F80C4B 		ldr	r4, [r0], #12
 755              	.LVL79:
 256:../../applications/SPG30-sensor-example/src/sgp30.c ****         return STATUS_FAIL;
 756              		.loc 1 256 5 is_stmt 1 view .LVU202
 256:../../applications/SPG30-sensor-example/src/sgp30.c ****         return STATUS_FAIL;
 757              		.loc 1 256 9 is_stmt 0 view .LVU203
 758 0008 FFF7FEFF 		bl	sgp_i2c_write
 759              	.LVL80:
 256:../../applications/SPG30-sensor-example/src/sgp30.c ****         return STATUS_FAIL;
 760              		.loc 1 256 8 view .LVU204
 761 000c B0F1FF3F 		cmp	r0, #-1
 762 0010 06D0     		beq	.L59
 763 0012 0534     		adds	r4, r4, #5
 764              	.LVL81:
 259:../../applications/SPG30-sensor-example/src/sgp30.c **** 
 765              		.loc 1 259 5 is_stmt 1 view .LVU205
 766 0014 2046     		mov	r0, r4
 767 0016 FFF7FEFF 		bl	sensirion_sleep_usec
 768              	.LVL82:
 261:../../applications/SPG30-sensor-example/src/sgp30.c ****         client_data.current_state = MEASURING_PROFILE_STATE;
 769              		.loc 1 261 5 view .LVU206
 261:../../applications/SPG30-sensor-example/src/sgp30.c ****         client_data.current_state = MEASURING_PROFILE_STATE;
 770              		.loc 1 261 16 is_stmt 0 view .LVU207
 771 001a 2B89     		ldrh	r3, [r5, #8]
 261:../../applications/SPG30-sensor-example/src/sgp30.c ****         client_data.current_state = MEASURING_PROFILE_STATE;
 772              		.loc 1 261 8 view .LVU208
 773 001c 0BB9     		cbnz	r3, .L62
 266:../../applications/SPG30-sensor-example/src/sgp30.c **** }
 774              		.loc 1 266 12 view .LVU209
 775 001e 0020     		movs	r0, #0
 776              	.LVL83:
 777              	.L59:
 267:../../applications/SPG30-sensor-example/src/sgp30.c **** 
 778              		.loc 1 267 1 view .LVU210
 779 0020 38BD     		pop	{r3, r4, r5, pc}
 780              	.LVL84:
 781              	.L62:
 262:../../applications/SPG30-sensor-example/src/sgp30.c ****         return read_measurement(profile);
 782              		.loc 1 262 9 is_stmt 1 view .LVU211
 262:../../applications/SPG30-sensor-example/src/sgp30.c ****         return read_measurement(profile);
 783              		.loc 1 262 35 is_stmt 0 view .LVU212
 784 0022 034B     		ldr	r3, .L63
 785 0024 0122     		movs	r2, #1
 786 0026 1A70     		strb	r2, [r3]
ARM GAS  C:\Users\RUBENJ~1\AppData\Local\Temp\ccZJq1Pt.s 			page 24


 263:../../applications/SPG30-sensor-example/src/sgp30.c ****     }
 787              		.loc 1 263 9 is_stmt 1 view .LVU213
 263:../../applications/SPG30-sensor-example/src/sgp30.c ****     }
 788              		.loc 1 263 16 is_stmt 0 view .LVU214
 789 0028 2846     		mov	r0, r5
 790 002a FFF7FEFF 		bl	read_measurement
 791              	.LVL85:
 792 002e F7E7     		b	.L59
 793              	.L64:
 794              		.align	2
 795              	.L63:
 796 0030 00000000 		.word	.LANCHOR0
 797              		.cfi_endproc
 798              	.LFE128:
 800              		.section	.text.sgp_run_profile_by_number,"ax",%progbits
 801              		.align	1
 802              		.syntax unified
 803              		.thumb
 804              		.thumb_func
 805              		.fpu fpv4-sp-d16
 807              	sgp_run_profile_by_number:
 808              	.LVL86:
 809              	.LFB130:
 300:../../applications/SPG30-sensor-example/src/sgp30.c ****     const struct sgp_profile *profile;
 810              		.loc 1 300 50 is_stmt 1 view -0
 811              		.cfi_startproc
 812              		@ args = 0, pretend = 0, frame = 0
 813              		@ frame_needed = 0, uses_anonymous_args = 0
 300:../../applications/SPG30-sensor-example/src/sgp30.c ****     const struct sgp_profile *profile;
 814              		.loc 1 300 50 is_stmt 0 view .LVU216
 815 0000 08B5     		push	{r3, lr}
 816              	.LCFI15:
 817              		.cfi_def_cfa_offset 8
 818              		.cfi_offset 3, -8
 819              		.cfi_offset 14, -4
 301:../../applications/SPG30-sensor-example/src/sgp30.c **** 
 820              		.loc 1 301 5 is_stmt 1 view .LVU217
 303:../../applications/SPG30-sensor-example/src/sgp30.c ****     if (profile == NULL)
 821              		.loc 1 303 5 view .LVU218
 303:../../applications/SPG30-sensor-example/src/sgp30.c ****     if (profile == NULL)
 822              		.loc 1 303 15 is_stmt 0 view .LVU219
 823 0002 FFF7FEFF 		bl	sgp_get_profile_by_number
 824              	.LVL87:
 304:../../applications/SPG30-sensor-example/src/sgp30.c ****         return STATUS_FAIL;
 825              		.loc 1 304 5 is_stmt 1 view .LVU220
 304:../../applications/SPG30-sensor-example/src/sgp30.c ****         return STATUS_FAIL;
 826              		.loc 1 304 8 is_stmt 0 view .LVU221
 827 0006 30B1     		cbz	r0, .L67
 307:../../applications/SPG30-sensor-example/src/sgp30.c ****         return STATUS_FAIL;
 828              		.loc 1 307 5 is_stmt 1 view .LVU222
 307:../../applications/SPG30-sensor-example/src/sgp30.c ****         return STATUS_FAIL;
 829              		.loc 1 307 9 is_stmt 0 view .LVU223
 830 0008 FFF7FEFF 		bl	sgp_run_profile
 831              	.LVL88:
 307:../../applications/SPG30-sensor-example/src/sgp30.c ****         return STATUS_FAIL;
 832              		.loc 1 307 8 view .LVU224
 833 000c B0F1FF3F 		cmp	r0, #-1
ARM GAS  C:\Users\RUBENJ~1\AppData\Local\Temp\ccZJq1Pt.s 			page 25


 834 0010 00D0     		beq	.L66
 310:../../applications/SPG30-sensor-example/src/sgp30.c **** }
 835              		.loc 1 310 12 view .LVU225
 836 0012 0020     		movs	r0, #0
 837              	.L66:
 311:../../applications/SPG30-sensor-example/src/sgp30.c **** 
 838              		.loc 1 311 1 view .LVU226
 839 0014 08BD     		pop	{r3, pc}
 840              	.LVL89:
 841              	.L67:
 305:../../applications/SPG30-sensor-example/src/sgp30.c **** 
 842              		.loc 1 305 16 view .LVU227
 843 0016 4FF0FF30 		mov	r0, #-1
 844              	.LVL90:
 305:../../applications/SPG30-sensor-example/src/sgp30.c **** 
 845              		.loc 1 305 16 view .LVU228
 846 001a FBE7     		b	.L66
 847              		.cfi_endproc
 848              	.LFE130:
 850              		.section	.text.sgp_fill_cmd_send_buf,"ax",%progbits
 851              		.align	1
 852              		.syntax unified
 853              		.thumb
 854              		.thumb_func
 855              		.fpu fpv4-sp-d16
 857              	sgp_fill_cmd_send_buf:
 858              	.LVL91:
 859              	.LFB131:
 329:../../applications/SPG30-sensor-example/src/sgp30.c ****     u16 word;
 860              		.loc 1 329 64 is_stmt 1 view -0
 861              		.cfi_startproc
 862              		@ args = 0, pretend = 0, frame = 8
 863              		@ frame_needed = 0, uses_anonymous_args = 0
 329:../../applications/SPG30-sensor-example/src/sgp30.c ****     u16 word;
 864              		.loc 1 329 64 is_stmt 0 view .LVU230
 865 0000 2DE9F041 		push	{r4, r5, r6, r7, r8, lr}
 866              	.LCFI16:
 867              		.cfi_def_cfa_offset 24
 868              		.cfi_offset 4, -24
 869              		.cfi_offset 5, -20
 870              		.cfi_offset 6, -16
 871              		.cfi_offset 7, -12
 872              		.cfi_offset 8, -8
 873              		.cfi_offset 14, -4
 874 0004 82B0     		sub	sp, sp, #8
 875              	.LCFI17:
 876              		.cfi_def_cfa_offset 32
 877 0006 0646     		mov	r6, r0
 878 0008 9046     		mov	r8, r2
 879 000a 1F46     		mov	r7, r3
 330:../../applications/SPG30-sensor-example/src/sgp30.c ****     u8 crc;
 880              		.loc 1 330 5 is_stmt 1 view .LVU231
 331:../../applications/SPG30-sensor-example/src/sgp30.c ****     u8 i;
 881              		.loc 1 331 5 view .LVU232
 332:../../applications/SPG30-sensor-example/src/sgp30.c ****     u8 idx = 0;
 882              		.loc 1 332 5 view .LVU233
 333:../../applications/SPG30-sensor-example/src/sgp30.c **** 
ARM GAS  C:\Users\RUBENJ~1\AppData\Local\Temp\ccZJq1Pt.s 			page 26


 883              		.loc 1 333 5 view .LVU234
 884              	.LVL92:
 335:../../applications/SPG30-sensor-example/src/sgp30.c ****     buf[idx++] = cmd->buf[1];
 885              		.loc 1 335 5 view .LVU235
 335:../../applications/SPG30-sensor-example/src/sgp30.c ****     buf[idx++] = cmd->buf[1];
 886              		.loc 1 335 26 is_stmt 0 view .LVU236
 887 000c 0B78     		ldrb	r3, [r1]	@ zero_extendqisi2
 888              	.LVL93:
 335:../../applications/SPG30-sensor-example/src/sgp30.c ****     buf[idx++] = cmd->buf[1];
 889              		.loc 1 335 16 view .LVU237
 890 000e 0370     		strb	r3, [r0]
 336:../../applications/SPG30-sensor-example/src/sgp30.c **** 
 891              		.loc 1 336 5 is_stmt 1 view .LVU238
 892              	.LVL94:
 336:../../applications/SPG30-sensor-example/src/sgp30.c **** 
 893              		.loc 1 336 26 is_stmt 0 view .LVU239
 894 0010 4B78     		ldrb	r3, [r1, #1]	@ zero_extendqisi2
 336:../../applications/SPG30-sensor-example/src/sgp30.c **** 
 895              		.loc 1 336 16 view .LVU240
 896 0012 4370     		strb	r3, [r0, #1]
 338:../../applications/SPG30-sensor-example/src/sgp30.c ****         word = be16_to_cpu(args[i]);
 897              		.loc 1 338 5 is_stmt 1 view .LVU241
 898              	.LVL95:
 336:../../applications/SPG30-sensor-example/src/sgp30.c **** 
 899              		.loc 1 336 12 is_stmt 0 view .LVU242
 900 0014 0224     		movs	r4, #2
 338:../../applications/SPG30-sensor-example/src/sgp30.c ****         word = be16_to_cpu(args[i]);
 901              		.loc 1 338 12 view .LVU243
 902 0016 0025     		movs	r5, #0
 903              	.LVL96:
 904              	.L70:
 338:../../applications/SPG30-sensor-example/src/sgp30.c ****         word = be16_to_cpu(args[i]);
 905              		.loc 1 338 5 discriminator 1 view .LVU244
 906 0018 BD42     		cmp	r5, r7
 907 001a 1CD2     		bcs	.L73
 339:../../applications/SPG30-sensor-example/src/sgp30.c ****         crc = sensirion_common_generate_crc((u8 *)&word, SGP_WORD_LEN);
 908              		.loc 1 339 9 is_stmt 1 discriminator 3 view .LVU245
 339:../../applications/SPG30-sensor-example/src/sgp30.c ****         crc = sensirion_common_generate_crc((u8 *)&word, SGP_WORD_LEN);
 909              		.loc 1 339 16 is_stmt 0 discriminator 3 view .LVU246
 910 001c 38F81520 		ldrh	r2, [r8, r5, lsl #1]
 911 0020 130A     		lsrs	r3, r2, #8
 912 0022 43EA0223 		orr	r3, r3, r2, lsl #8
 339:../../applications/SPG30-sensor-example/src/sgp30.c ****         crc = sensirion_common_generate_crc((u8 *)&word, SGP_WORD_LEN);
 913              		.loc 1 339 14 discriminator 3 view .LVU247
 914 0026 ADF80630 		strh	r3, [sp, #6]	@ movhi
 340:../../applications/SPG30-sensor-example/src/sgp30.c **** 
 915              		.loc 1 340 9 is_stmt 1 discriminator 3 view .LVU248
 340:../../applications/SPG30-sensor-example/src/sgp30.c **** 
 916              		.loc 1 340 15 is_stmt 0 discriminator 3 view .LVU249
 917 002a 0221     		movs	r1, #2
 918 002c 0DF10600 		add	r0, sp, #6
 919 0030 FFF7FEFF 		bl	sensirion_common_generate_crc
 920              	.LVL97:
 342:../../applications/SPG30-sensor-example/src/sgp30.c ****         buf[idx++] = (u8)((word & 0xFF00) >> 8);
 921              		.loc 1 342 9 is_stmt 1 discriminator 3 view .LVU250
 342:../../applications/SPG30-sensor-example/src/sgp30.c ****         buf[idx++] = (u8)((word & 0xFF00) >> 8);
 922              		.loc 1 342 16 is_stmt 0 discriminator 3 view .LVU251
ARM GAS  C:\Users\RUBENJ~1\AppData\Local\Temp\ccZJq1Pt.s 			page 27


 923 0034 621C     		adds	r2, r4, #1
 924 0036 D2B2     		uxtb	r2, r2
 925              	.LVL98:
 342:../../applications/SPG30-sensor-example/src/sgp30.c ****         buf[idx++] = (u8)((word & 0xFF00) >> 8);
 926              		.loc 1 342 22 discriminator 3 view .LVU252
 927 0038 9DF80630 		ldrb	r3, [sp, #6]	@ zero_extendqisi2
 342:../../applications/SPG30-sensor-example/src/sgp30.c ****         buf[idx++] = (u8)((word & 0xFF00) >> 8);
 928              		.loc 1 342 20 discriminator 3 view .LVU253
 929 003c 3355     		strb	r3, [r6, r4]
 343:../../applications/SPG30-sensor-example/src/sgp30.c ****         buf[idx++] = crc;
 930              		.loc 1 343 9 is_stmt 1 discriminator 3 view .LVU254
 343:../../applications/SPG30-sensor-example/src/sgp30.c ****         buf[idx++] = crc;
 931              		.loc 1 343 43 is_stmt 0 discriminator 3 view .LVU255
 932 003e BDF80610 		ldrh	r1, [sp, #6]
 343:../../applications/SPG30-sensor-example/src/sgp30.c ****         buf[idx++] = crc;
 933              		.loc 1 343 16 discriminator 3 view .LVU256
 934 0042 A31C     		adds	r3, r4, #2
 935 0044 DBB2     		uxtb	r3, r3
 936              	.LVL99:
 343:../../applications/SPG30-sensor-example/src/sgp30.c ****         buf[idx++] = crc;
 937              		.loc 1 343 22 discriminator 3 view .LVU257
 938 0046 090A     		lsrs	r1, r1, #8
 343:../../applications/SPG30-sensor-example/src/sgp30.c ****         buf[idx++] = crc;
 939              		.loc 1 343 20 discriminator 3 view .LVU258
 940 0048 B154     		strb	r1, [r6, r2]
 344:../../applications/SPG30-sensor-example/src/sgp30.c ****     }
 941              		.loc 1 344 9 is_stmt 1 discriminator 3 view .LVU259
 344:../../applications/SPG30-sensor-example/src/sgp30.c ****     }
 942              		.loc 1 344 16 is_stmt 0 discriminator 3 view .LVU260
 943 004a 0334     		adds	r4, r4, #3
 944 004c E4B2     		uxtb	r4, r4
 945              	.LVL100:
 344:../../applications/SPG30-sensor-example/src/sgp30.c ****     }
 946              		.loc 1 344 20 discriminator 3 view .LVU261
 947 004e F054     		strb	r0, [r6, r3]
 338:../../applications/SPG30-sensor-example/src/sgp30.c ****         word = be16_to_cpu(args[i]);
 948              		.loc 1 338 31 discriminator 3 view .LVU262
 949 0050 0135     		adds	r5, r5, #1
 950              	.LVL101:
 338:../../applications/SPG30-sensor-example/src/sgp30.c ****         word = be16_to_cpu(args[i]);
 951              		.loc 1 338 31 discriminator 3 view .LVU263
 952 0052 EDB2     		uxtb	r5, r5
 953              	.LVL102:
 338:../../applications/SPG30-sensor-example/src/sgp30.c ****         word = be16_to_cpu(args[i]);
 954              		.loc 1 338 31 discriminator 3 view .LVU264
 955 0054 E0E7     		b	.L70
 956              	.LVL103:
 957              	.L73:
 346:../../applications/SPG30-sensor-example/src/sgp30.c **** }
 958              		.loc 1 346 5 is_stmt 1 view .LVU265
 347:../../applications/SPG30-sensor-example/src/sgp30.c **** 
 959              		.loc 1 347 1 is_stmt 0 view .LVU266
 960 0056 2046     		mov	r0, r4
 961 0058 02B0     		add	sp, sp, #8
 962              	.LCFI18:
 963              		.cfi_def_cfa_offset 24
 964              		@ sp needed
ARM GAS  C:\Users\RUBENJ~1\AppData\Local\Temp\ccZJq1Pt.s 			page 28


 965 005a BDE8F081 		pop	{r4, r5, r6, r7, r8, pc}
 347:../../applications/SPG30-sensor-example/src/sgp30.c **** 
 966              		.loc 1 347 1 view .LVU267
 967              		.cfi_endproc
 968              	.LFE131:
 970              		.section	.text.sgp_measure_test,"ax",%progbits
 971              		.align	1
 972              		.global	sgp_measure_test
 973              		.syntax unified
 974              		.thumb
 975              		.thumb_func
 976              		.fpu fpv4-sp-d16
 978              	sgp_measure_test:
 979              	.LVL104:
 980              	.LFB133:
 379:../../applications/SPG30-sensor-example/src/sgp30.c **** 
 380:../../applications/SPG30-sensor-example/src/sgp30.c **** 
 381:../../applications/SPG30-sensor-example/src/sgp30.c **** /**
 382:../../applications/SPG30-sensor-example/src/sgp30.c ****  * sgp_measure_test() - Run the on-chip self-test
 383:../../applications/SPG30-sensor-example/src/sgp30.c ****  *
 384:../../applications/SPG30-sensor-example/src/sgp30.c ****  * This method is executed synchronously and blocks for the duration of the
 385:../../applications/SPG30-sensor-example/src/sgp30.c ****  * measurement (~220ms)
 386:../../applications/SPG30-sensor-example/src/sgp30.c ****  *
 387:../../applications/SPG30-sensor-example/src/sgp30.c ****  * @test_result:    Allocated buffer to store the chip's error code.
 388:../../applications/SPG30-sensor-example/src/sgp30.c ****  *                  test_result is SGP_CMD_MEASURE_TEST_OK on success or set to
 389:../../applications/SPG30-sensor-example/src/sgp30.c ****  *                  zero (0) in the case of a communication error.
 390:../../applications/SPG30-sensor-example/src/sgp30.c ****  *
 391:../../applications/SPG30-sensor-example/src/sgp30.c ****  * Return: STATUS_OK on a successful self-test, STATUS_FAIL otherwise.
 392:../../applications/SPG30-sensor-example/src/sgp30.c ****  */
 393:../../applications/SPG30-sensor-example/src/sgp30.c **** s16 sgp_measure_test(u16 *test_result) {
 981              		.loc 1 393 40 is_stmt 1 view -0
 982              		.cfi_startproc
 983              		@ args = 0, pretend = 0, frame = 8
 984              		@ frame_needed = 0, uses_anonymous_args = 0
 985              		.loc 1 393 40 is_stmt 0 view .LVU269
 986 0000 10B5     		push	{r4, lr}
 987              	.LCFI19:
 988              		.cfi_def_cfa_offset 8
 989              		.cfi_offset 4, -8
 990              		.cfi_offset 14, -4
 991 0002 82B0     		sub	sp, sp, #8
 992              	.LCFI20:
 993              		.cfi_def_cfa_offset 16
 994 0004 0446     		mov	r4, r0
 394:../../applications/SPG30-sensor-example/src/sgp30.c ****     u16 measure_test_word_buf[SGP_CMD_MEASURE_TEST_WORDS];
 995              		.loc 1 394 5 is_stmt 1 view .LVU270
 395:../../applications/SPG30-sensor-example/src/sgp30.c **** 
 396:../../applications/SPG30-sensor-example/src/sgp30.c ****     *test_result = 0;
 996              		.loc 1 396 5 view .LVU271
 997              		.loc 1 396 18 is_stmt 0 view .LVU272
 998 0006 0023     		movs	r3, #0
 999 0008 0380     		strh	r3, [r0]	@ movhi
 397:../../applications/SPG30-sensor-example/src/sgp30.c **** 
 398:../../applications/SPG30-sensor-example/src/sgp30.c ****     if (sgp_i2c_write(&sgp_cmd_measure_test) != STATUS_OK)
 1000              		.loc 1 398 5 is_stmt 1 view .LVU273
 1001              		.loc 1 398 9 is_stmt 0 view .LVU274
 1002 000a 1148     		ldr	r0, .L80
ARM GAS  C:\Users\RUBENJ~1\AppData\Local\Temp\ccZJq1Pt.s 			page 29


 1003              	.LVL105:
 1004              		.loc 1 398 9 view .LVU275
 1005 000c FFF7FEFF 		bl	sgp_i2c_write
 1006              	.LVL106:
 1007              		.loc 1 398 8 view .LVU276
 1008 0010 C0B9     		cbnz	r0, .L76
 399:../../applications/SPG30-sensor-example/src/sgp30.c ****         return STATUS_FAIL;
 400:../../applications/SPG30-sensor-example/src/sgp30.c **** 
 401:../../applications/SPG30-sensor-example/src/sgp30.c ****     sensirion_sleep_usec(SGP_CMD_MEASURE_TEST_DURATION_US);
 1009              		.loc 1 401 5 is_stmt 1 view .LVU277
 1010 0012 1048     		ldr	r0, .L80+4
 1011 0014 FFF7FEFF 		bl	sensirion_sleep_usec
 1012              	.LVL107:
 402:../../applications/SPG30-sensor-example/src/sgp30.c **** 
 403:../../applications/SPG30-sensor-example/src/sgp30.c ****     if (sgp_i2c_read_words(measure_test_word_buf,
 1013              		.loc 1 403 5 view .LVU278
 1014              		.loc 1 403 9 is_stmt 0 view .LVU279
 1015 0018 0121     		movs	r1, #1
 1016 001a 01A8     		add	r0, sp, #4
 1017 001c FFF7FEFF 		bl	sgp_i2c_read_words
 1018              	.LVL108:
 1019              		.loc 1 403 8 view .LVU280
 1020 0020 0146     		mov	r1, r0
 1021 0022 90B9     		cbnz	r0, .L77
 404:../../applications/SPG30-sensor-example/src/sgp30.c ****                            SGP_CMD_MEASURE_TEST_WORDS) != STATUS_OK)
 405:../../applications/SPG30-sensor-example/src/sgp30.c ****         return STATUS_FAIL;
 406:../../applications/SPG30-sensor-example/src/sgp30.c **** 
 407:../../applications/SPG30-sensor-example/src/sgp30.c ****     *test_result = be16_to_cpu(*measure_test_word_buf);
 1022              		.loc 1 407 5 is_stmt 1 view .LVU281
 1023              		.loc 1 407 20 is_stmt 0 view .LVU282
 1024 0024 BDF80420 		ldrh	r2, [sp, #4]
 1025 0028 130A     		lsrs	r3, r2, #8
 1026 002a 43EA0223 		orr	r3, r3, r2, lsl #8
 1027 002e 9BB2     		uxth	r3, r3
 1028              		.loc 1 407 18 view .LVU283
 1029 0030 2380     		strh	r3, [r4]	@ movhi
 408:../../applications/SPG30-sensor-example/src/sgp30.c ****     if (*test_result == SGP_CMD_MEASURE_TEST_OK)
 1030              		.loc 1 408 5 is_stmt 1 view .LVU284
 1031              		.loc 1 408 8 is_stmt 0 view .LVU285
 1032 0032 B3F5544F 		cmp	r3, #54272
 1033 0036 02D1     		bne	.L79
 1034              	.L75:
 409:../../applications/SPG30-sensor-example/src/sgp30.c ****         return STATUS_OK;
 410:../../applications/SPG30-sensor-example/src/sgp30.c **** 
 411:../../applications/SPG30-sensor-example/src/sgp30.c ****     return STATUS_FAIL;
 412:../../applications/SPG30-sensor-example/src/sgp30.c **** }
 1035              		.loc 1 412 1 view .LVU286
 1036 0038 0846     		mov	r0, r1
 1037 003a 02B0     		add	sp, sp, #8
 1038              	.LCFI21:
 1039              		.cfi_remember_state
 1040              		.cfi_def_cfa_offset 8
 1041              		@ sp needed
 1042 003c 10BD     		pop	{r4, pc}
 1043              	.LVL109:
 1044              	.L79:
 1045              	.LCFI22:
ARM GAS  C:\Users\RUBENJ~1\AppData\Local\Temp\ccZJq1Pt.s 			page 30


 1046              		.cfi_restore_state
 411:../../applications/SPG30-sensor-example/src/sgp30.c **** }
 1047              		.loc 1 411 12 view .LVU287
 1048 003e 4FF0FF31 		mov	r1, #-1
 1049 0042 F9E7     		b	.L75
 1050              	.L76:
 399:../../applications/SPG30-sensor-example/src/sgp30.c **** 
 1051              		.loc 1 399 16 view .LVU288
 1052 0044 4FF0FF31 		mov	r1, #-1
 1053 0048 F6E7     		b	.L75
 1054              	.L77:
 405:../../applications/SPG30-sensor-example/src/sgp30.c **** 
 1055              		.loc 1 405 16 view .LVU289
 1056 004a 4FF0FF31 		mov	r1, #-1
 1057 004e F3E7     		b	.L75
 1058              	.L81:
 1059              		.align	2
 1060              	.L80:
 1061 0050 00000000 		.word	.LANCHOR2
 1062 0054 605B0300 		.word	220000
 1063              		.cfi_endproc
 1064              	.LFE133:
 1066              		.section	.text.sgp_measure_iaq,"ax",%progbits
 1067              		.align	1
 1068              		.global	sgp_measure_iaq
 1069              		.syntax unified
 1070              		.thumb
 1071              		.thumb_func
 1072              		.fpu fpv4-sp-d16
 1074              	sgp_measure_iaq:
 1075              	.LFB134:
 413:../../applications/SPG30-sensor-example/src/sgp30.c **** 
 414:../../applications/SPG30-sensor-example/src/sgp30.c **** 
 415:../../applications/SPG30-sensor-example/src/sgp30.c **** /**
 416:../../applications/SPG30-sensor-example/src/sgp30.c ****  * sgp_measure_iaq() - Measure IAQ values async
 417:../../applications/SPG30-sensor-example/src/sgp30.c ****  *
 418:../../applications/SPG30-sensor-example/src/sgp30.c ****  * The profile is executed asynchronously. Use sgp_read_iaq to get the
 419:../../applications/SPG30-sensor-example/src/sgp30.c ****  * values.
 420:../../applications/SPG30-sensor-example/src/sgp30.c ****  *
 421:../../applications/SPG30-sensor-example/src/sgp30.c ****  * Return:  STATUS_OK on success, else STATUS_FAIL
 422:../../applications/SPG30-sensor-example/src/sgp30.c ****  */
 423:../../applications/SPG30-sensor-example/src/sgp30.c **** s16 sgp_measure_iaq() {
 1076              		.loc 1 423 23 is_stmt 1 view -0
 1077              		.cfi_startproc
 1078              		@ args = 0, pretend = 0, frame = 0
 1079              		@ frame_needed = 0, uses_anonymous_args = 0
 1080 0000 08B5     		push	{r3, lr}
 1081              	.LCFI23:
 1082              		.cfi_def_cfa_offset 8
 1083              		.cfi_offset 3, -8
 1084              		.cfi_offset 14, -4
 424:../../applications/SPG30-sensor-example/src/sgp30.c ****     const struct sgp_profile *profile;
 1085              		.loc 1 424 5 view .LVU291
 425:../../applications/SPG30-sensor-example/src/sgp30.c **** 
 426:../../applications/SPG30-sensor-example/src/sgp30.c ****     profile = sgp_get_profile_by_number(PROFILE_NUMBER_IAQ_MEASURE);
 1086              		.loc 1 426 5 view .LVU292
 1087              		.loc 1 426 15 is_stmt 0 view .LVU293
ARM GAS  C:\Users\RUBENJ~1\AppData\Local\Temp\ccZJq1Pt.s 			page 31


 1088 0002 0120     		movs	r0, #1
 1089 0004 FFF7FEFF 		bl	sgp_get_profile_by_number
 1090              	.LVL110:
 427:../../applications/SPG30-sensor-example/src/sgp30.c ****     if (profile == NULL) {
 1091              		.loc 1 427 5 is_stmt 1 view .LVU294
 1092              		.loc 1 427 8 is_stmt 0 view .LVU295
 1093 0008 50B1     		cbz	r0, .L84
 428:../../applications/SPG30-sensor-example/src/sgp30.c ****         return STATUS_FAIL;
 429:../../applications/SPG30-sensor-example/src/sgp30.c ****     }
 430:../../applications/SPG30-sensor-example/src/sgp30.c **** 
 431:../../applications/SPG30-sensor-example/src/sgp30.c ****     if (sgp_i2c_write(&(profile->command)) == STATUS_FAIL)
 1094              		.loc 1 431 5 is_stmt 1 view .LVU296
 1095              		.loc 1 431 9 is_stmt 0 view .LVU297
 1096 000a 0C30     		adds	r0, r0, #12
 1097              	.LVL111:
 1098              		.loc 1 431 9 view .LVU298
 1099 000c FFF7FEFF 		bl	sgp_i2c_write
 1100              	.LVL112:
 1101              		.loc 1 431 8 view .LVU299
 1102 0010 B0F1FF3F 		cmp	r0, #-1
 1103 0014 03D0     		beq	.L83
 432:../../applications/SPG30-sensor-example/src/sgp30.c ****         return STATUS_FAIL;
 433:../../applications/SPG30-sensor-example/src/sgp30.c ****     client_data.current_state = MEASURING_PROFILE_STATE;
 1104              		.loc 1 433 5 is_stmt 1 view .LVU300
 1105              		.loc 1 433 31 is_stmt 0 view .LVU301
 1106 0016 044B     		ldr	r3, .L86
 1107 0018 0122     		movs	r2, #1
 1108 001a 1A70     		strb	r2, [r3]
 434:../../applications/SPG30-sensor-example/src/sgp30.c **** 
 435:../../applications/SPG30-sensor-example/src/sgp30.c ****     return STATUS_OK;
 1109              		.loc 1 435 5 is_stmt 1 view .LVU302
 1110              		.loc 1 435 12 is_stmt 0 view .LVU303
 1111 001c 0020     		movs	r0, #0
 1112              	.L83:
 436:../../applications/SPG30-sensor-example/src/sgp30.c **** }
 1113              		.loc 1 436 1 view .LVU304
 1114 001e 08BD     		pop	{r3, pc}
 1115              	.LVL113:
 1116              	.L84:
 428:../../applications/SPG30-sensor-example/src/sgp30.c ****     }
 1117              		.loc 1 428 16 view .LVU305
 1118 0020 4FF0FF30 		mov	r0, #-1
 1119              	.LVL114:
 428:../../applications/SPG30-sensor-example/src/sgp30.c ****     }
 1120              		.loc 1 428 16 view .LVU306
 1121 0024 FBE7     		b	.L83
 1122              	.L87:
 1123 0026 00BF     		.align	2
 1124              	.L86:
 1125 0028 00000000 		.word	.LANCHOR0
 1126              		.cfi_endproc
 1127              	.LFE134:
 1129              		.section	.text.sgp_read_iaq,"ax",%progbits
 1130              		.align	1
 1131              		.global	sgp_read_iaq
 1132              		.syntax unified
 1133              		.thumb
ARM GAS  C:\Users\RUBENJ~1\AppData\Local\Temp\ccZJq1Pt.s 			page 32


 1134              		.thumb_func
 1135              		.fpu fpv4-sp-d16
 1137              	sgp_read_iaq:
 1138              	.LVL115:
 1139              	.LFB135:
 437:../../applications/SPG30-sensor-example/src/sgp30.c **** 
 438:../../applications/SPG30-sensor-example/src/sgp30.c **** 
 439:../../applications/SPG30-sensor-example/src/sgp30.c **** /**
 440:../../applications/SPG30-sensor-example/src/sgp30.c ****  * sgp_read_iaq() - Read IAQ values async
 441:../../applications/SPG30-sensor-example/src/sgp30.c ****  *
 442:../../applications/SPG30-sensor-example/src/sgp30.c ****  * Read the IAQ values. This command can only be exectued after a measurement
 443:../../applications/SPG30-sensor-example/src/sgp30.c ****  * has started with sgp_measure_iaq and is finished.
 444:../../applications/SPG30-sensor-example/src/sgp30.c ****  *
 445:../../applications/SPG30-sensor-example/src/sgp30.c ****  * @tvoc_ppb:   The tVOC ppb value will be written to this location
 446:../../applications/SPG30-sensor-example/src/sgp30.c ****  * @co2_eq_ppm: The CO2-Equivalent ppm value will be written to this location
 447:../../applications/SPG30-sensor-example/src/sgp30.c ****  *
 448:../../applications/SPG30-sensor-example/src/sgp30.c ****  * Return:      STATUS_OK on success, else STATUS_FAIL
 449:../../applications/SPG30-sensor-example/src/sgp30.c ****  */
 450:../../applications/SPG30-sensor-example/src/sgp30.c **** s16 sgp_read_iaq(u16 *tvoc_ppb, u16 *co2_eq_ppm) {
 1140              		.loc 1 450 50 is_stmt 1 view -0
 1141              		.cfi_startproc
 1142              		@ args = 0, pretend = 0, frame = 0
 1143              		@ frame_needed = 0, uses_anonymous_args = 0
 1144              		.loc 1 450 50 is_stmt 0 view .LVU308
 1145 0000 38B5     		push	{r3, r4, r5, lr}
 1146              	.LCFI24:
 1147              		.cfi_def_cfa_offset 16
 1148              		.cfi_offset 3, -16
 1149              		.cfi_offset 4, -12
 1150              		.cfi_offset 5, -8
 1151              		.cfi_offset 14, -4
 1152 0002 0546     		mov	r5, r0
 1153 0004 0C46     		mov	r4, r1
 451:../../applications/SPG30-sensor-example/src/sgp30.c ****     const struct sgp_profile *profile;
 1154              		.loc 1 451 5 is_stmt 1 view .LVU309
 452:../../applications/SPG30-sensor-example/src/sgp30.c **** 
 453:../../applications/SPG30-sensor-example/src/sgp30.c ****     profile = sgp_get_profile_by_number(PROFILE_NUMBER_IAQ_MEASURE);
 1155              		.loc 1 453 5 view .LVU310
 1156              		.loc 1 453 15 is_stmt 0 view .LVU311
 1157 0006 0120     		movs	r0, #1
 1158              	.LVL116:
 1159              		.loc 1 453 15 view .LVU312
 1160 0008 FFF7FEFF 		bl	sgp_get_profile_by_number
 1161              	.LVL117:
 454:../../applications/SPG30-sensor-example/src/sgp30.c ****     if (profile == NULL)
 1162              		.loc 1 454 5 is_stmt 1 view .LVU313
 1163              		.loc 1 454 8 is_stmt 0 view .LVU314
 1164 000c 58B1     		cbz	r0, .L90
 455:../../applications/SPG30-sensor-example/src/sgp30.c ****         return STATUS_FAIL;
 456:../../applications/SPG30-sensor-example/src/sgp30.c **** 
 457:../../applications/SPG30-sensor-example/src/sgp30.c ****     if (read_measurement(profile) == STATUS_FAIL)
 1165              		.loc 1 457 5 is_stmt 1 view .LVU315
 1166              		.loc 1 457 9 is_stmt 0 view .LVU316
 1167 000e FFF7FEFF 		bl	read_measurement
 1168              	.LVL118:
 1169              		.loc 1 457 8 view .LVU317
 1170 0012 B0F1FF3F 		cmp	r0, #-1
ARM GAS  C:\Users\RUBENJ~1\AppData\Local\Temp\ccZJq1Pt.s 			page 33


 1171 0016 05D0     		beq	.L89
 458:../../applications/SPG30-sensor-example/src/sgp30.c ****         return STATUS_FAIL;
 459:../../applications/SPG30-sensor-example/src/sgp30.c **** 
 460:../../applications/SPG30-sensor-example/src/sgp30.c ****     *tvoc_ppb = client_data.word_buf[0];
 1172              		.loc 1 460 5 is_stmt 1 view .LVU318
 1173              		.loc 1 460 37 is_stmt 0 view .LVU319
 1174 0018 044B     		ldr	r3, .L92
 1175 001a 9A8B     		ldrh	r2, [r3, #28]
 1176              		.loc 1 460 15 view .LVU320
 1177 001c 2A80     		strh	r2, [r5]	@ movhi
 461:../../applications/SPG30-sensor-example/src/sgp30.c ****     *co2_eq_ppm = client_data.word_buf[1];
 1178              		.loc 1 461 5 is_stmt 1 view .LVU321
 1179              		.loc 1 461 39 is_stmt 0 view .LVU322
 1180 001e DB8B     		ldrh	r3, [r3, #30]
 1181              		.loc 1 461 17 view .LVU323
 1182 0020 2380     		strh	r3, [r4]	@ movhi
 462:../../applications/SPG30-sensor-example/src/sgp30.c **** 
 463:../../applications/SPG30-sensor-example/src/sgp30.c ****     return STATUS_OK;
 1183              		.loc 1 463 5 is_stmt 1 view .LVU324
 1184              		.loc 1 463 12 is_stmt 0 view .LVU325
 1185 0022 0020     		movs	r0, #0
 1186              	.L89:
 464:../../applications/SPG30-sensor-example/src/sgp30.c **** }
 1187              		.loc 1 464 1 view .LVU326
 1188 0024 38BD     		pop	{r3, r4, r5, pc}
 1189              	.LVL119:
 1190              	.L90:
 455:../../applications/SPG30-sensor-example/src/sgp30.c **** 
 1191              		.loc 1 455 16 view .LVU327
 1192 0026 4FF0FF30 		mov	r0, #-1
 1193              	.LVL120:
 455:../../applications/SPG30-sensor-example/src/sgp30.c **** 
 1194              		.loc 1 455 16 view .LVU328
 1195 002a FBE7     		b	.L89
 1196              	.L93:
 1197              		.align	2
 1198              	.L92:
 1199 002c 00000000 		.word	.LANCHOR0
 1200              		.cfi_endproc
 1201              	.LFE135:
 1203              		.section	.text.sgp_measure_iaq_blocking_read,"ax",%progbits
 1204              		.align	1
 1205              		.global	sgp_measure_iaq_blocking_read
 1206              		.syntax unified
 1207              		.thumb
 1208              		.thumb_func
 1209              		.fpu fpv4-sp-d16
 1211              	sgp_measure_iaq_blocking_read:
 1212              	.LVL121:
 1213              	.LFB136:
 465:../../applications/SPG30-sensor-example/src/sgp30.c **** 
 466:../../applications/SPG30-sensor-example/src/sgp30.c **** 
 467:../../applications/SPG30-sensor-example/src/sgp30.c **** /**
 468:../../applications/SPG30-sensor-example/src/sgp30.c ****  * sgp_measure_iaq_blocking_read() - Measure IAQ concentrations tVOC, CO2-Eq.
 469:../../applications/SPG30-sensor-example/src/sgp30.c ****  *
 470:../../applications/SPG30-sensor-example/src/sgp30.c ****  * @tvoc_ppb:   The tVOC ppb value will be written to this location
 471:../../applications/SPG30-sensor-example/src/sgp30.c ****  * @co2_eq_ppm: The CO2-Equivalent ppm value will be written to this location
ARM GAS  C:\Users\RUBENJ~1\AppData\Local\Temp\ccZJq1Pt.s 			page 34


 472:../../applications/SPG30-sensor-example/src/sgp30.c ****  *
 473:../../applications/SPG30-sensor-example/src/sgp30.c ****  * The profile is executed synchronously.
 474:../../applications/SPG30-sensor-example/src/sgp30.c ****  *
 475:../../applications/SPG30-sensor-example/src/sgp30.c ****  * Return:      STATUS_OK on success, else STATUS_FAIL
 476:../../applications/SPG30-sensor-example/src/sgp30.c ****  */
 477:../../applications/SPG30-sensor-example/src/sgp30.c **** s16 sgp_measure_iaq_blocking_read(u16 *tvoc_ppb, u16 *co2_eq_ppm) {
 1214              		.loc 1 477 67 is_stmt 1 view -0
 1215              		.cfi_startproc
 1216              		@ args = 0, pretend = 0, frame = 0
 1217              		@ frame_needed = 0, uses_anonymous_args = 0
 1218              		.loc 1 477 67 is_stmt 0 view .LVU330
 1219 0000 38B5     		push	{r3, r4, r5, lr}
 1220              	.LCFI25:
 1221              		.cfi_def_cfa_offset 16
 1222              		.cfi_offset 3, -16
 1223              		.cfi_offset 4, -12
 1224              		.cfi_offset 5, -8
 1225              		.cfi_offset 14, -4
 1226 0002 0546     		mov	r5, r0
 1227 0004 0C46     		mov	r4, r1
 478:../../applications/SPG30-sensor-example/src/sgp30.c ****     if (sgp_run_profile_by_number(PROFILE_NUMBER_IAQ_MEASURE) == STATUS_FAIL)
 1228              		.loc 1 478 5 is_stmt 1 view .LVU331
 1229              		.loc 1 478 9 is_stmt 0 view .LVU332
 1230 0006 0120     		movs	r0, #1
 1231              	.LVL122:
 1232              		.loc 1 478 9 view .LVU333
 1233 0008 FFF7FEFF 		bl	sgp_run_profile_by_number
 1234              	.LVL123:
 1235              		.loc 1 478 8 view .LVU334
 1236 000c B0F1FF3F 		cmp	r0, #-1
 1237 0010 05D0     		beq	.L95
 479:../../applications/SPG30-sensor-example/src/sgp30.c ****         return STATUS_FAIL;
 480:../../applications/SPG30-sensor-example/src/sgp30.c **** 
 481:../../applications/SPG30-sensor-example/src/sgp30.c ****     *tvoc_ppb = client_data.word_buf[0];
 1238              		.loc 1 481 5 is_stmt 1 view .LVU335
 1239              		.loc 1 481 37 is_stmt 0 view .LVU336
 1240 0012 034B     		ldr	r3, .L97
 1241 0014 9A8B     		ldrh	r2, [r3, #28]
 1242              		.loc 1 481 15 view .LVU337
 1243 0016 2A80     		strh	r2, [r5]	@ movhi
 482:../../applications/SPG30-sensor-example/src/sgp30.c ****     *co2_eq_ppm = client_data.word_buf[1];
 1244              		.loc 1 482 5 is_stmt 1 view .LVU338
 1245              		.loc 1 482 39 is_stmt 0 view .LVU339
 1246 0018 DB8B     		ldrh	r3, [r3, #30]
 1247              		.loc 1 482 17 view .LVU340
 1248 001a 2380     		strh	r3, [r4]	@ movhi
 483:../../applications/SPG30-sensor-example/src/sgp30.c **** 
 484:../../applications/SPG30-sensor-example/src/sgp30.c ****     return STATUS_OK;
 1249              		.loc 1 484 5 is_stmt 1 view .LVU341
 1250              		.loc 1 484 12 is_stmt 0 view .LVU342
 1251 001c 0020     		movs	r0, #0
 1252              	.L95:
 485:../../applications/SPG30-sensor-example/src/sgp30.c **** }
 1253              		.loc 1 485 1 view .LVU343
 1254 001e 38BD     		pop	{r3, r4, r5, pc}
 1255              	.LVL124:
 1256              	.L98:
ARM GAS  C:\Users\RUBENJ~1\AppData\Local\Temp\ccZJq1Pt.s 			page 35


 1257              		.loc 1 485 1 view .LVU344
 1258              		.align	2
 1259              	.L97:
 1260 0020 00000000 		.word	.LANCHOR0
 1261              		.cfi_endproc
 1262              	.LFE136:
 1264              		.section	.text.sgp_measure_tvoc,"ax",%progbits
 1265              		.align	1
 1266              		.global	sgp_measure_tvoc
 1267              		.syntax unified
 1268              		.thumb
 1269              		.thumb_func
 1270              		.fpu fpv4-sp-d16
 1272              	sgp_measure_tvoc:
 1273              	.LFB137:
 486:../../applications/SPG30-sensor-example/src/sgp30.c **** 
 487:../../applications/SPG30-sensor-example/src/sgp30.c **** 
 488:../../applications/SPG30-sensor-example/src/sgp30.c **** /**
 489:../../applications/SPG30-sensor-example/src/sgp30.c ****  * sgp_measure_tvoc() - Measure tVOC concentration async
 490:../../applications/SPG30-sensor-example/src/sgp30.c ****  *
 491:../../applications/SPG30-sensor-example/src/sgp30.c ****  * The profile is executed asynchronously. Use sgp_read_tvoc to get the
 492:../../applications/SPG30-sensor-example/src/sgp30.c ****  * ppb value.
 493:../../applications/SPG30-sensor-example/src/sgp30.c ****  *
 494:../../applications/SPG30-sensor-example/src/sgp30.c ****  * Return:  STATUS_OK on success, else STATUS_FAIL
 495:../../applications/SPG30-sensor-example/src/sgp30.c ****  */
 496:../../applications/SPG30-sensor-example/src/sgp30.c **** s16 sgp_measure_tvoc() {
 1274              		.loc 1 496 24 is_stmt 1 view -0
 1275              		.cfi_startproc
 1276              		@ args = 0, pretend = 0, frame = 0
 1277              		@ frame_needed = 0, uses_anonymous_args = 0
 1278 0000 08B5     		push	{r3, lr}
 1279              	.LCFI26:
 1280              		.cfi_def_cfa_offset 8
 1281              		.cfi_offset 3, -8
 1282              		.cfi_offset 14, -4
 497:../../applications/SPG30-sensor-example/src/sgp30.c ****     return sgp_measure_iaq();
 1283              		.loc 1 497 5 view .LVU346
 1284              		.loc 1 497 12 is_stmt 0 view .LVU347
 1285 0002 FFF7FEFF 		bl	sgp_measure_iaq
 1286              	.LVL125:
 498:../../applications/SPG30-sensor-example/src/sgp30.c **** }
 1287              		.loc 1 498 1 view .LVU348
 1288 0006 08BD     		pop	{r3, pc}
 1289              		.cfi_endproc
 1290              	.LFE137:
 1292              		.section	.text.sgp_read_tvoc,"ax",%progbits
 1293              		.align	1
 1294              		.global	sgp_read_tvoc
 1295              		.syntax unified
 1296              		.thumb
 1297              		.thumb_func
 1298              		.fpu fpv4-sp-d16
 1300              	sgp_read_tvoc:
 1301              	.LVL126:
 1302              	.LFB138:
 499:../../applications/SPG30-sensor-example/src/sgp30.c **** 
 500:../../applications/SPG30-sensor-example/src/sgp30.c **** 
ARM GAS  C:\Users\RUBENJ~1\AppData\Local\Temp\ccZJq1Pt.s 			page 36


 501:../../applications/SPG30-sensor-example/src/sgp30.c **** /**
 502:../../applications/SPG30-sensor-example/src/sgp30.c ****  * sgp_read_tvoc() - Read tVOC concentration async
 503:../../applications/SPG30-sensor-example/src/sgp30.c ****  *
 504:../../applications/SPG30-sensor-example/src/sgp30.c ****  * Read the tVOC value. This command can only be exectued after a measurement
 505:../../applications/SPG30-sensor-example/src/sgp30.c ****  * has started with sgp_measure_tvoc and is finished.
 506:../../applications/SPG30-sensor-example/src/sgp30.c ****  *
 507:../../applications/SPG30-sensor-example/src/sgp30.c ****  * @tvoc_ppb:   The tVOC ppb value will be written to this location
 508:../../applications/SPG30-sensor-example/src/sgp30.c ****  *
 509:../../applications/SPG30-sensor-example/src/sgp30.c ****  * Return:      STATUS_OK on success, else STATUS_FAIL
 510:../../applications/SPG30-sensor-example/src/sgp30.c ****  */
 511:../../applications/SPG30-sensor-example/src/sgp30.c **** s16 sgp_read_tvoc(u16 *tvoc_ppb) {
 1303              		.loc 1 511 34 is_stmt 1 view -0
 1304              		.cfi_startproc
 1305              		@ args = 0, pretend = 0, frame = 8
 1306              		@ frame_needed = 0, uses_anonymous_args = 0
 1307              		.loc 1 511 34 is_stmt 0 view .LVU350
 1308 0000 00B5     		push	{lr}
 1309              	.LCFI27:
 1310              		.cfi_def_cfa_offset 4
 1311              		.cfi_offset 14, -4
 1312 0002 83B0     		sub	sp, sp, #12
 1313              	.LCFI28:
 1314              		.cfi_def_cfa_offset 16
 512:../../applications/SPG30-sensor-example/src/sgp30.c ****     u16 co2_eq_ppm;
 1315              		.loc 1 512 5 is_stmt 1 view .LVU351
 513:../../applications/SPG30-sensor-example/src/sgp30.c ****     return sgp_read_iaq(tvoc_ppb, &co2_eq_ppm);
 1316              		.loc 1 513 5 view .LVU352
 1317              		.loc 1 513 12 is_stmt 0 view .LVU353
 1318 0004 0DF10601 		add	r1, sp, #6
 1319 0008 FFF7FEFF 		bl	sgp_read_iaq
 1320              	.LVL127:
 514:../../applications/SPG30-sensor-example/src/sgp30.c **** }
 1321              		.loc 1 514 1 view .LVU354
 1322 000c 03B0     		add	sp, sp, #12
 1323              	.LCFI29:
 1324              		.cfi_def_cfa_offset 4
 1325              		@ sp needed
 1326 000e 5DF804FB 		ldr	pc, [sp], #4
 1327              		.cfi_endproc
 1328              	.LFE138:
 1330              		.section	.text.sgp_measure_tvoc_blocking_read,"ax",%progbits
 1331              		.align	1
 1332              		.global	sgp_measure_tvoc_blocking_read
 1333              		.syntax unified
 1334              		.thumb
 1335              		.thumb_func
 1336              		.fpu fpv4-sp-d16
 1338              	sgp_measure_tvoc_blocking_read:
 1339              	.LVL128:
 1340              	.LFB139:
 515:../../applications/SPG30-sensor-example/src/sgp30.c **** 
 516:../../applications/SPG30-sensor-example/src/sgp30.c **** 
 517:../../applications/SPG30-sensor-example/src/sgp30.c **** /**
 518:../../applications/SPG30-sensor-example/src/sgp30.c ****  * sgp_measure_tvoc_blocking_read() - Measure tVOC concentration
 519:../../applications/SPG30-sensor-example/src/sgp30.c ****  *
 520:../../applications/SPG30-sensor-example/src/sgp30.c ****  * The profile is executed synchronously.
 521:../../applications/SPG30-sensor-example/src/sgp30.c ****  *
ARM GAS  C:\Users\RUBENJ~1\AppData\Local\Temp\ccZJq1Pt.s 			page 37


 522:../../applications/SPG30-sensor-example/src/sgp30.c ****  * Return:  tVOC concentration in ppb. Negative if it fails.
 523:../../applications/SPG30-sensor-example/src/sgp30.c ****  */
 524:../../applications/SPG30-sensor-example/src/sgp30.c **** s16 sgp_measure_tvoc_blocking_read(u16 *tvoc_ppb) {
 1341              		.loc 1 524 51 is_stmt 1 view -0
 1342              		.cfi_startproc
 1343              		@ args = 0, pretend = 0, frame = 8
 1344              		@ frame_needed = 0, uses_anonymous_args = 0
 1345              		.loc 1 524 51 is_stmt 0 view .LVU356
 1346 0000 00B5     		push	{lr}
 1347              	.LCFI30:
 1348              		.cfi_def_cfa_offset 4
 1349              		.cfi_offset 14, -4
 1350 0002 83B0     		sub	sp, sp, #12
 1351              	.LCFI31:
 1352              		.cfi_def_cfa_offset 16
 525:../../applications/SPG30-sensor-example/src/sgp30.c ****     u16 co2_eq_ppm;
 1353              		.loc 1 525 5 is_stmt 1 view .LVU357
 526:../../applications/SPG30-sensor-example/src/sgp30.c ****     return sgp_measure_iaq_blocking_read(tvoc_ppb, &co2_eq_ppm);
 1354              		.loc 1 526 5 view .LVU358
 1355              		.loc 1 526 12 is_stmt 0 view .LVU359
 1356 0004 0DF10601 		add	r1, sp, #6
 1357 0008 FFF7FEFF 		bl	sgp_measure_iaq_blocking_read
 1358              	.LVL129:
 527:../../applications/SPG30-sensor-example/src/sgp30.c **** }
 1359              		.loc 1 527 1 view .LVU360
 1360 000c 03B0     		add	sp, sp, #12
 1361              	.LCFI32:
 1362              		.cfi_def_cfa_offset 4
 1363              		@ sp needed
 1364 000e 5DF804FB 		ldr	pc, [sp], #4
 1365              		.cfi_endproc
 1366              	.LFE139:
 1368              		.section	.text.sgp_measure_co2_eq,"ax",%progbits
 1369              		.align	1
 1370              		.global	sgp_measure_co2_eq
 1371              		.syntax unified
 1372              		.thumb
 1373              		.thumb_func
 1374              		.fpu fpv4-sp-d16
 1376              	sgp_measure_co2_eq:
 1377              	.LFB140:
 528:../../applications/SPG30-sensor-example/src/sgp30.c **** 
 529:../../applications/SPG30-sensor-example/src/sgp30.c **** 
 530:../../applications/SPG30-sensor-example/src/sgp30.c **** /**
 531:../../applications/SPG30-sensor-example/src/sgp30.c ****  * sgp_measure_co2_eq() - Measure tVOC concentration async
 532:../../applications/SPG30-sensor-example/src/sgp30.c ****  *
 533:../../applications/SPG30-sensor-example/src/sgp30.c ****  * The profile is executed asynchronously. Use sgp_read_co2_eq to get the
 534:../../applications/SPG30-sensor-example/src/sgp30.c ****  * ppm value.
 535:../../applications/SPG30-sensor-example/src/sgp30.c ****  *
 536:../../applications/SPG30-sensor-example/src/sgp30.c ****  * Return:  STATUS_OK on success, else STATUS_FAIL
 537:../../applications/SPG30-sensor-example/src/sgp30.c ****  */
 538:../../applications/SPG30-sensor-example/src/sgp30.c **** s16 sgp_measure_co2_eq() {
 1378              		.loc 1 538 26 is_stmt 1 view -0
 1379              		.cfi_startproc
 1380              		@ args = 0, pretend = 0, frame = 0
 1381              		@ frame_needed = 0, uses_anonymous_args = 0
 1382 0000 08B5     		push	{r3, lr}
ARM GAS  C:\Users\RUBENJ~1\AppData\Local\Temp\ccZJq1Pt.s 			page 38


 1383              	.LCFI33:
 1384              		.cfi_def_cfa_offset 8
 1385              		.cfi_offset 3, -8
 1386              		.cfi_offset 14, -4
 539:../../applications/SPG30-sensor-example/src/sgp30.c ****     return sgp_measure_iaq();
 1387              		.loc 1 539 5 view .LVU362
 1388              		.loc 1 539 12 is_stmt 0 view .LVU363
 1389 0002 FFF7FEFF 		bl	sgp_measure_iaq
 1390              	.LVL130:
 540:../../applications/SPG30-sensor-example/src/sgp30.c **** }
 1391              		.loc 1 540 1 view .LVU364
 1392 0006 08BD     		pop	{r3, pc}
 1393              		.cfi_endproc
 1394              	.LFE140:
 1396              		.section	.text.sgp_read_co2_eq,"ax",%progbits
 1397              		.align	1
 1398              		.global	sgp_read_co2_eq
 1399              		.syntax unified
 1400              		.thumb
 1401              		.thumb_func
 1402              		.fpu fpv4-sp-d16
 1404              	sgp_read_co2_eq:
 1405              	.LVL131:
 1406              	.LFB141:
 541:../../applications/SPG30-sensor-example/src/sgp30.c **** 
 542:../../applications/SPG30-sensor-example/src/sgp30.c **** 
 543:../../applications/SPG30-sensor-example/src/sgp30.c **** /**
 544:../../applications/SPG30-sensor-example/src/sgp30.c ****  * sgp_read_co2_eq() - Read CO2-Equivalent concentration async
 545:../../applications/SPG30-sensor-example/src/sgp30.c ****  *
 546:../../applications/SPG30-sensor-example/src/sgp30.c ****  * Read the CO2-Equivalent value. This command can only be exectued after a
 547:../../applications/SPG30-sensor-example/src/sgp30.c ****  * measurement was started with sgp_measure_co2_eq() and is finished.
 548:../../applications/SPG30-sensor-example/src/sgp30.c ****  *
 549:../../applications/SPG30-sensor-example/src/sgp30.c ****  * @co2_eq_ppm: The CO2-Equivalent ppm value will be written to this location
 550:../../applications/SPG30-sensor-example/src/sgp30.c ****  *
 551:../../applications/SPG30-sensor-example/src/sgp30.c ****  * Return:      STATUS_OK on success, else STATUS_FAIL
 552:../../applications/SPG30-sensor-example/src/sgp30.c ****  */
 553:../../applications/SPG30-sensor-example/src/sgp30.c **** s16 sgp_read_co2_eq(u16 *co2_eq_ppm) {
 1407              		.loc 1 553 38 is_stmt 1 view -0
 1408              		.cfi_startproc
 1409              		@ args = 0, pretend = 0, frame = 8
 1410              		@ frame_needed = 0, uses_anonymous_args = 0
 1411              		.loc 1 553 38 is_stmt 0 view .LVU366
 1412 0000 00B5     		push	{lr}
 1413              	.LCFI34:
 1414              		.cfi_def_cfa_offset 4
 1415              		.cfi_offset 14, -4
 1416 0002 83B0     		sub	sp, sp, #12
 1417              	.LCFI35:
 1418              		.cfi_def_cfa_offset 16
 554:../../applications/SPG30-sensor-example/src/sgp30.c ****     u16 tvoc_ppb;
 1419              		.loc 1 554 5 is_stmt 1 view .LVU367
 555:../../applications/SPG30-sensor-example/src/sgp30.c ****     return sgp_read_iaq(&tvoc_ppb, co2_eq_ppm);
 1420              		.loc 1 555 5 view .LVU368
 1421              		.loc 1 555 12 is_stmt 0 view .LVU369
 1422 0004 0146     		mov	r1, r0
 1423 0006 0DF10600 		add	r0, sp, #6
 1424              	.LVL132:
ARM GAS  C:\Users\RUBENJ~1\AppData\Local\Temp\ccZJq1Pt.s 			page 39


 1425              		.loc 1 555 12 view .LVU370
 1426 000a FFF7FEFF 		bl	sgp_read_iaq
 1427              	.LVL133:
 556:../../applications/SPG30-sensor-example/src/sgp30.c **** }
 1428              		.loc 1 556 1 view .LVU371
 1429 000e 03B0     		add	sp, sp, #12
 1430              	.LCFI36:
 1431              		.cfi_def_cfa_offset 4
 1432              		@ sp needed
 1433 0010 5DF804FB 		ldr	pc, [sp], #4
 1434              		.cfi_endproc
 1435              	.LFE141:
 1437              		.section	.text.sgp_measure_co2_eq_blocking_read,"ax",%progbits
 1438              		.align	1
 1439              		.global	sgp_measure_co2_eq_blocking_read
 1440              		.syntax unified
 1441              		.thumb
 1442              		.thumb_func
 1443              		.fpu fpv4-sp-d16
 1445              	sgp_measure_co2_eq_blocking_read:
 1446              	.LVL134:
 1447              	.LFB142:
 557:../../applications/SPG30-sensor-example/src/sgp30.c **** 
 558:../../applications/SPG30-sensor-example/src/sgp30.c **** 
 559:../../applications/SPG30-sensor-example/src/sgp30.c **** /**
 560:../../applications/SPG30-sensor-example/src/sgp30.c ****  * sgp_measure_co2_eq_blocking_read() - Measure CO2-Equivalent concentration
 561:../../applications/SPG30-sensor-example/src/sgp30.c ****  *
 562:../../applications/SPG30-sensor-example/src/sgp30.c ****  * The profile is executed synchronously.
 563:../../applications/SPG30-sensor-example/src/sgp30.c ****  *
 564:../../applications/SPG30-sensor-example/src/sgp30.c ****  * Return:  CO2-Equivalent concentration in ppm. Negative if it fails.
 565:../../applications/SPG30-sensor-example/src/sgp30.c ****  */
 566:../../applications/SPG30-sensor-example/src/sgp30.c **** s16 sgp_measure_co2_eq_blocking_read(u16 *co2_eq_ppm) {
 1448              		.loc 1 566 55 is_stmt 1 view -0
 1449              		.cfi_startproc
 1450              		@ args = 0, pretend = 0, frame = 8
 1451              		@ frame_needed = 0, uses_anonymous_args = 0
 1452              		.loc 1 566 55 is_stmt 0 view .LVU373
 1453 0000 00B5     		push	{lr}
 1454              	.LCFI37:
 1455              		.cfi_def_cfa_offset 4
 1456              		.cfi_offset 14, -4
 1457 0002 83B0     		sub	sp, sp, #12
 1458              	.LCFI38:
 1459              		.cfi_def_cfa_offset 16
 567:../../applications/SPG30-sensor-example/src/sgp30.c ****     u16 tvoc_ppb;
 1460              		.loc 1 567 5 is_stmt 1 view .LVU374
 568:../../applications/SPG30-sensor-example/src/sgp30.c ****     return sgp_measure_iaq_blocking_read(&tvoc_ppb, co2_eq_ppm);
 1461              		.loc 1 568 5 view .LVU375
 1462              		.loc 1 568 12 is_stmt 0 view .LVU376
 1463 0004 0146     		mov	r1, r0
 1464 0006 0DF10600 		add	r0, sp, #6
 1465              	.LVL135:
 1466              		.loc 1 568 12 view .LVU377
 1467 000a FFF7FEFF 		bl	sgp_measure_iaq_blocking_read
 1468              	.LVL136:
 569:../../applications/SPG30-sensor-example/src/sgp30.c **** }
 1469              		.loc 1 569 1 view .LVU378
ARM GAS  C:\Users\RUBENJ~1\AppData\Local\Temp\ccZJq1Pt.s 			page 40


 1470 000e 03B0     		add	sp, sp, #12
 1471              	.LCFI39:
 1472              		.cfi_def_cfa_offset 4
 1473              		@ sp needed
 1474 0010 5DF804FB 		ldr	pc, [sp], #4
 1475              		.cfi_endproc
 1476              	.LFE142:
 1478              		.section	.text.sgp_measure_signals_blocking_read,"ax",%progbits
 1479              		.align	1
 1480              		.global	sgp_measure_signals_blocking_read
 1481              		.syntax unified
 1482              		.thumb
 1483              		.thumb_func
 1484              		.fpu fpv4-sp-d16
 1486              	sgp_measure_signals_blocking_read:
 1487              	.LVL137:
 1488              	.LFB143:
 570:../../applications/SPG30-sensor-example/src/sgp30.c **** 
 571:../../applications/SPG30-sensor-example/src/sgp30.c **** 
 572:../../applications/SPG30-sensor-example/src/sgp30.c **** /**
 573:../../applications/SPG30-sensor-example/src/sgp30.c ****  * sgp_measure_signals_blocking_read() - Measure signals
 574:../../applications/SPG30-sensor-example/src/sgp30.c ****  * The profile is executed synchronously.
 575:../../applications/SPG30-sensor-example/src/sgp30.c ****  *
 576:../../applications/SPG30-sensor-example/src/sgp30.c ****  * @scaled_ethanol_signal: Output variable for the ethanol signal
 577:../../applications/SPG30-sensor-example/src/sgp30.c ****  *                         The signal is scaled by factor 512. Divide the scaled
 578:../../applications/SPG30-sensor-example/src/sgp30.c ****  *                         value by 512 to get the real signal.
 579:../../applications/SPG30-sensor-example/src/sgp30.c ****  * @scaled_h2_signal: Output variable for the h2 signal
 580:../../applications/SPG30-sensor-example/src/sgp30.c ****  *                    The signal is scaled by factor 512. Divide the scaled
 581:../../applications/SPG30-sensor-example/src/sgp30.c ****  *                    value by 512 to get the real signal.
 582:../../applications/SPG30-sensor-example/src/sgp30.c ****  *
 583:../../applications/SPG30-sensor-example/src/sgp30.c ****  * Return:      STATUS_OK on success, else STATUS_FAIL
 584:../../applications/SPG30-sensor-example/src/sgp30.c ****  */
 585:../../applications/SPG30-sensor-example/src/sgp30.c **** s16 sgp_measure_signals_blocking_read(u16 *scaled_ethanol_signal,
 586:../../applications/SPG30-sensor-example/src/sgp30.c ****                                       u16 *scaled_h2_signal) {
 1489              		.loc 1 586 62 is_stmt 1 view -0
 1490              		.cfi_startproc
 1491              		@ args = 0, pretend = 0, frame = 0
 1492              		@ frame_needed = 0, uses_anonymous_args = 0
 1493              		.loc 1 586 62 is_stmt 0 view .LVU380
 1494 0000 38B5     		push	{r3, r4, r5, lr}
 1495              	.LCFI40:
 1496              		.cfi_def_cfa_offset 16
 1497              		.cfi_offset 3, -16
 1498              		.cfi_offset 4, -12
 1499              		.cfi_offset 5, -8
 1500              		.cfi_offset 14, -4
 1501 0002 0546     		mov	r5, r0
 1502 0004 0C46     		mov	r4, r1
 587:../../applications/SPG30-sensor-example/src/sgp30.c **** 
 588:../../applications/SPG30-sensor-example/src/sgp30.c ****     if (sgp_run_profile_by_number(PROFILE_NUMBER_MEASURE_SIGNALS) == STATUS_FAIL)
 1503              		.loc 1 588 5 is_stmt 1 view .LVU381
 1504              		.loc 1 588 9 is_stmt 0 view .LVU382
 1505 0006 074B     		ldr	r3, .L114
 1506 0008 1878     		ldrb	r0, [r3]	@ zero_extendqisi2
 1507              	.LVL138:
 1508              		.loc 1 588 9 view .LVU383
 1509 000a FFF7FEFF 		bl	sgp_run_profile_by_number
ARM GAS  C:\Users\RUBENJ~1\AppData\Local\Temp\ccZJq1Pt.s 			page 41


 1510              	.LVL139:
 1511              		.loc 1 588 8 view .LVU384
 1512 000e B0F1FF3F 		cmp	r0, #-1
 1513 0012 05D0     		beq	.L112
 589:../../applications/SPG30-sensor-example/src/sgp30.c ****         return STATUS_FAIL;
 590:../../applications/SPG30-sensor-example/src/sgp30.c **** 
 591:../../applications/SPG30-sensor-example/src/sgp30.c ****     *scaled_ethanol_signal = client_data.word_buf[0];
 1514              		.loc 1 591 5 is_stmt 1 view .LVU385
 1515              		.loc 1 591 50 is_stmt 0 view .LVU386
 1516 0014 044B     		ldr	r3, .L114+4
 1517 0016 9A8B     		ldrh	r2, [r3, #28]
 1518              		.loc 1 591 28 view .LVU387
 1519 0018 2A80     		strh	r2, [r5]	@ movhi
 592:../../applications/SPG30-sensor-example/src/sgp30.c ****     *scaled_h2_signal = client_data.word_buf[1];
 1520              		.loc 1 592 5 is_stmt 1 view .LVU388
 1521              		.loc 1 592 45 is_stmt 0 view .LVU389
 1522 001a DB8B     		ldrh	r3, [r3, #30]
 1523              		.loc 1 592 23 view .LVU390
 1524 001c 2380     		strh	r3, [r4]	@ movhi
 593:../../applications/SPG30-sensor-example/src/sgp30.c **** 
 594:../../applications/SPG30-sensor-example/src/sgp30.c ****     return STATUS_OK;
 1525              		.loc 1 594 5 is_stmt 1 view .LVU391
 1526              		.loc 1 594 12 is_stmt 0 view .LVU392
 1527 001e 0020     		movs	r0, #0
 1528              	.L112:
 595:../../applications/SPG30-sensor-example/src/sgp30.c **** }
 1529              		.loc 1 595 1 view .LVU393
 1530 0020 38BD     		pop	{r3, r4, r5, pc}
 1531              	.LVL140:
 1532              	.L115:
 1533              		.loc 1 595 1 view .LVU394
 1534 0022 00BF     		.align	2
 1535              	.L114:
 1536 0024 00000000 		.word	PROFILE_NUMBER_MEASURE_SIGNALS
 1537 0028 00000000 		.word	.LANCHOR0
 1538              		.cfi_endproc
 1539              	.LFE143:
 1541              		.section	.text.sgp_measure_signals,"ax",%progbits
 1542              		.align	1
 1543              		.global	sgp_measure_signals
 1544              		.syntax unified
 1545              		.thumb
 1546              		.thumb_func
 1547              		.fpu fpv4-sp-d16
 1549              	sgp_measure_signals:
 1550              	.LFB144:
 596:../../applications/SPG30-sensor-example/src/sgp30.c **** 
 597:../../applications/SPG30-sensor-example/src/sgp30.c **** 
 598:../../applications/SPG30-sensor-example/src/sgp30.c **** /**
 599:../../applications/SPG30-sensor-example/src/sgp30.c ****  * sgp_measure_signals() - Measure signals async
 600:../../applications/SPG30-sensor-example/src/sgp30.c ****  *
 601:../../applications/SPG30-sensor-example/src/sgp30.c ****  * The profile is executed asynchronously. Use sgp_read_signals to get
 602:../../applications/SPG30-sensor-example/src/sgp30.c ****  * the signal values.
 603:../../applications/SPG30-sensor-example/src/sgp30.c ****  *
 604:../../applications/SPG30-sensor-example/src/sgp30.c ****  * Return:  STATUS_OK on success, else STATUS_FAIL
 605:../../applications/SPG30-sensor-example/src/sgp30.c ****  */
 606:../../applications/SPG30-sensor-example/src/sgp30.c **** s16 sgp_measure_signals(void) {
ARM GAS  C:\Users\RUBENJ~1\AppData\Local\Temp\ccZJq1Pt.s 			page 42


 1551              		.loc 1 606 31 is_stmt 1 view -0
 1552              		.cfi_startproc
 1553              		@ args = 0, pretend = 0, frame = 0
 1554              		@ frame_needed = 0, uses_anonymous_args = 0
 1555 0000 08B5     		push	{r3, lr}
 1556              	.LCFI41:
 1557              		.cfi_def_cfa_offset 8
 1558              		.cfi_offset 3, -8
 1559              		.cfi_offset 14, -4
 607:../../applications/SPG30-sensor-example/src/sgp30.c ****     const struct sgp_profile *profile;
 1560              		.loc 1 607 5 view .LVU396
 608:../../applications/SPG30-sensor-example/src/sgp30.c **** 
 609:../../applications/SPG30-sensor-example/src/sgp30.c ****     profile = sgp_get_profile_by_number(PROFILE_NUMBER_MEASURE_SIGNALS);
 1561              		.loc 1 609 5 view .LVU397
 1562              		.loc 1 609 15 is_stmt 0 view .LVU398
 1563 0002 094B     		ldr	r3, .L120
 1564 0004 1878     		ldrb	r0, [r3]	@ zero_extendqisi2
 1565 0006 FFF7FEFF 		bl	sgp_get_profile_by_number
 1566              	.LVL141:
 610:../../applications/SPG30-sensor-example/src/sgp30.c ****     if (profile == NULL) {
 1567              		.loc 1 610 5 is_stmt 1 view .LVU399
 1568              		.loc 1 610 8 is_stmt 0 view .LVU400
 1569 000a 50B1     		cbz	r0, .L118
 611:../../applications/SPG30-sensor-example/src/sgp30.c ****         return STATUS_FAIL;
 612:../../applications/SPG30-sensor-example/src/sgp30.c ****     }
 613:../../applications/SPG30-sensor-example/src/sgp30.c **** 
 614:../../applications/SPG30-sensor-example/src/sgp30.c ****     if (sgp_i2c_write(&(profile->command)) == STATUS_FAIL)
 1570              		.loc 1 614 5 is_stmt 1 view .LVU401
 1571              		.loc 1 614 9 is_stmt 0 view .LVU402
 1572 000c 0C30     		adds	r0, r0, #12
 1573              	.LVL142:
 1574              		.loc 1 614 9 view .LVU403
 1575 000e FFF7FEFF 		bl	sgp_i2c_write
 1576              	.LVL143:
 1577              		.loc 1 614 8 view .LVU404
 1578 0012 B0F1FF3F 		cmp	r0, #-1
 1579 0016 03D0     		beq	.L117
 615:../../applications/SPG30-sensor-example/src/sgp30.c ****         return STATUS_FAIL;
 616:../../applications/SPG30-sensor-example/src/sgp30.c ****     client_data.current_state = MEASURING_PROFILE_STATE;
 1580              		.loc 1 616 5 is_stmt 1 view .LVU405
 1581              		.loc 1 616 31 is_stmt 0 view .LVU406
 1582 0018 044B     		ldr	r3, .L120+4
 1583 001a 0122     		movs	r2, #1
 1584 001c 1A70     		strb	r2, [r3]
 617:../../applications/SPG30-sensor-example/src/sgp30.c **** 
 618:../../applications/SPG30-sensor-example/src/sgp30.c ****     return STATUS_OK;
 1585              		.loc 1 618 5 is_stmt 1 view .LVU407
 1586              		.loc 1 618 12 is_stmt 0 view .LVU408
 1587 001e 0020     		movs	r0, #0
 1588              	.L117:
 619:../../applications/SPG30-sensor-example/src/sgp30.c **** }
 1589              		.loc 1 619 1 view .LVU409
 1590 0020 08BD     		pop	{r3, pc}
 1591              	.LVL144:
 1592              	.L118:
 611:../../applications/SPG30-sensor-example/src/sgp30.c ****     }
 1593              		.loc 1 611 16 view .LVU410
ARM GAS  C:\Users\RUBENJ~1\AppData\Local\Temp\ccZJq1Pt.s 			page 43


 1594 0022 4FF0FF30 		mov	r0, #-1
 1595              	.LVL145:
 611:../../applications/SPG30-sensor-example/src/sgp30.c ****     }
 1596              		.loc 1 611 16 view .LVU411
 1597 0026 FBE7     		b	.L117
 1598              	.L121:
 1599              		.align	2
 1600              	.L120:
 1601 0028 00000000 		.word	PROFILE_NUMBER_MEASURE_SIGNALS
 1602 002c 00000000 		.word	.LANCHOR0
 1603              		.cfi_endproc
 1604              	.LFE144:
 1606              		.section	.text.sgp_read_signals,"ax",%progbits
 1607              		.align	1
 1608              		.global	sgp_read_signals
 1609              		.syntax unified
 1610              		.thumb
 1611              		.thumb_func
 1612              		.fpu fpv4-sp-d16
 1614              	sgp_read_signals:
 1615              	.LVL146:
 1616              	.LFB145:
 620:../../applications/SPG30-sensor-example/src/sgp30.c **** 
 621:../../applications/SPG30-sensor-example/src/sgp30.c **** 
 622:../../applications/SPG30-sensor-example/src/sgp30.c **** /**
 623:../../applications/SPG30-sensor-example/src/sgp30.c ****  * sgp_read_signals() - Read signals async
 624:../../applications/SPG30-sensor-example/src/sgp30.c ****  * This command can only be exectued after a measurement started with
 625:../../applications/SPG30-sensor-example/src/sgp30.c ****  * sgp_measure_signals and has finished.
 626:../../applications/SPG30-sensor-example/src/sgp30.c ****  *
 627:../../applications/SPG30-sensor-example/src/sgp30.c ****  * @scaled_ethanol_signal: Output variable for ethanol signal.
 628:../../applications/SPG30-sensor-example/src/sgp30.c ****  *                         The signal is scaled by factor 512. Divide the scaled
 629:../../applications/SPG30-sensor-example/src/sgp30.c ****  *                         value by 512 to get the real signal.
 630:../../applications/SPG30-sensor-example/src/sgp30.c ****  * @scaled_h2_signal: Output variable for h2 signal.
 631:../../applications/SPG30-sensor-example/src/sgp30.c ****  *                    The signal is scaled by factor 512. Divide the scaled
 632:../../applications/SPG30-sensor-example/src/sgp30.c ****  *                    value by 512 to get the real signal.
 633:../../applications/SPG30-sensor-example/src/sgp30.c ****  *
 634:../../applications/SPG30-sensor-example/src/sgp30.c ****  * Return:      STATUS_OK on success, else STATUS_FAIL
 635:../../applications/SPG30-sensor-example/src/sgp30.c ****  */
 636:../../applications/SPG30-sensor-example/src/sgp30.c **** s16 sgp_read_signals(u16 *scaled_ethanol_signal, u16 *scaled_h2_signal) {
 1617              		.loc 1 636 73 is_stmt 1 view -0
 1618              		.cfi_startproc
 1619              		@ args = 0, pretend = 0, frame = 0
 1620              		@ frame_needed = 0, uses_anonymous_args = 0
 1621              		.loc 1 636 73 is_stmt 0 view .LVU413
 1622 0000 38B5     		push	{r3, r4, r5, lr}
 1623              	.LCFI42:
 1624              		.cfi_def_cfa_offset 16
 1625              		.cfi_offset 3, -16
 1626              		.cfi_offset 4, -12
 1627              		.cfi_offset 5, -8
 1628              		.cfi_offset 14, -4
 1629 0002 0546     		mov	r5, r0
 1630 0004 0C46     		mov	r4, r1
 637:../../applications/SPG30-sensor-example/src/sgp30.c ****     const struct sgp_profile *profile;
 1631              		.loc 1 637 5 is_stmt 1 view .LVU414
 638:../../applications/SPG30-sensor-example/src/sgp30.c **** 
 639:../../applications/SPG30-sensor-example/src/sgp30.c ****     profile = sgp_get_profile_by_number(PROFILE_NUMBER_MEASURE_SIGNALS);
ARM GAS  C:\Users\RUBENJ~1\AppData\Local\Temp\ccZJq1Pt.s 			page 44


 1632              		.loc 1 639 5 view .LVU415
 1633              		.loc 1 639 15 is_stmt 0 view .LVU416
 1634 0006 0A4B     		ldr	r3, .L126
 1635 0008 1878     		ldrb	r0, [r3]	@ zero_extendqisi2
 1636              	.LVL147:
 1637              		.loc 1 639 15 view .LVU417
 1638 000a FFF7FEFF 		bl	sgp_get_profile_by_number
 1639              	.LVL148:
 640:../../applications/SPG30-sensor-example/src/sgp30.c ****     if (profile == NULL)
 1640              		.loc 1 640 5 is_stmt 1 view .LVU418
 1641              		.loc 1 640 8 is_stmt 0 view .LVU419
 1642 000e 58B1     		cbz	r0, .L124
 641:../../applications/SPG30-sensor-example/src/sgp30.c ****         return STATUS_FAIL;
 642:../../applications/SPG30-sensor-example/src/sgp30.c **** 
 643:../../applications/SPG30-sensor-example/src/sgp30.c ****     if (read_measurement(profile) == STATUS_FAIL)
 1643              		.loc 1 643 5 is_stmt 1 view .LVU420
 1644              		.loc 1 643 9 is_stmt 0 view .LVU421
 1645 0010 FFF7FEFF 		bl	read_measurement
 1646              	.LVL149:
 1647              		.loc 1 643 8 view .LVU422
 1648 0014 B0F1FF3F 		cmp	r0, #-1
 1649 0018 05D0     		beq	.L123
 644:../../applications/SPG30-sensor-example/src/sgp30.c ****         return STATUS_FAIL;
 645:../../applications/SPG30-sensor-example/src/sgp30.c **** 
 646:../../applications/SPG30-sensor-example/src/sgp30.c ****     *scaled_ethanol_signal = client_data.word_buf[0];
 1650              		.loc 1 646 5 is_stmt 1 view .LVU423
 1651              		.loc 1 646 50 is_stmt 0 view .LVU424
 1652 001a 064B     		ldr	r3, .L126+4
 1653 001c 9A8B     		ldrh	r2, [r3, #28]
 1654              		.loc 1 646 28 view .LVU425
 1655 001e 2A80     		strh	r2, [r5]	@ movhi
 647:../../applications/SPG30-sensor-example/src/sgp30.c ****     *scaled_h2_signal = client_data.word_buf[1];
 1656              		.loc 1 647 5 is_stmt 1 view .LVU426
 1657              		.loc 1 647 45 is_stmt 0 view .LVU427
 1658 0020 DB8B     		ldrh	r3, [r3, #30]
 1659              		.loc 1 647 23 view .LVU428
 1660 0022 2380     		strh	r3, [r4]	@ movhi
 648:../../applications/SPG30-sensor-example/src/sgp30.c **** 
 649:../../applications/SPG30-sensor-example/src/sgp30.c ****     return STATUS_OK;
 1661              		.loc 1 649 5 is_stmt 1 view .LVU429
 1662              		.loc 1 649 12 is_stmt 0 view .LVU430
 1663 0024 0020     		movs	r0, #0
 1664              	.L123:
 650:../../applications/SPG30-sensor-example/src/sgp30.c **** }
 1665              		.loc 1 650 1 view .LVU431
 1666 0026 38BD     		pop	{r3, r4, r5, pc}
 1667              	.LVL150:
 1668              	.L124:
 641:../../applications/SPG30-sensor-example/src/sgp30.c **** 
 1669              		.loc 1 641 16 view .LVU432
 1670 0028 4FF0FF30 		mov	r0, #-1
 1671              	.LVL151:
 641:../../applications/SPG30-sensor-example/src/sgp30.c **** 
 1672              		.loc 1 641 16 view .LVU433
 1673 002c FBE7     		b	.L123
 1674              	.L127:
 1675 002e 00BF     		.align	2
ARM GAS  C:\Users\RUBENJ~1\AppData\Local\Temp\ccZJq1Pt.s 			page 45


 1676              	.L126:
 1677 0030 00000000 		.word	PROFILE_NUMBER_MEASURE_SIGNALS
 1678 0034 00000000 		.word	.LANCHOR0
 1679              		.cfi_endproc
 1680              	.LFE145:
 1682              		.section	.text.sgp_get_iaq_baseline,"ax",%progbits
 1683              		.align	1
 1684              		.global	sgp_get_iaq_baseline
 1685              		.syntax unified
 1686              		.thumb
 1687              		.thumb_func
 1688              		.fpu fpv4-sp-d16
 1690              	sgp_get_iaq_baseline:
 1691              	.LVL152:
 1692              	.LFB146:
 651:../../applications/SPG30-sensor-example/src/sgp30.c **** 
 652:../../applications/SPG30-sensor-example/src/sgp30.c **** 
 653:../../applications/SPG30-sensor-example/src/sgp30.c **** /**
 654:../../applications/SPG30-sensor-example/src/sgp30.c ****  * sgp_get_iaq_baseline() - read out the baseline from the chip
 655:../../applications/SPG30-sensor-example/src/sgp30.c ****  *
 656:../../applications/SPG30-sensor-example/src/sgp30.c ****  * The IAQ baseline should be retrieved and persisted for a faster sensor
 657:../../applications/SPG30-sensor-example/src/sgp30.c ****  * startup. See sgp_set_iaq_baseline() for further documentation.
 658:../../applications/SPG30-sensor-example/src/sgp30.c ****  *
 659:../../applications/SPG30-sensor-example/src/sgp30.c ****  * A valid baseline value is only returned approx. 60min after a call to
 660:../../applications/SPG30-sensor-example/src/sgp30.c ****  * sgp_iaq_init() when it is not followed by a call to sgp_set_iaq_baseline()
 661:../../applications/SPG30-sensor-example/src/sgp30.c ****  * with a valid baseline.
 662:../../applications/SPG30-sensor-example/src/sgp30.c ****  * This functions returns STATUS_FAIL if the baseline value is not valid.
 663:../../applications/SPG30-sensor-example/src/sgp30.c ****  *
 664:../../applications/SPG30-sensor-example/src/sgp30.c ****  * @baseline:   Pointer to raw u32 where to store the baseline
 665:../../applications/SPG30-sensor-example/src/sgp30.c ****  *              If the method returns STATUS_FAIL, the baseline value must be
 666:../../applications/SPG30-sensor-example/src/sgp30.c ****  *              discarded and must not be passed to sgp_set_iaq_baseline().
 667:../../applications/SPG30-sensor-example/src/sgp30.c ****  *
 668:../../applications/SPG30-sensor-example/src/sgp30.c ****  * Return:      STATUS_OK on success, else STATUS_FAIL
 669:../../applications/SPG30-sensor-example/src/sgp30.c ****  */
 670:../../applications/SPG30-sensor-example/src/sgp30.c **** s16 sgp_get_iaq_baseline(u32 *baseline) {
 1693              		.loc 1 670 41 is_stmt 1 view -0
 1694              		.cfi_startproc
 1695              		@ args = 0, pretend = 0, frame = 0
 1696              		@ frame_needed = 0, uses_anonymous_args = 0
 1697              		.loc 1 670 41 is_stmt 0 view .LVU435
 1698 0000 10B5     		push	{r4, lr}
 1699              	.LCFI43:
 1700              		.cfi_def_cfa_offset 8
 1701              		.cfi_offset 4, -8
 1702              		.cfi_offset 14, -4
 1703 0002 0446     		mov	r4, r0
 671:../../applications/SPG30-sensor-example/src/sgp30.c ****     s16 ret = sgp_run_profile_by_number(PROFILE_NUMBER_IAQ_GET_BASELINE);
 1704              		.loc 1 671 5 is_stmt 1 view .LVU436
 1705              		.loc 1 671 15 is_stmt 0 view .LVU437
 1706 0004 0220     		movs	r0, #2
 1707              	.LVL153:
 1708              		.loc 1 671 15 view .LVU438
 1709 0006 FFF7FEFF 		bl	sgp_run_profile_by_number
 1710              	.LVL154:
 672:../../applications/SPG30-sensor-example/src/sgp30.c ****     if (ret == STATUS_FAIL)
 1711              		.loc 1 672 5 is_stmt 1 view .LVU439
 1712              		.loc 1 672 8 is_stmt 0 view .LVU440
ARM GAS  C:\Users\RUBENJ~1\AppData\Local\Temp\ccZJq1Pt.s 			page 46


 1713 000a B0F1FF3F 		cmp	r0, #-1
 1714 000e 07D0     		beq	.L129
 673:../../applications/SPG30-sensor-example/src/sgp30.c ****         return STATUS_FAIL;
 674:../../applications/SPG30-sensor-example/src/sgp30.c **** 
 675:../../applications/SPG30-sensor-example/src/sgp30.c ****     ((u16 *)baseline)[0] = client_data.word_buf[0];
 1715              		.loc 1 675 5 is_stmt 1 view .LVU441
 1716              		.loc 1 675 48 is_stmt 0 view .LVU442
 1717 0010 054B     		ldr	r3, .L132
 1718 0012 9A8B     		ldrh	r2, [r3, #28]
 1719              		.loc 1 675 26 view .LVU443
 1720 0014 2280     		strh	r2, [r4]	@ movhi
 676:../../applications/SPG30-sensor-example/src/sgp30.c ****     ((u16 *)baseline)[1] = client_data.word_buf[1];
 1721              		.loc 1 676 5 is_stmt 1 view .LVU444
 1722              		.loc 1 676 48 is_stmt 0 view .LVU445
 1723 0016 DB8B     		ldrh	r3, [r3, #30]
 1724              		.loc 1 676 26 view .LVU446
 1725 0018 6380     		strh	r3, [r4, #2]	@ movhi
 677:../../applications/SPG30-sensor-example/src/sgp30.c **** 
 678:../../applications/SPG30-sensor-example/src/sgp30.c ****     if (!SGP_VALID_IAQ_BASELINE(*baseline))
 1726              		.loc 1 678 5 is_stmt 1 view .LVU447
 1727              		.loc 1 678 10 is_stmt 0 view .LVU448
 1728 001a 2368     		ldr	r3, [r4]
 1729              		.loc 1 678 8 view .LVU449
 1730 001c 0BB1     		cbz	r3, .L130
 679:../../applications/SPG30-sensor-example/src/sgp30.c ****         return STATUS_FAIL;
 680:../../applications/SPG30-sensor-example/src/sgp30.c **** 
 681:../../applications/SPG30-sensor-example/src/sgp30.c ****     return STATUS_OK;
 1731              		.loc 1 681 12 view .LVU450
 1732 001e 0020     		movs	r0, #0
 1733              	.LVL155:
 1734              	.L129:
 682:../../applications/SPG30-sensor-example/src/sgp30.c **** }
 1735              		.loc 1 682 1 view .LVU451
 1736 0020 10BD     		pop	{r4, pc}
 1737              	.LVL156:
 1738              	.L130:
 679:../../applications/SPG30-sensor-example/src/sgp30.c ****         return STATUS_FAIL;
 1739              		.loc 1 679 16 view .LVU452
 1740 0022 4FF0FF30 		mov	r0, #-1
 1741              	.LVL157:
 679:../../applications/SPG30-sensor-example/src/sgp30.c ****         return STATUS_FAIL;
 1742              		.loc 1 679 16 view .LVU453
 1743 0026 FBE7     		b	.L129
 1744              	.L133:
 1745              		.align	2
 1746              	.L132:
 1747 0028 00000000 		.word	.LANCHOR0
 1748              		.cfi_endproc
 1749              	.LFE146:
 1751              		.section	.text.sgp_set_iaq_baseline,"ax",%progbits
 1752              		.align	1
 1753              		.global	sgp_set_iaq_baseline
 1754              		.syntax unified
 1755              		.thumb
 1756              		.thumb_func
 1757              		.fpu fpv4-sp-d16
 1759              	sgp_set_iaq_baseline:
ARM GAS  C:\Users\RUBENJ~1\AppData\Local\Temp\ccZJq1Pt.s 			page 47


 1760              	.LVL158:
 1761              	.LFB147:
 683:../../applications/SPG30-sensor-example/src/sgp30.c **** 
 684:../../applications/SPG30-sensor-example/src/sgp30.c **** 
 685:../../applications/SPG30-sensor-example/src/sgp30.c **** /**
 686:../../applications/SPG30-sensor-example/src/sgp30.c ****  * sgp_set_iaq_baseline() - set the on-chip baseline
 687:../../applications/SPG30-sensor-example/src/sgp30.c ****  * @baseline:   A raw u32 baseline
 688:../../applications/SPG30-sensor-example/src/sgp30.c ****  *              This value must be unmodified from what was retrieved by a
 689:../../applications/SPG30-sensor-example/src/sgp30.c ****  *              successful call to sgp_get_iaq_baseline() with return value
 690:../../applications/SPG30-sensor-example/src/sgp30.c ****  *              STATUS_OK. A persisted baseline should not be set if it is
 691:../../applications/SPG30-sensor-example/src/sgp30.c ****  *              older than one week.
 692:../../applications/SPG30-sensor-example/src/sgp30.c ****  *
 693:../../applications/SPG30-sensor-example/src/sgp30.c ****  * Return:      STATUS_OK on success, else STATUS_FAIL
 694:../../applications/SPG30-sensor-example/src/sgp30.c ****  */
 695:../../applications/SPG30-sensor-example/src/sgp30.c **** s16 sgp_set_iaq_baseline(u32 baseline) {
 1762              		.loc 1 695 40 is_stmt 1 view -0
 1763              		.cfi_startproc
 1764              		@ args = 0, pretend = 0, frame = 16
 1765              		@ frame_needed = 0, uses_anonymous_args = 0
 1766              		.loc 1 695 40 is_stmt 0 view .LVU455
 1767 0000 00B5     		push	{lr}
 1768              	.LCFI44:
 1769              		.cfi_def_cfa_offset 4
 1770              		.cfi_offset 14, -4
 1771 0002 85B0     		sub	sp, sp, #20
 1772              	.LCFI45:
 1773              		.cfi_def_cfa_offset 24
 1774 0004 0190     		str	r0, [sp, #4]
 696:../../applications/SPG30-sensor-example/src/sgp30.c ****     const u16 BUF_SIZE = SGP_COMMAND_LEN + 2 * (SGP_WORD_LEN + CRC8_LEN);
 1775              		.loc 1 696 5 is_stmt 1 view .LVU456
 1776              	.LVL159:
 697:../../applications/SPG30-sensor-example/src/sgp30.c ****     u8 buf[BUF_SIZE];
 1777              		.loc 1 697 5 view .LVU457
 698:../../applications/SPG30-sensor-example/src/sgp30.c ****     const struct sgp_profile *profile;
 1778              		.loc 1 698 5 view .LVU458
 699:../../applications/SPG30-sensor-example/src/sgp30.c **** 
 700:../../applications/SPG30-sensor-example/src/sgp30.c ****     if (!SGP_VALID_IAQ_BASELINE(baseline))
 1779              		.loc 1 700 5 view .LVU459
 1780              		.loc 1 700 8 is_stmt 0 view .LVU460
 1781 0006 98B1     		cbz	r0, .L136
 701:../../applications/SPG30-sensor-example/src/sgp30.c ****         return STATUS_FAIL;
 702:../../applications/SPG30-sensor-example/src/sgp30.c **** 
 703:../../applications/SPG30-sensor-example/src/sgp30.c ****     profile = sgp_get_profile_by_number(PROFILE_NUMBER_IAQ_SET_BASELINE);
 1782              		.loc 1 703 5 is_stmt 1 view .LVU461
 1783              		.loc 1 703 15 is_stmt 0 view .LVU462
 1784 0008 0320     		movs	r0, #3
 1785              	.LVL160:
 1786              		.loc 1 703 15 view .LVU463
 1787 000a FFF7FEFF 		bl	sgp_get_profile_by_number
 1788              	.LVL161:
 704:../../applications/SPG30-sensor-example/src/sgp30.c ****     sgp_fill_cmd_send_buf(buf, &profile->command, (u16 *)&baseline,
 1789              		.loc 1 704 5 is_stmt 1 view .LVU464
 1790 000e 0223     		movs	r3, #2
 1791 0010 01AA     		add	r2, sp, #4
 1792 0012 00F10C01 		add	r1, r0, #12
 1793 0016 02A8     		add	r0, sp, #8
 1794              	.LVL162:
ARM GAS  C:\Users\RUBENJ~1\AppData\Local\Temp\ccZJq1Pt.s 			page 48


 1795              		.loc 1 704 5 is_stmt 0 view .LVU465
 1796 0018 FFF7FEFF 		bl	sgp_fill_cmd_send_buf
 1797              	.LVL163:
 705:../../applications/SPG30-sensor-example/src/sgp30.c ****                           sizeof(baseline) / SGP_WORD_LEN);
 706:../../applications/SPG30-sensor-example/src/sgp30.c **** 
 707:../../applications/SPG30-sensor-example/src/sgp30.c ****     if (sensirion_i2c_write(SGP_I2C_ADDRESS, buf, BUF_SIZE) != 0)
 1798              		.loc 1 707 5 is_stmt 1 view .LVU466
 1799              	.LBB2:
 1800              		.loc 1 707 9 is_stmt 0 view .LVU467
 1801 001c 0822     		movs	r2, #8
 1802 001e 0DEB0201 		add	r1, sp, r2
 1803 0022 5820     		movs	r0, #88
 1804 0024 FFF7FEFF 		bl	sensirion_i2c_write
 1805              	.LVL164:
 1806              		.loc 1 707 8 view .LVU468
 1807 0028 28B9     		cbnz	r0, .L137
 1808              	.L135:
 1809              		.loc 1 707 8 view .LVU469
 1810              	.LBE2:
 708:../../applications/SPG30-sensor-example/src/sgp30.c ****         return STATUS_FAIL;
 709:../../applications/SPG30-sensor-example/src/sgp30.c **** 
 710:../../applications/SPG30-sensor-example/src/sgp30.c ****     return STATUS_OK;
 711:../../applications/SPG30-sensor-example/src/sgp30.c **** }
 1811              		.loc 1 711 1 view .LVU470
 1812 002a 05B0     		add	sp, sp, #20
 1813              	.LCFI46:
 1814              		.cfi_remember_state
 1815              		.cfi_def_cfa_offset 4
 1816              		@ sp needed
 1817 002c 5DF804FB 		ldr	pc, [sp], #4
 1818              	.LVL165:
 1819              	.L136:
 1820              	.LCFI47:
 1821              		.cfi_restore_state
 701:../../applications/SPG30-sensor-example/src/sgp30.c **** 
 1822              		.loc 1 701 16 view .LVU471
 1823 0030 4FF0FF30 		mov	r0, #-1
 1824              	.LVL166:
 701:../../applications/SPG30-sensor-example/src/sgp30.c **** 
 1825              		.loc 1 701 16 view .LVU472
 1826 0034 F9E7     		b	.L135
 1827              	.LVL167:
 1828              	.L137:
 1829              	.LBB3:
 708:../../applications/SPG30-sensor-example/src/sgp30.c ****         return STATUS_FAIL;
 1830              		.loc 1 708 16 view .LVU473
 1831 0036 4FF0FF30 		mov	r0, #-1
 1832 003a F6E7     		b	.L135
 1833              	.LBE3:
 1834              		.cfi_endproc
 1835              	.LFE147:
 1837              		.section	.text.sgp_set_absolute_humidity,"ax",%progbits
 1838              		.align	1
 1839              		.global	sgp_set_absolute_humidity
 1840              		.syntax unified
 1841              		.thumb
 1842              		.thumb_func
ARM GAS  C:\Users\RUBENJ~1\AppData\Local\Temp\ccZJq1Pt.s 			page 49


 1843              		.fpu fpv4-sp-d16
 1845              	sgp_set_absolute_humidity:
 1846              	.LVL168:
 1847              	.LFB148:
 712:../../applications/SPG30-sensor-example/src/sgp30.c **** 
 713:../../applications/SPG30-sensor-example/src/sgp30.c **** 
 714:../../applications/SPG30-sensor-example/src/sgp30.c **** /**
 715:../../applications/SPG30-sensor-example/src/sgp30.c ****  * sgp_set_absolute_humidity() - set the absolute humidity for compensation
 716:../../applications/SPG30-sensor-example/src/sgp30.c ****  *
 717:../../applications/SPG30-sensor-example/src/sgp30.c ****  * The absolute humidity must be provided in in mg/m^3 and the value must
 718:../../applications/SPG30-sensor-example/src/sgp30.c ****  * be between 0 and 256000 mg/m^3.
 719:../../applications/SPG30-sensor-example/src/sgp30.c ****  * If the absolute humidity is set to zero, humidity compensation will be
 720:../../applications/SPG30-sensor-example/src/sgp30.c ****  * disabled
 721:../../applications/SPG30-sensor-example/src/sgp30.c ****  *
 722:../../applications/SPG30-sensor-example/src/sgp30.c ****  * @absolute_humidity:   u32 absolute humidity in mg/m^3
 723:../../applications/SPG30-sensor-example/src/sgp30.c ****  *
 724:../../applications/SPG30-sensor-example/src/sgp30.c ****  * Return:      STATUS_OK on success, else STATUS_FAIL
 725:../../applications/SPG30-sensor-example/src/sgp30.c ****  */
 726:../../applications/SPG30-sensor-example/src/sgp30.c **** s16 sgp_set_absolute_humidity(u32 absolute_humidity) {
 1848              		.loc 1 726 54 is_stmt 1 view -0
 1849              		.cfi_startproc
 1850              		@ args = 0, pretend = 0, frame = 16
 1851              		@ frame_needed = 0, uses_anonymous_args = 0
 1852              		.loc 1 726 54 is_stmt 0 view .LVU475
 1853 0000 30B5     		push	{r4, r5, lr}
 1854              	.LCFI48:
 1855              		.cfi_def_cfa_offset 12
 1856              		.cfi_offset 4, -12
 1857              		.cfi_offset 5, -8
 1858              		.cfi_offset 14, -4
 1859 0002 85B0     		sub	sp, sp, #20
 1860              	.LCFI49:
 1861              		.cfi_def_cfa_offset 32
 1862 0004 0446     		mov	r4, r0
 727:../../applications/SPG30-sensor-example/src/sgp30.c ****     const struct sgp_profile *profile;
 1863              		.loc 1 727 5 is_stmt 1 view .LVU476
 728:../../applications/SPG30-sensor-example/src/sgp30.c ****     u16 ah_scaled;
 1864              		.loc 1 728 5 view .LVU477
 729:../../applications/SPG30-sensor-example/src/sgp30.c ****     const u16 BUF_SIZE = SGP_COMMAND_LEN + SGP_WORD_LEN + CRC8_LEN;
 1865              		.loc 1 729 5 view .LVU478
 1866              	.LVL169:
 730:../../applications/SPG30-sensor-example/src/sgp30.c ****     u8 buf[BUF_SIZE];
 1867              		.loc 1 730 5 view .LVU479
 731:../../applications/SPG30-sensor-example/src/sgp30.c **** 
 732:../../applications/SPG30-sensor-example/src/sgp30.c ****     profile = sgp_get_profile_by_number(PROFILE_NUMBER_SET_ABSOLUTE_HUMIDITY);
 1868              		.loc 1 732 5 view .LVU480
 1869              		.loc 1 732 15 is_stmt 0 view .LVU481
 1870 0006 154B     		ldr	r3, .L145
 1871 0008 1878     		ldrb	r0, [r3]	@ zero_extendqisi2
 1872              	.LVL170:
 1873              		.loc 1 732 15 view .LVU482
 1874 000a FFF7FEFF 		bl	sgp_get_profile_by_number
 1875              	.LVL171:
 733:../../applications/SPG30-sensor-example/src/sgp30.c **** 
 734:../../applications/SPG30-sensor-example/src/sgp30.c ****     if (profile == NULL)
 1876              		.loc 1 734 5 is_stmt 1 view .LVU483
 1877              		.loc 1 734 8 is_stmt 0 view .LVU484
ARM GAS  C:\Users\RUBENJ~1\AppData\Local\Temp\ccZJq1Pt.s 			page 50


 1878 000e D8B1     		cbz	r0, .L141
 1879 0010 0546     		mov	r5, r0
 735:../../applications/SPG30-sensor-example/src/sgp30.c ****         return STATUS_FAIL;
 736:../../applications/SPG30-sensor-example/src/sgp30.c **** 
 737:../../applications/SPG30-sensor-example/src/sgp30.c ****     if (absolute_humidity > 256000)
 1880              		.loc 1 737 5 is_stmt 1 view .LVU485
 1881              		.loc 1 737 8 is_stmt 0 view .LVU486
 1882 0012 B4F57A3F 		cmp	r4, #256000
 1883 0016 1AD8     		bhi	.L142
 738:../../applications/SPG30-sensor-example/src/sgp30.c ****         return STATUS_FAIL;
 739:../../applications/SPG30-sensor-example/src/sgp30.c **** 
 740:../../applications/SPG30-sensor-example/src/sgp30.c ****     /* ah_scaled = (absolute_humidity / 1000) * 256 */
 741:../../applications/SPG30-sensor-example/src/sgp30.c ****     ah_scaled = (u16)(((u64)absolute_humidity * 256 * 16777) >> 24);
 1884              		.loc 1 741 5 is_stmt 1 view .LVU487
 1885              		.loc 1 741 53 is_stmt 0 view .LVU488
 1886 0018 1148     		ldr	r0, .L145+4
 1887              	.LVL172:
 1888              		.loc 1 741 53 view .LVU489
 1889 001a A4FB0001 		umull	r0, r1, r4, r0
 1890              		.loc 1 741 62 view .LVU490
 1891 001e 030E     		lsrs	r3, r0, #24
 1892 0020 43EA0123 		orr	r3, r3, r1, lsl #8
 1893              		.loc 1 741 15 view .LVU491
 1894 0024 ADF80630 		strh	r3, [sp, #6]	@ movhi
 742:../../applications/SPG30-sensor-example/src/sgp30.c **** 
 743:../../applications/SPG30-sensor-example/src/sgp30.c ****     sgp_fill_cmd_send_buf(buf, &profile->command, &ah_scaled,
 1895              		.loc 1 743 5 is_stmt 1 view .LVU492
 1896 0028 0123     		movs	r3, #1
 1897 002a 0DF10602 		add	r2, sp, #6
 1898 002e 05F10C01 		add	r1, r5, #12
 1899 0032 02A8     		add	r0, sp, #8
 1900              	.LVL173:
 1901              		.loc 1 743 5 is_stmt 0 view .LVU493
 1902 0034 FFF7FEFF 		bl	sgp_fill_cmd_send_buf
 1903              	.LVL174:
 744:../../applications/SPG30-sensor-example/src/sgp30.c ****                           sizeof(ah_scaled) / SGP_WORD_LEN);
 745:../../applications/SPG30-sensor-example/src/sgp30.c **** 
 746:../../applications/SPG30-sensor-example/src/sgp30.c ****     if (sensirion_i2c_write(SGP_I2C_ADDRESS, buf, BUF_SIZE) != 0)
 1904              		.loc 1 746 5 is_stmt 1 view .LVU494
 1905              	.LBB4:
 1906              		.loc 1 746 9 is_stmt 0 view .LVU495
 1907 0038 0522     		movs	r2, #5
 1908 003a 02A9     		add	r1, sp, #8
 1909              	.LVL175:
 1910              		.loc 1 746 9 view .LVU496
 1911 003c 5820     		movs	r0, #88
 1912 003e FFF7FEFF 		bl	sensirion_i2c_write
 1913              	.LVL176:
 1914              		.loc 1 746 8 view .LVU497
 1915 0042 38B9     		cbnz	r0, .L143
 1916              	.LVL177:
 1917              	.L140:
 1918              		.loc 1 746 8 view .LVU498
 1919              	.LBE4:
 747:../../applications/SPG30-sensor-example/src/sgp30.c ****         return STATUS_FAIL;
 748:../../applications/SPG30-sensor-example/src/sgp30.c **** 
 749:../../applications/SPG30-sensor-example/src/sgp30.c ****     return STATUS_OK;
ARM GAS  C:\Users\RUBENJ~1\AppData\Local\Temp\ccZJq1Pt.s 			page 51


 750:../../applications/SPG30-sensor-example/src/sgp30.c **** }
 1920              		.loc 1 750 1 view .LVU499
 1921 0044 05B0     		add	sp, sp, #20
 1922              	.LCFI50:
 1923              		.cfi_remember_state
 1924              		.cfi_def_cfa_offset 12
 1925              		@ sp needed
 1926 0046 30BD     		pop	{r4, r5, pc}
 1927              	.LVL178:
 1928              	.L141:
 1929              	.LCFI51:
 1930              		.cfi_restore_state
 735:../../applications/SPG30-sensor-example/src/sgp30.c **** 
 1931              		.loc 1 735 16 view .LVU500
 1932 0048 4FF0FF30 		mov	r0, #-1
 1933              	.LVL179:
 735:../../applications/SPG30-sensor-example/src/sgp30.c **** 
 1934              		.loc 1 735 16 view .LVU501
 1935 004c FAE7     		b	.L140
 1936              	.LVL180:
 1937              	.L142:
 738:../../applications/SPG30-sensor-example/src/sgp30.c **** 
 1938              		.loc 1 738 16 view .LVU502
 1939 004e 4FF0FF30 		mov	r0, #-1
 1940              	.LVL181:
 738:../../applications/SPG30-sensor-example/src/sgp30.c **** 
 1941              		.loc 1 738 16 view .LVU503
 1942 0052 F7E7     		b	.L140
 1943              	.L143:
 1944              	.LBB5:
 747:../../applications/SPG30-sensor-example/src/sgp30.c ****         return STATUS_FAIL;
 1945              		.loc 1 747 16 view .LVU504
 1946 0054 4FF0FF30 		mov	r0, #-1
 1947 0058 F4E7     		b	.L140
 1948              	.L146:
 1949 005a 00BF     		.align	2
 1950              	.L145:
 1951 005c 00000000 		.word	PROFILE_NUMBER_SET_ABSOLUTE_HUMIDITY
 1952 0060 00894100 		.word	4294912
 1953              	.LBE5:
 1954              		.cfi_endproc
 1955              	.LFE148:
 1957              		.section	.text.sgp_get_driver_version,"ax",%progbits
 1958              		.align	1
 1959              		.global	sgp_get_driver_version
 1960              		.syntax unified
 1961              		.thumb
 1962              		.thumb_func
 1963              		.fpu fpv4-sp-d16
 1965              	sgp_get_driver_version:
 1966              	.LFB149:
 751:../../applications/SPG30-sensor-example/src/sgp30.c **** 
 752:../../applications/SPG30-sensor-example/src/sgp30.c **** 
 753:../../applications/SPG30-sensor-example/src/sgp30.c **** /**
 754:../../applications/SPG30-sensor-example/src/sgp30.c ****  * sgp_get_driver_version() - Return the driver version
 755:../../applications/SPG30-sensor-example/src/sgp30.c ****  * Return:  Driver version string
 756:../../applications/SPG30-sensor-example/src/sgp30.c ****  */
ARM GAS  C:\Users\RUBENJ~1\AppData\Local\Temp\ccZJq1Pt.s 			page 52


 757:../../applications/SPG30-sensor-example/src/sgp30.c **** const char *sgp_get_driver_version()
 758:../../applications/SPG30-sensor-example/src/sgp30.c **** {
 1967              		.loc 1 758 1 is_stmt 1 view -0
 1968              		.cfi_startproc
 1969              		@ args = 0, pretend = 0, frame = 0
 1970              		@ frame_needed = 0, uses_anonymous_args = 0
 1971              		@ link register save eliminated.
 759:../../applications/SPG30-sensor-example/src/sgp30.c ****     return SGP_DRV_VERSION_STR;
 1972              		.loc 1 759 5 view .LVU506
 760:../../applications/SPG30-sensor-example/src/sgp30.c **** }
 1973              		.loc 1 760 1 is_stmt 0 view .LVU507
 1974 0000 0048     		ldr	r0, .L148
 1975 0002 7047     		bx	lr
 1976              	.L149:
 1977              		.align	2
 1978              	.L148:
 1979 0004 00000000 		.word	.LC0
 1980              		.cfi_endproc
 1981              	.LFE149:
 1983              		.section	.text.sgp_get_configured_address,"ax",%progbits
 1984              		.align	1
 1985              		.global	sgp_get_configured_address
 1986              		.syntax unified
 1987              		.thumb
 1988              		.thumb_func
 1989              		.fpu fpv4-sp-d16
 1991              	sgp_get_configured_address:
 1992              	.LFB150:
 761:../../applications/SPG30-sensor-example/src/sgp30.c **** 
 762:../../applications/SPG30-sensor-example/src/sgp30.c **** 
 763:../../applications/SPG30-sensor-example/src/sgp30.c **** /**
 764:../../applications/SPG30-sensor-example/src/sgp30.c ****  * sgp_get_configured_address() - returns the configured I2C address
 765:../../applications/SPG30-sensor-example/src/sgp30.c ****  *
 766:../../applications/SPG30-sensor-example/src/sgp30.c ****  * Return:      u8 I2C address
 767:../../applications/SPG30-sensor-example/src/sgp30.c ****  */
 768:../../applications/SPG30-sensor-example/src/sgp30.c **** u8 sgp_get_configured_address() {
 1993              		.loc 1 768 33 is_stmt 1 view -0
 1994              		.cfi_startproc
 1995              		@ args = 0, pretend = 0, frame = 0
 1996              		@ frame_needed = 0, uses_anonymous_args = 0
 1997              		@ link register save eliminated.
 769:../../applications/SPG30-sensor-example/src/sgp30.c ****     return SGP_I2C_ADDRESS;
 1998              		.loc 1 769 5 view .LVU509
 770:../../applications/SPG30-sensor-example/src/sgp30.c **** }
 1999              		.loc 1 770 1 is_stmt 0 view .LVU510
 2000 0000 5820     		movs	r0, #88
 2001 0002 7047     		bx	lr
 2002              		.cfi_endproc
 2003              	.LFE150:
 2005              		.section	.text.sgp_get_feature_set_version,"ax",%progbits
 2006              		.align	1
 2007              		.global	sgp_get_feature_set_version
 2008              		.syntax unified
 2009              		.thumb
 2010              		.thumb_func
 2011              		.fpu fpv4-sp-d16
 2013              	sgp_get_feature_set_version:
ARM GAS  C:\Users\RUBENJ~1\AppData\Local\Temp\ccZJq1Pt.s 			page 53


 2014              	.LVL182:
 2015              	.LFB151:
 771:../../applications/SPG30-sensor-example/src/sgp30.c **** 
 772:../../applications/SPG30-sensor-example/src/sgp30.c **** 
 773:../../applications/SPG30-sensor-example/src/sgp30.c **** /**
 774:../../applications/SPG30-sensor-example/src/sgp30.c ****  * sgp_get_feature_set_version() - Retrieve the sensor's feature set version and
 775:../../applications/SPG30-sensor-example/src/sgp30.c ****  *                                 product type
 776:../../applications/SPG30-sensor-example/src/sgp30.c ****  *
 777:../../applications/SPG30-sensor-example/src/sgp30.c ****  * @feature_set_version:    The feature set version
 778:../../applications/SPG30-sensor-example/src/sgp30.c ****  * @product_type:           The product type: 0 for sgp30, 1: sgpc3
 779:../../applications/SPG30-sensor-example/src/sgp30.c ****  *
 780:../../applications/SPG30-sensor-example/src/sgp30.c ****  * Return:  STATUS_OK on success
 781:../../applications/SPG30-sensor-example/src/sgp30.c ****  */
 782:../../applications/SPG30-sensor-example/src/sgp30.c **** s16 sgp_get_feature_set_version(u16 *feature_set_version, u8 *product_type) {
 2016              		.loc 1 782 77 is_stmt 1 view -0
 2017              		.cfi_startproc
 2018              		@ args = 0, pretend = 0, frame = 0
 2019              		@ frame_needed = 0, uses_anonymous_args = 0
 2020              		@ link register save eliminated.
 783:../../applications/SPG30-sensor-example/src/sgp30.c ****     *feature_set_version = client_data.info.feature_set_version & 0x00FF;
 2021              		.loc 1 783 5 view .LVU512
 2022              		.loc 1 783 65 is_stmt 0 view .LVU513
 2023 0000 024B     		ldr	r3, .L152
 2024 0002 1B7C     		ldrb	r3, [r3, #16]	@ zero_extendqisi2
 2025              		.loc 1 783 26 view .LVU514
 2026 0004 0380     		strh	r3, [r0]	@ movhi
 784:../../applications/SPG30-sensor-example/src/sgp30.c ****     *product_type = (u8)((client_data.info.feature_set_version & 0xC0000) >> 14);
 2027              		.loc 1 784 5 is_stmt 1 view .LVU515
 2028              		.loc 1 784 19 is_stmt 0 view .LVU516
 2029 0006 0020     		movs	r0, #0
 2030              	.LVL183:
 2031              		.loc 1 784 19 view .LVU517
 2032 0008 0870     		strb	r0, [r1]
 785:../../applications/SPG30-sensor-example/src/sgp30.c ****     return STATUS_OK;
 2033              		.loc 1 785 5 is_stmt 1 view .LVU518
 786:../../applications/SPG30-sensor-example/src/sgp30.c **** }
 2034              		.loc 1 786 1 is_stmt 0 view .LVU519
 2035 000a 7047     		bx	lr
 2036              	.L153:
 2037              		.align	2
 2038              	.L152:
 2039 000c 00000000 		.word	.LANCHOR0
 2040              		.cfi_endproc
 2041              	.LFE151:
 2043              		.section	.text.sgp_iaq_init,"ax",%progbits
 2044              		.align	1
 2045              		.global	sgp_iaq_init
 2046              		.syntax unified
 2047              		.thumb
 2048              		.thumb_func
 2049              		.fpu fpv4-sp-d16
 2051              	sgp_iaq_init:
 2052              	.LFB152:
 787:../../applications/SPG30-sensor-example/src/sgp30.c **** 
 788:../../applications/SPG30-sensor-example/src/sgp30.c **** 
 789:../../applications/SPG30-sensor-example/src/sgp30.c **** /**
 790:../../applications/SPG30-sensor-example/src/sgp30.c ****  * sgp_iaq_init() - reset the SGP's internal IAQ baselines
ARM GAS  C:\Users\RUBENJ~1\AppData\Local\Temp\ccZJq1Pt.s 			page 54


 791:../../applications/SPG30-sensor-example/src/sgp30.c ****  *
 792:../../applications/SPG30-sensor-example/src/sgp30.c ****  * Return:  STATUS_OK on success.
 793:../../applications/SPG30-sensor-example/src/sgp30.c ****  */
 794:../../applications/SPG30-sensor-example/src/sgp30.c **** s16 sgp_iaq_init() {
 2053              		.loc 1 794 20 is_stmt 1 view -0
 2054              		.cfi_startproc
 2055              		@ args = 0, pretend = 0, frame = 0
 2056              		@ frame_needed = 0, uses_anonymous_args = 0
 2057 0000 08B5     		push	{r3, lr}
 2058              	.LCFI52:
 2059              		.cfi_def_cfa_offset 8
 2060              		.cfi_offset 3, -8
 2061              		.cfi_offset 14, -4
 795:../../applications/SPG30-sensor-example/src/sgp30.c ****     return sgp_run_profile_by_number(PROFILE_NUMBER_IAQ_INIT);
 2062              		.loc 1 795 5 view .LVU521
 2063              		.loc 1 795 12 is_stmt 0 view .LVU522
 2064 0002 0020     		movs	r0, #0
 2065 0004 FFF7FEFF 		bl	sgp_run_profile_by_number
 2066              	.LVL184:
 796:../../applications/SPG30-sensor-example/src/sgp30.c **** }
 2067              		.loc 1 796 1 view .LVU523
 2068 0008 08BD     		pop	{r3, pc}
 2069              		.cfi_endproc
 2070              	.LFE152:
 2072              		.section	.text.sgp_probe,"ax",%progbits
 2073              		.align	1
 2074              		.global	sgp_probe
 2075              		.syntax unified
 2076              		.thumb
 2077              		.thumb_func
 2078              		.fpu fpv4-sp-d16
 2080              	sgp_probe:
 2081              	.LFB153:
 797:../../applications/SPG30-sensor-example/src/sgp30.c **** 
 798:../../applications/SPG30-sensor-example/src/sgp30.c **** 
 799:../../applications/SPG30-sensor-example/src/sgp30.c **** /**
 800:../../applications/SPG30-sensor-example/src/sgp30.c ****  * sgp_probe() - check if SGP sensor is available and initialize it
 801:../../applications/SPG30-sensor-example/src/sgp30.c ****  *
 802:../../applications/SPG30-sensor-example/src/sgp30.c ****  * This call aleady initializes the IAQ baselines (sgp_iaq_init())
 803:../../applications/SPG30-sensor-example/src/sgp30.c ****  *
 804:../../applications/SPG30-sensor-example/src/sgp30.c ****  * Return:  STATUS_OK on success.
 805:../../applications/SPG30-sensor-example/src/sgp30.c ****  */
 806:../../applications/SPG30-sensor-example/src/sgp30.c **** s16 sgp_probe() {
 2082              		.loc 1 806 17 is_stmt 1 view -0
 2083              		.cfi_startproc
 2084              		@ args = 0, pretend = 0, frame = 0
 2085              		@ frame_needed = 0, uses_anonymous_args = 0
 2086 0000 10B5     		push	{r4, lr}
 2087              	.LCFI53:
 2088              		.cfi_def_cfa_offset 8
 2089              		.cfi_offset 4, -8
 2090              		.cfi_offset 14, -4
 807:../../applications/SPG30-sensor-example/src/sgp30.c ****     s16 err;
 2091              		.loc 1 807 5 view .LVU525
 808:../../applications/SPG30-sensor-example/src/sgp30.c ****     const u64 *serial_buf = (const u64 *)client_data.word_buf;
 2092              		.loc 1 808 5 view .LVU526
 2093              	.LVL185:
ARM GAS  C:\Users\RUBENJ~1\AppData\Local\Temp\ccZJq1Pt.s 			page 55


 809:../../applications/SPG30-sensor-example/src/sgp30.c **** 
 810:../../applications/SPG30-sensor-example/src/sgp30.c ****     client_data.current_state = WAIT_STATE;
 2094              		.loc 1 810 5 view .LVU527
 2095              		.loc 1 810 31 is_stmt 0 view .LVU528
 2096 0002 1D4C     		ldr	r4, .L159
 2097 0004 0023     		movs	r3, #0
 2098 0006 04F81C3B 		strb	r3, [r4], #28
 811:../../applications/SPG30-sensor-example/src/sgp30.c **** 
 812:../../applications/SPG30-sensor-example/src/sgp30.c ****     /* Initialize I2C */
 813:../../applications/SPG30-sensor-example/src/sgp30.c ****     sensirion_i2c_init();
 2099              		.loc 1 813 5 is_stmt 1 view .LVU529
 2100 000a FFF7FEFF 		bl	sensirion_i2c_init
 2101              	.LVL186:
 814:../../applications/SPG30-sensor-example/src/sgp30.c **** 
 815:../../applications/SPG30-sensor-example/src/sgp30.c ****     /* try to read the serial ID */
 816:../../applications/SPG30-sensor-example/src/sgp30.c ****     err = sgp_i2c_read_words_from_cmd(&sgp_cmd_get_serial_id,
 2102              		.loc 1 816 5 view .LVU530
 2103              		.loc 1 816 11 is_stmt 0 view .LVU531
 2104 000e 0223     		movs	r3, #2
 2105 0010 2246     		mov	r2, r4
 2106 0012 4FF4FA71 		mov	r1, #500
 2107 0016 1948     		ldr	r0, .L159+4
 2108 0018 FFF7FEFF 		bl	sgp_i2c_read_words_from_cmd
 2109              	.LVL187:
 817:../../applications/SPG30-sensor-example/src/sgp30.c ****                                       SGP_CMD_GET_SERIAL_ID_DURATION_US,
 818:../../applications/SPG30-sensor-example/src/sgp30.c ****                                       client_data.word_buf,
 819:../../applications/SPG30-sensor-example/src/sgp30.c ****                                       SGP_CMD_GET_SERIAL_ID_WORDS);
 820:../../applications/SPG30-sensor-example/src/sgp30.c ****     if (err == STATUS_FAIL)
 2110              		.loc 1 820 5 is_stmt 1 view .LVU532
 2111              		.loc 1 820 8 is_stmt 0 view .LVU533
 2112 001c B0F1FF3F 		cmp	r0, #-1
 2113 0020 28D0     		beq	.L157
 821:../../applications/SPG30-sensor-example/src/sgp30.c ****         return err;
 822:../../applications/SPG30-sensor-example/src/sgp30.c **** 
 823:../../applications/SPG30-sensor-example/src/sgp30.c ****     client_data.info.serial_id = be64_to_cpu(*serial_buf) >> 16;
 2114              		.loc 1 823 5 is_stmt 1 view .LVU534
 2115              		.loc 1 823 34 is_stmt 0 view .LVU535
 2116 0022 154A     		ldr	r2, .L159
 2117 0024 D369     		ldr	r3, [r2, #28]
 2118 0026 99B2     		uxth	r1, r3
 2119 0028 080A     		lsrs	r0, r1, #8
 2120              	.LVL188:
 2121              		.loc 1 823 34 view .LVU536
 2122 002a 40EA0120 		orr	r0, r0, r1, lsl #8
 2123 002e 190C     		lsrs	r1, r3, #16
 2124 0030 0B0A     		lsrs	r3, r1, #8
 2125 0032 43EA0123 		orr	r3, r3, r1, lsl #8
 2126 0036 9BB2     		uxth	r3, r3
 2127 0038 43EA0043 		orr	r3, r3, r0, lsl #16
 2128 003c 108C     		ldrh	r0, [r2, #32]
 2129 003e 010A     		lsrs	r1, r0, #8
 2130 0040 41EA0021 		orr	r1, r1, r0, lsl #8
 2131              		.loc 1 823 59 view .LVU537
 2132 0044 89B2     		uxth	r1, r1
 2133 0046 41EA0341 		orr	r1, r1, r3, lsl #16
 2134 004a 1B0C     		lsrs	r3, r3, #16
 2135              		.loc 1 823 32 view .LVU538
ARM GAS  C:\Users\RUBENJ~1\AppData\Local\Temp\ccZJq1Pt.s 			page 56


 2136 004c 9160     		str	r1, [r2, #8]
 2137 004e D360     		str	r3, [r2, #12]
 824:../../applications/SPG30-sensor-example/src/sgp30.c **** 
 825:../../applications/SPG30-sensor-example/src/sgp30.c ****     /* read the featureset version */
 826:../../applications/SPG30-sensor-example/src/sgp30.c ****     err = sgp_i2c_read_words_from_cmd(&sgp_cmd_get_featureset,
 2138              		.loc 1 826 5 is_stmt 1 view .LVU539
 2139              		.loc 1 826 11 is_stmt 0 view .LVU540
 2140 0050 0123     		movs	r3, #1
 2141 0052 2246     		mov	r2, r4
 2142 0054 4FF47A71 		mov	r1, #1000
 2143 0058 0948     		ldr	r0, .L159+8
 2144 005a FFF7FEFF 		bl	sgp_i2c_read_words_from_cmd
 2145              	.LVL189:
 827:../../applications/SPG30-sensor-example/src/sgp30.c ****                                       SGP_CMD_GET_FEATURESET_DURATION_US,
 828:../../applications/SPG30-sensor-example/src/sgp30.c ****                                       client_data.word_buf,
 829:../../applications/SPG30-sensor-example/src/sgp30.c ****                                       SGP_CMD_GET_FEATURESET_WORDS);
 830:../../applications/SPG30-sensor-example/src/sgp30.c ****     if (err == STATUS_FAIL)
 2146              		.loc 1 830 5 is_stmt 1 view .LVU541
 2147              		.loc 1 830 8 is_stmt 0 view .LVU542
 2148 005e B0F1FF3F 		cmp	r0, #-1
 2149 0062 07D0     		beq	.L157
 831:../../applications/SPG30-sensor-example/src/sgp30.c ****         return STATUS_FAIL;
 832:../../applications/SPG30-sensor-example/src/sgp30.c **** 
 833:../../applications/SPG30-sensor-example/src/sgp30.c ****     err = sgp_detect_featureset_version(client_data.word_buf);
 2150              		.loc 1 833 5 is_stmt 1 view .LVU543
 2151              		.loc 1 833 11 is_stmt 0 view .LVU544
 2152 0064 0748     		ldr	r0, .L159+12
 2153              	.LVL190:
 2154              		.loc 1 833 11 view .LVU545
 2155 0066 FFF7FEFF 		bl	sgp_detect_featureset_version
 2156              	.LVL191:
 834:../../applications/SPG30-sensor-example/src/sgp30.c ****     if (err == STATUS_FAIL)
 2157              		.loc 1 834 5 is_stmt 1 view .LVU546
 2158              		.loc 1 834 8 is_stmt 0 view .LVU547
 2159 006a B0F1FF3F 		cmp	r0, #-1
 2160 006e 01D0     		beq	.L157
 835:../../applications/SPG30-sensor-example/src/sgp30.c ****         return STATUS_FAIL;
 836:../../applications/SPG30-sensor-example/src/sgp30.c **** 
 837:../../applications/SPG30-sensor-example/src/sgp30.c ****     return sgp_iaq_init();
 2161              		.loc 1 837 5 is_stmt 1 view .LVU548
 2162              		.loc 1 837 12 is_stmt 0 view .LVU549
 2163 0070 FFF7FEFF 		bl	sgp_iaq_init
 2164              	.LVL192:
 2165              	.L157:
 838:../../applications/SPG30-sensor-example/src/sgp30.c **** }
 2166              		.loc 1 838 1 view .LVU550
 2167 0074 10BD     		pop	{r4, pc}
 2168              	.L160:
 2169 0076 00BF     		.align	2
 2170              	.L159:
 2171 0078 00000000 		.word	.LANCHOR0
 2172 007c 00000000 		.word	.LANCHOR3
 2173 0080 00000000 		.word	.LANCHOR4
 2174 0084 1C000000 		.word	.LANCHOR0+28
 2175              		.cfi_endproc
 2176              	.LFE153:
 2178              		.comm	P3_I2C,76,4
ARM GAS  C:\Users\RUBENJ~1\AppData\Local\Temp\ccZJq1Pt.s 			page 57


 2179              		.comm	P2_I2C,76,4
 2180              		.comm	P1_I2C,76,4
 2181              		.comm	common_I2C,76,4
 2182              		.section	.bss.client_data,"aw",%nobits
 2183              		.align	3
 2184              		.set	.LANCHOR0,. + 0
 2187              	client_data:
 2188 0000 00000000 		.space	1576
 2188      00000000 
 2188      00000000 
 2188      00000000 
 2188      00000000 
 2189              		.section	.rodata.sgp_cmd_get_featureset,"a"
 2190              		.align	2
 2191              		.set	.LANCHOR4,. + 0
 2194              	sgp_cmd_get_featureset:
 2195 0000 20       		.byte	32
 2196 0001 2F       		.byte	47
 2197              		.section	.rodata.sgp_cmd_get_serial_id,"a"
 2198              		.align	2
 2199              		.set	.LANCHOR3,. + 0
 2202              	sgp_cmd_get_serial_id:
 2203 0000 36       		.byte	54
 2204 0001 82       		.byte	-126
 2205              		.section	.rodata.sgp_cmd_measure_test,"a"
 2206              		.align	2
 2207              		.set	.LANCHOR2,. + 0
 2210              	sgp_cmd_measure_test:
 2211 0000 20       		.byte	32
 2212 0001 32       		.byte	50
 2213              		.section	.rodata.sgp_features_unknown,"a"
 2214              		.align	2
 2215              		.set	.LANCHOR1,. + 0
 2218              	sgp_features_unknown:
 2219 0000 00000000 		.space	16
 2219      00000000 
 2219      00000000 
 2219      00000000 
 2220              		.section	.rodata.sgp_get_driver_version.str1.4,"aMS",%progbits,1
 2221              		.align	2
 2222              	.LC0:
 2223 0000 322E322E 		.ascii	"2.2.2\000"
 2223      3200
 2224              		.text
 2225              	.Letext0:
 2226              		.file 2 "c:\\program files (x86)\\gnu tools arm embedded\\8 2019-q3-update\\arm-none-eabi\\include
 2227              		.file 3 "c:\\program files (x86)\\gnu tools arm embedded\\8 2019-q3-update\\arm-none-eabi\\include
 2228              		.file 4 "../../core/ST/CMSIS/Include/core_cm4.h"
 2229              		.file 5 "../../core/ST/CMSIS/Device/ST/STM32L4xx/Include/system_stm32l4xx.h"
 2230              		.file 6 "../../core/ST/CMSIS/Device/ST/STM32L4xx/Include/stm32l496xx.h"
 2231              		.file 7 "../../core/ST/STM32L4xx_HAL_Driver/Inc/stm32l4xx_hal_def.h"
 2232              		.file 8 "../../core/ST/STM32L4xx_HAL_Driver/Inc/stm32l4xx_hal_dma.h"
 2233              		.file 9 "../../core/ST/STM32L4xx_HAL_Driver/Inc/stm32l4xx_hal_i2c.h"
 2234              		.file 10 "../../core/ST/STM32L4xx_HAL_Driver/Inc/stm32l4xx_hal.h"
 2235              		.file 11 "../../core/platform/octa/inc/i2c.h"
 2236              		.file 12 "../../applications/SPG30-sensor-example/inc/sensirion_configuration.h"
 2237              		.file 13 "../../applications/SPG30-sensor-example/inc/sgp_featureset.h"
ARM GAS  C:\Users\RUBENJ~1\AppData\Local\Temp\ccZJq1Pt.s 			page 58


 2238              		.file 14 "../../applications/SPG30-sensor-example/inc/sensirion_common.h"
ARM GAS  C:\Users\RUBENJ~1\AppData\Local\Temp\ccZJq1Pt.s 			page 59

