ARM GAS  C:\Users\RUBENJ~1\AppData\Local\Temp\ccdgQ5DM.s 			page 1


   1              		.cpu cortex-m4
   2              		.eabi_attribute 27, 1
   3              		.eabi_attribute 28, 1
   4              		.eabi_attribute 20, 1
   5              		.eabi_attribute 21, 1
   6              		.eabi_attribute 23, 3
   7              		.eabi_attribute 24, 1
   8              		.eabi_attribute 25, 1
   9              		.eabi_attribute 26, 1
  10              		.eabi_attribute 30, 1
  11              		.eabi_attribute 34, 1
  12              		.eabi_attribute 18, 4
  13              		.file	"SPG30.c"
  14              		.text
  15              	.Ltext0:
  16              		.cfi_sections	.debug_frame
  17              		.section	.text.SPG30_Initialize,"ax",%progbits
  18              		.align	1
  19              		.global	SPG30_Initialize
  20              		.arch armv7e-m
  21              		.syntax unified
  22              		.thumb
  23              		.thumb_func
  24              		.fpu fpv4-sp-d16
  26              	SPG30_Initialize:
  27              	.LFB128:
  28              		.file 1 "../../shields/SPG30/src/SPG30.c"
   1:../../shields/SPG30/src/SPG30.c **** #include "platform.h"
   2:../../shields/SPG30/src/SPG30.c **** #include "SPG30.h"
   3:../../shields/SPG30/src/SPG30.c **** 
   4:../../shields/SPG30/src/SPG30.c **** struct OCTA_header SPG30_Header;
   5:../../shields/SPG30/src/SPG30.c **** //I2C_HandleTypeDef *hi2cLib; 
   6:../../shields/SPG30/src/SPG30.c **** //struct OCTA_header v;
   7:../../shields/SPG30/src/SPG30.c **** 
   8:../../shields/SPG30/src/SPG30.c **** uint8_t SPG30_Initialize(void) {
  29              		.loc 1 8 32 view -0
  30              		.cfi_startproc
  31              		@ args = 0, pretend = 0, frame = 48
  32              		@ frame_needed = 0, uses_anonymous_args = 0
  33 0000 70B5     		push	{r4, r5, r6, lr}
  34              	.LCFI0:
  35              		.cfi_def_cfa_offset 16
  36              		.cfi_offset 4, -16
  37              		.cfi_offset 5, -12
  38              		.cfi_offset 6, -8
  39              		.cfi_offset 14, -4
  40 0002 8CB0     		sub	sp, sp, #48
  41              	.LCFI1:
  42              		.cfi_def_cfa_offset 64
   9:../../shields/SPG30/src/SPG30.c ****     printf("****_____Initalize SPG30 now!!____****\r\n");
  43              		.loc 1 9 5 view .LVU1
  44 0004 1048     		ldr	r0, .L6
  45 0006 FFF7FEFF 		bl	puts
  46              	.LVL0:
  10:../../shields/SPG30/src/SPG30.c ****     #ifndef SPG30_CONNECTOR
  11:../../shields/SPG30/src/SPG30.c ****         printf("No SPG30_CONNECTOR provided in Makefile \r\n");
  12:../../shields/SPG30/src/SPG30.c ****         return 0;
ARM GAS  C:\Users\RUBENJ~1\AppData\Local\Temp\ccdgQ5DM.s 			page 2


  13:../../shields/SPG30/src/SPG30.c ****     #else
  14:../../shields/SPG30/src/SPG30.c ****         SPG30_Header = platform_getHeader((uint8_t)SPG30_CONNECTOR); //this connector is specified 
  47              		.loc 1 14 9 view .LVU2
  48              		.loc 1 14 24 is_stmt 0 view .LVU3
  49 000a 104E     		ldr	r6, .L6+4
  50 000c 0121     		movs	r1, #1
  51 000e 6846     		mov	r0, sp
  52 0010 FFF7FEFF 		bl	platform_getHeader
  53              	.LVL1:
  54 0014 3546     		mov	r5, r6
  55 0016 6C46     		mov	r4, sp
  56 0018 0FCC     		ldmia	r4!, {r0, r1, r2, r3}
  57 001a 0FC5     		stmia	r5!, {r0, r1, r2, r3}
  58 001c 0FCC     		ldmia	r4!, {r0, r1, r2, r3}
  59 001e 0FC5     		stmia	r5!, {r0, r1, r2, r3}
  60 0020 94E80700 		ldm	r4, {r0, r1, r2}
  61 0024 85E80700 		stm	r5, {r0, r1, r2}
  15:../../shields/SPG30/src/SPG30.c ****         if (!SPG30_Header.active) {
  62              		.loc 1 15 9 is_stmt 1 view .LVU4
  63              		.loc 1 15 26 is_stmt 0 view .LVU5
  64 0028 96F82840 		ldrb	r4, [r6, #40]	@ zero_extendqisi2
  65              		.loc 1 15 12 view .LVU6
  66 002c 3CB1     		cbz	r4, .L5
  16:../../shields/SPG30/src/SPG30.c ****             printf("Invalid SPG30_CONNECTOR provided in Makefile\r\n");
  17:../../shields/SPG30/src/SPG30.c ****             return 0; 
  18:../../shields/SPG30/src/SPG30.c ****         }
  19:../../shields/SPG30/src/SPG30.c ****         else 
  20:../../shields/SPG30/src/SPG30.c ****             printf("SPG30 sensor on P%d, initializing I2C\r\n", (uint8_t)SPG30_CONNECTOR);
  67              		.loc 1 20 13 is_stmt 1 view .LVU7
  68 002e 0121     		movs	r1, #1
  69 0030 0748     		ldr	r0, .L6+8
  70 0032 FFF7FEFF 		bl	printf
  71              	.LVL2:
  21:../../shields/SPG30/src/SPG30.c ****     #endif
  22:../../shields/SPG30/src/SPG30.c **** 
  23:../../shields/SPG30/src/SPG30.c ****    // platform_initialize_I2C(platform_getHeader(1)); //inits I2C
  24:../../shields/SPG30/src/SPG30.c **** 
  25:../../shields/SPG30/src/SPG30.c ****     // v = platform_getHeader(1); 
  26:../../shields/SPG30/src/SPG30.c ****     // i2c = v.i2cHandle;       //we don't know what this does but included for the moment 
  27:../../shields/SPG30/src/SPG30.c **** 
  28:../../shields/SPG30/src/SPG30.c ****     return 1;
  72              		.loc 1 28 5 view .LVU8
  73              		.loc 1 28 12 is_stmt 0 view .LVU9
  74 0036 0124     		movs	r4, #1
  75              	.L3:
  29:../../shields/SPG30/src/SPG30.c **** 
  30:../../shields/SPG30/src/SPG30.c **** }
  76              		.loc 1 30 1 view .LVU10
  77 0038 2046     		mov	r0, r4
  78 003a 0CB0     		add	sp, sp, #48
  79              	.LCFI2:
  80              		.cfi_remember_state
  81              		.cfi_def_cfa_offset 16
  82              		@ sp needed
  83 003c 70BD     		pop	{r4, r5, r6, pc}
  84              	.L5:
  85              	.LCFI3:
ARM GAS  C:\Users\RUBENJ~1\AppData\Local\Temp\ccdgQ5DM.s 			page 3


  86              		.cfi_restore_state
  16:../../shields/SPG30/src/SPG30.c ****             return 0; 
  87              		.loc 1 16 13 is_stmt 1 view .LVU11
  88 003e 0548     		ldr	r0, .L6+12
  89 0040 FFF7FEFF 		bl	puts
  90              	.LVL3:
  17:../../shields/SPG30/src/SPG30.c ****         }
  91              		.loc 1 17 13 view .LVU12
  17:../../shields/SPG30/src/SPG30.c ****         }
  92              		.loc 1 17 20 is_stmt 0 view .LVU13
  93 0044 F8E7     		b	.L3
  94              	.L7:
  95 0046 00BF     		.align	2
  96              	.L6:
  97 0048 00000000 		.word	.LC0
  98 004c 00000000 		.word	SPG30_Header
  99 0050 58000000 		.word	.LC2
 100 0054 28000000 		.word	.LC1
 101              		.cfi_endproc
 102              	.LFE128:
 104              		.comm	SPG30_Header,44,4
 105              		.comm	P3_header,44,4
 106              		.comm	P2_header,44,4
 107              		.comm	P1_header,44,4
 108              		.comm	FLASH_SPI,100,4
 109              		.comm	P3_SPI,100,4
 110              		.comm	P2_SPI,100,4
 111              		.comm	P1_SPI,100,4
 112              		.comm	P3_I2C,76,4
 113              		.comm	P2_I2C,76,4
 114              		.comm	P1_I2C,76,4
 115              		.comm	common_I2C,76,4
 116              		.comm	P3_UART,120,4
 117              		.comm	P2_UART,120,4
 118              		.comm	P1_UART,120,4
 119              		.comm	BLE_UART,120,4
 120              		.comm	USB_UART,120,4
 121              		.comm	hiwdg,16,4
 122              		.comm	P3_DIO6,8,4
 123              		.comm	P3_DIO5,8,4
 124              		.comm	P3_DIO4,8,4
 125              		.comm	P3_DIO3,8,4
 126              		.comm	P3_DIO2,8,4
 127              		.comm	P3_DIO1,8,4
 128              		.comm	P2_DIO6,8,4
 129              		.comm	P2_DIO5,8,4
 130              		.comm	P2_DIO4,8,4
 131              		.comm	P2_DIO3,8,4
 132              		.comm	P2_DIO2,8,4
 133              		.comm	P2_DIO1,8,4
 134              		.comm	P1_DIO6,8,4
 135              		.comm	P1_DIO5,8,4
 136              		.comm	P1_DIO4,8,4
 137              		.comm	P1_DIO3,8,4
 138              		.comm	P1_DIO2,8,4
 139              		.comm	P1_DIO1,8,4
 140              		.section	.rodata.SPG30_Initialize.str1.4,"aMS",%progbits,1
ARM GAS  C:\Users\RUBENJ~1\AppData\Local\Temp\ccdgQ5DM.s 			page 4


 141              		.align	2
 142              	.LC0:
 143 0000 2A2A2A2A 		.ascii	"****_____Initalize SPG30 now!!____****\015\000"
 143      5F5F5F5F 
 143      5F496E69 
 143      74616C69 
 143      7A652053 
 144              	.LC1:
 145 0028 496E7661 		.ascii	"Invalid SPG30_CONNECTOR provided in Makefile\015\000"
 145      6C696420 
 145      53504733 
 145      305F434F 
 145      4E4E4543 
 146 0056 0000     		.space	2
 147              	.LC2:
 148 0058 53504733 		.ascii	"SPG30 sensor on P%d, initializing I2C\015\012\000"
 148      30207365 
 148      6E736F72 
 148      206F6E20 
 148      5025642C 
 149              		.text
 150              	.Letext0:
 151              		.file 2 "c:\\program files (x86)\\gnu tools arm embedded\\8 2019-q3-update\\arm-none-eabi\\include
 152              		.file 3 "c:\\program files (x86)\\gnu tools arm embedded\\8 2019-q3-update\\arm-none-eabi\\include
 153              		.file 4 "../../core/ST/CMSIS/Include/core_cm4.h"
 154              		.file 5 "../../core/ST/CMSIS/Device/ST/STM32L4xx/Include/system_stm32l4xx.h"
 155              		.file 6 "../../core/ST/CMSIS/Device/ST/STM32L4xx/Include/stm32l496xx.h"
 156              		.file 7 "../../core/ST/STM32L4xx_HAL_Driver/Inc/stm32l4xx_hal_def.h"
 157              		.file 8 "../../core/ST/STM32L4xx_HAL_Driver/Inc/stm32l4xx_hal_dma.h"
 158              		.file 9 "../../core/ST/STM32L4xx_HAL_Driver/Inc/stm32l4xx_hal_i2c.h"
 159              		.file 10 "../../core/ST/STM32L4xx_HAL_Driver/Inc/stm32l4xx_hal_iwdg.h"
 160              		.file 11 "../../core/ST/STM32L4xx_HAL_Driver/Inc/stm32l4xx_hal_spi.h"
 161              		.file 12 "../../core/ST/STM32L4xx_HAL_Driver/Inc/stm32l4xx_hal_uart.h"
 162              		.file 13 "../../core/ST/STM32L4xx_HAL_Driver/Inc/stm32l4xx_hal.h"
 163              		.file 14 "../../core/platform/octa/inc/gpio.h"
 164              		.file 15 "../../core/platform/octa/inc/iwdg.h"
 165              		.file 16 "../../core/platform/octa/inc/uart.h"
 166              		.file 17 "../../core/platform/octa/inc/i2c.h"
 167              		.file 18 "../../core/platform/octa/inc/spi.h"
 168              		.file 19 "../../core/platform/octa/inc/octa.h"
 169              		.file 20 "<built-in>"
ARM GAS  C:\Users\RUBENJ~1\AppData\Local\Temp\ccdgQ5DM.s 			page 5

