ARM GAS  /tmp/ccKXHpiW.s 			page 1


   1              		.cpu cortex-m4
   2              		.eabi_attribute 27, 1
   3              		.eabi_attribute 28, 1
   4              		.eabi_attribute 20, 1
   5              		.eabi_attribute 21, 1
   6              		.eabi_attribute 23, 3
   7              		.eabi_attribute 24, 1
   8              		.eabi_attribute 25, 1
   9              		.eabi_attribute 26, 1
  10              		.eabi_attribute 30, 1
  11              		.eabi_attribute 34, 1
  12              		.eabi_attribute 18, 4
  13              		.file	"murata.c"
  14              		.text
  15              	.Ltext0:
  16              		.cfi_sections	.debug_frame
  17              		.section	.text.on_modem_command_completed_callback,"ax",%progbits
  18              		.align	1
  19              		.global	on_modem_command_completed_callback
  20              		.syntax unified
  21              		.thumb
  22              		.thumb_func
  23              		.fpu fpv4-sp-d16
  25              	on_modem_command_completed_callback:
  26              	.LFB129:
  27              		.file 1 "../../shields/Murata/src/murata.c"
   1:../../shields/Murata/src/murata.c **** #include "platform.h"
   2:../../shields/Murata/src/murata.c **** #include "murata.h"
   3:../../shields/Murata/src/murata.c **** 
   4:../../shields/Murata/src/murata.c **** uint8_t murata_notification_sent = 0;
   5:../../shields/Murata/src/murata.c **** struct OCTA_header murataHeader;
   6:../../shields/Murata/src/murata.c **** 
   7:../../shields/Murata/src/murata.c **** session_config_t session_config =
   8:../../shields/Murata/src/murata.c ****     {
   9:../../shields/Murata/src/murata.c ****         .interface_type = LORAWAN_OTAA,
  10:../../shields/Murata/src/murata.c ****         .lorawan_session_config_otaa = {
  11:../../shields/Murata/src/murata.c ****             .devEUI = { 0x00, 0xF6, 0x28, 0x26, 0x79, 0x89, 0xF7, 0xAF },
  12:../../shields/Murata/src/murata.c ****             .appEUI = { 0x70, 0xB3, 0xD5, 0x7E, 0xD0, 0x02, 0x2F, 0xB6 },
  13:../../shields/Murata/src/murata.c ****             .appKey = { 0x3B, 0x1A, 0x09, 0x04, 0x4D, 0x65, 0xD4, 0xE3, 0x23, 0x03, 0x3D, 0x12, 0xF
  14:../../shields/Murata/src/murata.c ****             .request_ack = false,
  15:../../shields/Murata/src/murata.c ****             .application_port = 1}};
  16:../../shields/Murata/src/murata.c **** 
  17:../../shields/Murata/src/murata.c **** /* Init murata lorawan modem */
  18:../../shields/Murata/src/murata.c **** modem_callbacks_t modem_callbacks = {
  19:../../shields/Murata/src/murata.c ****     .command_completed_callback = &on_modem_command_completed_callback,
  20:../../shields/Murata/src/murata.c ****     .return_file_data_callback = &on_modem_return_file_data_callback,
  21:../../shields/Murata/src/murata.c ****     .write_file_data_callback = &on_modem_write_file_data_callback,
  22:../../shields/Murata/src/murata.c ****     .modem_rebooted_callback = &on_modem_reboot_callback,
  23:../../shields/Murata/src/murata.c **** };
  24:../../shields/Murata/src/murata.c **** 
  25:../../shields/Murata/src/murata.c **** void on_modem_command_completed_callback(bool with_error, uint8_t tag_id)
  26:../../shields/Murata/src/murata.c **** {
  28              		.loc 1 26 0
  29              		.cfi_startproc
  30              		@ args = 0, pretend = 0, frame = 0
  31              		@ frame_needed = 0, uses_anonymous_args = 0
  32              	.LVL0:
ARM GAS  /tmp/ccKXHpiW.s 			page 2


  33 0000 08B5     		push	{r3, lr}
  34              	.LCFI0:
  35              		.cfi_def_cfa_offset 8
  36              		.cfi_offset 3, -8
  37              		.cfi_offset 14, -4
  27:../../shields/Murata/src/murata.c ****     murata_notification_sent = 0;
  38              		.loc 1 27 0
  39 0002 0022     		movs	r2, #0
  40 0004 034B     		ldr	r3, .L3
  41 0006 1A70     		strb	r2, [r3]
  28:../../shields/Murata/src/murata.c ****     printf("LoRaWAN modem command with tag %i completed (success = %i)\r\n", tag_id, !with_error);
  42              		.loc 1 28 0
  43 0008 80F00102 		eor	r2, r0, #1
  44 000c 0248     		ldr	r0, .L3+4
  45              	.LVL1:
  46 000e FFF7FEFF 		bl	printf
  47              	.LVL2:
  48 0012 08BD     		pop	{r3, pc}
  49              	.L4:
  50              		.align	2
  51              	.L3:
  52 0014 00000000 		.word	.LANCHOR0
  53 0018 00000000 		.word	.LC0
  54              		.cfi_endproc
  55              	.LFE129:
  57              		.section	.text.on_modem_return_file_data_callback,"ax",%progbits
  58              		.align	1
  59              		.global	on_modem_return_file_data_callback
  60              		.syntax unified
  61              		.thumb
  62              		.thumb_func
  63              		.fpu fpv4-sp-d16
  65              	on_modem_return_file_data_callback:
  66              	.LFB130:
  29:../../shields/Murata/src/murata.c **** }
  30:../../shields/Murata/src/murata.c **** 
  31:../../shields/Murata/src/murata.c **** void on_modem_return_file_data_callback(uint8_t file_id, uint32_t offset, uint32_t size, uint8_t *o
  32:../../shields/Murata/src/murata.c **** {
  67              		.loc 1 32 0
  68              		.cfi_startproc
  69              		@ args = 0, pretend = 0, frame = 0
  70              		@ frame_needed = 0, uses_anonymous_args = 0
  71              	.LVL3:
  72 0000 30B5     		push	{r4, r5, lr}
  73              	.LCFI1:
  74              		.cfi_def_cfa_offset 12
  75              		.cfi_offset 4, -12
  76              		.cfi_offset 5, -8
  77              		.cfi_offset 14, -4
  78 0002 83B0     		sub	sp, sp, #12
  79              	.LCFI2:
  80              		.cfi_def_cfa_offset 24
  33:../../shields/Murata/src/murata.c ****     murata_notification_sent = 0;
  81              		.loc 1 33 0
  82 0004 0025     		movs	r5, #0
  83 0006 054C     		ldr	r4, .L7
  84 0008 2570     		strb	r5, [r4]
ARM GAS  /tmp/ccKXHpiW.s 			page 3


  34:../../shields/Murata/src/murata.c ****     printf("LoRaWAN modem return file data file %i offset %li size %li buffer %p\r\n", file_id, off
  85              		.loc 1 34 0
  86 000a 0093     		str	r3, [sp]
  87 000c 1346     		mov	r3, r2
  88              	.LVL4:
  89 000e 0A46     		mov	r2, r1
  90              	.LVL5:
  91 0010 0146     		mov	r1, r0
  92              	.LVL6:
  93 0012 0348     		ldr	r0, .L7+4
  94              	.LVL7:
  95 0014 FFF7FEFF 		bl	printf
  96              	.LVL8:
  35:../../shields/Murata/src/murata.c **** }
  97              		.loc 1 35 0
  98 0018 03B0     		add	sp, sp, #12
  99              	.LCFI3:
 100              		.cfi_def_cfa_offset 12
 101              		@ sp needed
 102 001a 30BD     		pop	{r4, r5, pc}
 103              	.L8:
 104              		.align	2
 105              	.L7:
 106 001c 00000000 		.word	.LANCHOR0
 107 0020 00000000 		.word	.LC1
 108              		.cfi_endproc
 109              	.LFE130:
 111              		.section	.text.on_modem_write_file_data_callback,"ax",%progbits
 112              		.align	1
 113              		.global	on_modem_write_file_data_callback
 114              		.syntax unified
 115              		.thumb
 116              		.thumb_func
 117              		.fpu fpv4-sp-d16
 119              	on_modem_write_file_data_callback:
 120              	.LFB131:
  36:../../shields/Murata/src/murata.c **** 
  37:../../shields/Murata/src/murata.c **** void on_modem_write_file_data_callback(uint8_t file_id, uint32_t offset, uint32_t size, uint8_t *ou
  38:../../shields/Murata/src/murata.c **** {
 121              		.loc 1 38 0
 122              		.cfi_startproc
 123              		@ args = 0, pretend = 0, frame = 0
 124              		@ frame_needed = 0, uses_anonymous_args = 0
 125              	.LVL9:
 126 0000 30B5     		push	{r4, r5, lr}
 127              	.LCFI4:
 128              		.cfi_def_cfa_offset 12
 129              		.cfi_offset 4, -12
 130              		.cfi_offset 5, -8
 131              		.cfi_offset 14, -4
 132 0002 83B0     		sub	sp, sp, #12
 133              	.LCFI5:
 134              		.cfi_def_cfa_offset 24
  39:../../shields/Murata/src/murata.c ****     murata_notification_sent = 0;
 135              		.loc 1 39 0
 136 0004 0025     		movs	r5, #0
 137 0006 054C     		ldr	r4, .L11
ARM GAS  /tmp/ccKXHpiW.s 			page 4


 138 0008 2570     		strb	r5, [r4]
  40:../../shields/Murata/src/murata.c ****     printf("LoRaWAN modem write file data file %i offset %li size %li buffer %p\r\n", file_id, offs
 139              		.loc 1 40 0
 140 000a 0093     		str	r3, [sp]
 141 000c 1346     		mov	r3, r2
 142              	.LVL10:
 143 000e 0A46     		mov	r2, r1
 144              	.LVL11:
 145 0010 0146     		mov	r1, r0
 146              	.LVL12:
 147 0012 0348     		ldr	r0, .L11+4
 148              	.LVL13:
 149 0014 FFF7FEFF 		bl	printf
 150              	.LVL14:
  41:../../shields/Murata/src/murata.c **** }
 151              		.loc 1 41 0
 152 0018 03B0     		add	sp, sp, #12
 153              	.LCFI6:
 154              		.cfi_def_cfa_offset 12
 155              		@ sp needed
 156 001a 30BD     		pop	{r4, r5, pc}
 157              	.L12:
 158              		.align	2
 159              	.L11:
 160 001c 00000000 		.word	.LANCHOR0
 161 0020 00000000 		.word	.LC2
 162              		.cfi_endproc
 163              	.LFE131:
 165              		.section	.text.on_modem_reboot_callback,"ax",%progbits
 166              		.align	1
 167              		.global	on_modem_reboot_callback
 168              		.syntax unified
 169              		.thumb
 170              		.thumb_func
 171              		.fpu fpv4-sp-d16
 173              	on_modem_reboot_callback:
 174              	.LFB132:
  42:../../shields/Murata/src/murata.c **** 
  43:../../shields/Murata/src/murata.c **** void on_modem_reboot_callback(void)
  44:../../shields/Murata/src/murata.c **** {
 175              		.loc 1 44 0
 176              		.cfi_startproc
 177              		@ args = 0, pretend = 0, frame = 0
 178              		@ frame_needed = 0, uses_anonymous_args = 0
 179 0000 08B5     		push	{r3, lr}
 180              	.LCFI7:
 181              		.cfi_def_cfa_offset 8
 182              		.cfi_offset 3, -8
 183              		.cfi_offset 14, -4
  45:../../shields/Murata/src/murata.c ****     murata_notification_sent = 0;
 184              		.loc 1 45 0
 185 0002 0022     		movs	r2, #0
 186 0004 034B     		ldr	r3, .L15
 187 0006 1A70     		strb	r2, [r3]
  46:../../shields/Murata/src/murata.c ****     printf("LoRaWAN murata modem has rebooted \r\n");
 188              		.loc 1 46 0
 189 0008 0348     		ldr	r0, .L15+4
ARM GAS  /tmp/ccKXHpiW.s 			page 5


 190 000a FFF7FEFF 		bl	puts
 191              	.LVL15:
  47:../../shields/Murata/src/murata.c ****     modem_reinit();
 192              		.loc 1 47 0
 193 000e FFF7FEFF 		bl	modem_reinit
 194              	.LVL16:
 195 0012 08BD     		pop	{r3, pc}
 196              	.L16:
 197              		.align	2
 198              	.L15:
 199 0014 00000000 		.word	.LANCHOR0
 200 0018 00000000 		.word	.LC3
 201              		.cfi_endproc
 202              	.LFE132:
 204              		.section	.text.Murata_Initialize,"ax",%progbits
 205              		.align	1
 206              		.global	Murata_Initialize
 207              		.syntax unified
 208              		.thumb
 209              		.thumb_func
 210              		.fpu fpv4-sp-d16
 212              	Murata_Initialize:
 213              	.LFB133:
  48:../../shields/Murata/src/murata.c **** }
  49:../../shields/Murata/src/murata.c **** 
  50:../../shields/Murata/src/murata.c **** uint8_t Murata_Initialize(uint64_t octa_UID)
  51:../../shields/Murata/src/murata.c **** {    
 214              		.loc 1 51 0
 215              		.cfi_startproc
 216              		@ args = 0, pretend = 0, frame = 48
 217              		@ frame_needed = 0, uses_anonymous_args = 0
 218              	.LVL17:
 219 0000 70B5     		push	{r4, r5, r6, lr}
 220              	.LCFI8:
 221              		.cfi_def_cfa_offset 16
 222              		.cfi_offset 4, -16
 223              		.cfi_offset 5, -12
 224              		.cfi_offset 6, -8
 225              		.cfi_offset 14, -4
 226 0002 94B0     		sub	sp, sp, #80
 227              	.LCFI9:
 228              		.cfi_def_cfa_offset 96
  52:../../shields/Murata/src/murata.c ****     printf("***Initializing LoRaWAN modem driver***\r\n");
 229              		.loc 1 52 0
 230 0004 2248     		ldr	r0, .L22
 231              	.LVL18:
 232 0006 FFF7FEFF 		bl	puts
 233              	.LVL19:
  53:../../shields/Murata/src/murata.c **** 
  54:../../shields/Murata/src/murata.c ****     #ifndef MURATA_CONNECTOR
  55:../../shields/Murata/src/murata.c ****         printf("No MURATA_CONNECTOR provided in Makefile\r\n");
  56:../../shields/Murata/src/murata.c ****         return 1;
  57:../../shields/Murata/src/murata.c ****     #else
  58:../../shields/Murata/src/murata.c ****         murataHeader = platform_getHeader((uint8_t)MURATA_CONNECTOR);
 234              		.loc 1 58 0
 235 000a 224E     		ldr	r6, .L22+4
 236 000c 0321     		movs	r1, #3
ARM GAS  /tmp/ccKXHpiW.s 			page 6


 237 000e 08A8     		add	r0, sp, #32
 238 0010 FFF7FEFF 		bl	platform_getHeader
 239              	.LVL20:
 240 0014 3546     		mov	r5, r6
 241 0016 08AC     		add	r4, sp, #32
 242 0018 0FCC     		ldmia	r4!, {r0, r1, r2, r3}
 243 001a 0FC5     		stmia	r5!, {r0, r1, r2, r3}
 244 001c 0FCC     		ldmia	r4!, {r0, r1, r2, r3}
 245 001e 0FC5     		stmia	r5!, {r0, r1, r2, r3}
 246 0020 94E80700 		ldm	r4, {r0, r1, r2}
 247 0024 85E80700 		stm	r5, {r0, r1, r2}
  59:../../shields/Murata/src/murata.c ****         if(!murataHeader.active)
 248              		.loc 1 59 0
 249 0028 96F82840 		ldrb	r4, [r6, #40]	@ zero_extendqisi2
 250 002c 5CB3     		cbz	r4, .L21
  60:../../shields/Murata/src/murata.c ****         {
  61:../../shields/Murata/src/murata.c ****             printf("Invalid MURATA_CONNECTOR provided in Makefile\r\n");
  62:../../shields/Murata/src/murata.c ****             return 0;  
  63:../../shields/Murata/src/murata.c ****         }
  64:../../shields/Murata/src/murata.c ****         else
  65:../../shields/Murata/src/murata.c ****             printf("Murata on P%d, initializing UART\r\n", (uint8_t)MURATA_CONNECTOR);         
 251              		.loc 1 65 0
 252 002e 0321     		movs	r1, #3
 253 0030 1948     		ldr	r0, .L22+8
 254 0032 FFF7FEFF 		bl	printf
 255              	.LVL21:
  66:../../shields/Murata/src/murata.c ****     #endif
  67:../../shields/Murata/src/murata.c ****     printf("Using LoRaWAN keys of %s application \r\n", LORAWAN_APP_NAME);
 256              		.loc 1 67 0
 257 0036 1949     		ldr	r1, .L22+12
 258 0038 1948     		ldr	r0, .L22+16
 259 003a FFF7FEFF 		bl	printf
 260              	.LVL22:
  68:../../shields/Murata/src/murata.c **** 
  69:../../shields/Murata/src/murata.c ****     //convert_uint64_array((uint8_t *)&octa_UID);
  70:../../shields/Murata/src/murata.c ****     //memcpy(session_config.lorawan_session_config_otaa.devEUI, &octa_UID, sizeof(octa_UID));
  71:../../shields/Murata/src/murata.c **** 
  72:../../shields/Murata/src/murata.c ****     // Initialize UART peripheral with driver baudrate
  73:../../shields/Murata/src/murata.c ****     platform_initialize_UART(murataHeader, MURATA_BAUDRATE);
 261              		.loc 1 73 0
 262 003e 154E     		ldr	r6, .L22+4
 263 0040 4FF4E133 		mov	r3, #115200
 264 0044 0793     		str	r3, [sp, #28]
 265 0046 6C46     		mov	r4, sp
 266 0048 06F11005 		add	r5, r6, #16
 267 004c 0FCD     		ldmia	r5!, {r0, r1, r2, r3}
 268 004e 0FC4     		stmia	r4!, {r0, r1, r2, r3}
 269 0050 95E80700 		ldm	r5, {r0, r1, r2}
 270 0054 84E80700 		stm	r4, {r0, r1, r2}
 271 0058 96E80F00 		ldm	r6, {r0, r1, r2, r3}
 272 005c FFF7FEFF 		bl	platform_initialize_UART
 273              	.LVL23:
  74:../../shields/Murata/src/murata.c **** 
  75:../../shields/Murata/src/murata.c ****     murata_wakeup_pin = murataHeader.DIO1;
 274              		.loc 1 75 0
 275 0060 3269     		ldr	r2, [r6, #16]
 276 0062 104B     		ldr	r3, .L22+20
ARM GAS  /tmp/ccKXHpiW.s 			page 7


 277 0064 1A60     		str	r2, [r3]
  76:../../shields/Murata/src/murata.c ****     murata_reset_pin = murataHeader.DIO6;
 278              		.loc 1 76 0
 279 0066 726A     		ldr	r2, [r6, #36]
 280 0068 0F4B     		ldr	r3, .L22+24
 281 006a 1A60     		str	r2, [r3]
  77:../../shields/Murata/src/murata.c ****     modem_init(murataHeader.uartHandle);
 282              		.loc 1 77 0
 283 006c 7068     		ldr	r0, [r6, #4]
 284 006e FFF7FEFF 		bl	modem_init
 285              	.LVL24:
  78:../../shields/Murata/src/murata.c ****     modem_cb_init(&modem_callbacks);
 286              		.loc 1 78 0
 287 0072 0E48     		ldr	r0, .L22+28
 288 0074 FFF7FEFF 		bl	modem_cb_init
 289              	.LVL25:
  79:../../shields/Murata/src/murata.c **** 
  80:../../shields/Murata/src/murata.c ****     printf("Murata module init OK \r\n\r\n");
 290              		.loc 1 80 0
 291 0078 0D48     		ldr	r0, .L22+32
 292 007a FFF7FEFF 		bl	puts
 293              	.LVL26:
  81:../../shields/Murata/src/murata.c ****     return 1;
 294              		.loc 1 81 0
 295 007e 0124     		movs	r4, #1
 296              	.L19:
  82:../../shields/Murata/src/murata.c **** }
 297              		.loc 1 82 0
 298 0080 2046     		mov	r0, r4
 299 0082 14B0     		add	sp, sp, #80
 300              	.LCFI10:
 301              		.cfi_remember_state
 302              		.cfi_def_cfa_offset 16
 303              		@ sp needed
 304 0084 70BD     		pop	{r4, r5, r6, pc}
 305              	.L21:
 306              	.LCFI11:
 307              		.cfi_restore_state
  61:../../shields/Murata/src/murata.c ****             return 0;  
 308              		.loc 1 61 0
 309 0086 0B48     		ldr	r0, .L22+36
 310 0088 FFF7FEFF 		bl	puts
 311              	.LVL27:
  62:../../shields/Murata/src/murata.c ****         }
 312              		.loc 1 62 0
 313 008c F8E7     		b	.L19
 314              	.L23:
 315 008e 00BF     		.align	2
 316              	.L22:
 317 0090 00000000 		.word	.LC4
 318 0094 00000000 		.word	murataHeader
 319 0098 5C000000 		.word	.LC6
 320 009c 80000000 		.word	.LC7
 321 00a0 98000000 		.word	.LC8
 322 00a4 00000000 		.word	murata_wakeup_pin
 323 00a8 00000000 		.word	murata_reset_pin
 324 00ac 00000000 		.word	.LANCHOR1
ARM GAS  /tmp/ccKXHpiW.s 			page 8


 325 00b0 C0000000 		.word	.LC9
 326 00b4 2C000000 		.word	.LC5
 327              		.cfi_endproc
 328              	.LFE133:
 330              		.section	.text.modem_wakeup,"ax",%progbits
 331              		.align	1
 332              		.global	modem_wakeup
 333              		.syntax unified
 334              		.thumb
 335              		.thumb_func
 336              		.fpu fpv4-sp-d16
 338              	modem_wakeup:
 339              	.LFB134:
  83:../../shields/Murata/src/murata.c **** 
  84:../../shields/Murata/src/murata.c **** void modem_wakeup(void)
  85:../../shields/Murata/src/murata.c **** {
 340              		.loc 1 85 0
 341              		.cfi_startproc
 342              		@ args = 0, pretend = 0, frame = 0
 343              		@ frame_needed = 0, uses_anonymous_args = 0
 344 0000 08B5     		push	{r3, lr}
 345              	.LCFI12:
 346              		.cfi_def_cfa_offset 8
 347              		.cfi_offset 3, -8
 348              		.cfi_offset 14, -4
  86:../../shields/Murata/src/murata.c ****     HAL_GPIO_WritePin(murata_wakeup_pin->PORT, murata_wakeup_pin->PIN, GPIO_PIN_SET);
 349              		.loc 1 86 0
 350 0002 044B     		ldr	r3, .L26
 351 0004 1B68     		ldr	r3, [r3]
 352 0006 0122     		movs	r2, #1
 353 0008 9988     		ldrh	r1, [r3, #4]
 354 000a 1868     		ldr	r0, [r3]
 355 000c FFF7FEFF 		bl	HAL_GPIO_WritePin
 356              	.LVL28:
 357 0010 08BD     		pop	{r3, pc}
 358              	.L27:
 359 0012 00BF     		.align	2
 360              	.L26:
 361 0014 00000000 		.word	murata_wakeup_pin
 362              		.cfi_endproc
 363              	.LFE134:
 365              		.section	.text.modem_release,"ax",%progbits
 366              		.align	1
 367              		.global	modem_release
 368              		.syntax unified
 369              		.thumb
 370              		.thumb_func
 371              		.fpu fpv4-sp-d16
 373              	modem_release:
 374              	.LFB135:
  87:../../shields/Murata/src/murata.c **** }
  88:../../shields/Murata/src/murata.c **** 
  89:../../shields/Murata/src/murata.c **** void modem_release(void)
  90:../../shields/Murata/src/murata.c **** {
 375              		.loc 1 90 0
 376              		.cfi_startproc
 377              		@ args = 0, pretend = 0, frame = 0
ARM GAS  /tmp/ccKXHpiW.s 			page 9


 378              		@ frame_needed = 0, uses_anonymous_args = 0
 379 0000 08B5     		push	{r3, lr}
 380              	.LCFI13:
 381              		.cfi_def_cfa_offset 8
 382              		.cfi_offset 3, -8
 383              		.cfi_offset 14, -4
  91:../../shields/Murata/src/murata.c ****     HAL_GPIO_WritePin(murata_wakeup_pin->PORT, murata_wakeup_pin->PIN, GPIO_PIN_SET);
 384              		.loc 1 91 0
 385 0002 044B     		ldr	r3, .L30
 386 0004 1B68     		ldr	r3, [r3]
 387 0006 0122     		movs	r2, #1
 388 0008 9988     		ldrh	r1, [r3, #4]
 389 000a 1868     		ldr	r0, [r3]
 390 000c FFF7FEFF 		bl	HAL_GPIO_WritePin
 391              	.LVL29:
 392 0010 08BD     		pop	{r3, pc}
 393              	.L31:
 394 0012 00BF     		.align	2
 395              	.L30:
 396 0014 00000000 		.word	murata_wakeup_pin
 397              		.cfi_endproc
 398              	.LFE135:
 400              		.section	.text.Murata_toggleResetPin,"ax",%progbits
 401              		.align	1
 402              		.global	Murata_toggleResetPin
 403              		.syntax unified
 404              		.thumb
 405              		.thumb_func
 406              		.fpu fpv4-sp-d16
 408              	Murata_toggleResetPin:
 409              	.LFB136:
  92:../../shields/Murata/src/murata.c **** }
  93:../../shields/Murata/src/murata.c **** 
  94:../../shields/Murata/src/murata.c **** void Murata_toggleResetPin(void)
  95:../../shields/Murata/src/murata.c **** {
 410              		.loc 1 95 0
 411              		.cfi_startproc
 412              		@ args = 0, pretend = 0, frame = 0
 413              		@ frame_needed = 0, uses_anonymous_args = 0
 414 0000 10B5     		push	{r4, lr}
 415              	.LCFI14:
 416              		.cfi_def_cfa_offset 8
 417              		.cfi_offset 4, -8
 418              		.cfi_offset 14, -4
  96:../../shields/Murata/src/murata.c ****     HAL_GPIO_WritePin(murata_reset_pin->PORT, murata_reset_pin->PIN, GPIO_PIN_RESET);
 419              		.loc 1 96 0
 420 0002 0A4C     		ldr	r4, .L34
 421 0004 2368     		ldr	r3, [r4]
 422 0006 0022     		movs	r2, #0
 423 0008 9988     		ldrh	r1, [r3, #4]
 424 000a 1868     		ldr	r0, [r3]
 425 000c FFF7FEFF 		bl	HAL_GPIO_WritePin
 426              	.LVL30:
  97:../../shields/Murata/src/murata.c ****     HAL_Delay(50);
 427              		.loc 1 97 0
 428 0010 3220     		movs	r0, #50
 429 0012 FFF7FEFF 		bl	HAL_Delay
ARM GAS  /tmp/ccKXHpiW.s 			page 10


 430              	.LVL31:
  98:../../shields/Murata/src/murata.c ****     HAL_GPIO_WritePin(murata_reset_pin->PORT, murata_reset_pin->PIN, GPIO_PIN_SET);
 431              		.loc 1 98 0
 432 0016 2368     		ldr	r3, [r4]
 433 0018 0122     		movs	r2, #1
 434 001a 9988     		ldrh	r1, [r3, #4]
 435 001c 1868     		ldr	r0, [r3]
 436 001e FFF7FEFF 		bl	HAL_GPIO_WritePin
 437              	.LVL32:
  99:../../shields/Murata/src/murata.c ****     HAL_Delay(1000);
 438              		.loc 1 99 0
 439 0022 4FF47A70 		mov	r0, #1000
 440 0026 FFF7FEFF 		bl	HAL_Delay
 441              	.LVL33:
 442 002a 10BD     		pop	{r4, pc}
 443              	.L35:
 444              		.align	2
 445              	.L34:
 446 002c 00000000 		.word	murata_reset_pin
 447              		.cfi_endproc
 448              	.LFE136:
 450              		.section	.text.Murata_SetProcessingThread,"ax",%progbits
 451              		.align	1
 452              		.global	Murata_SetProcessingThread
 453              		.syntax unified
 454              		.thumb
 455              		.thumb_func
 456              		.fpu fpv4-sp-d16
 458              	Murata_SetProcessingThread:
 459              	.LFB137:
 100:../../shields/Murata/src/murata.c **** }
 101:../../shields/Murata/src/murata.c **** 
 102:../../shields/Murata/src/murata.c **** uint8_t Murata_SetProcessingThread(osThreadId aThreadId)
 103:../../shields/Murata/src/murata.c **** {
 460              		.loc 1 103 0
 461              		.cfi_startproc
 462              		@ args = 0, pretend = 0, frame = 0
 463              		@ frame_needed = 0, uses_anonymous_args = 0
 464              		@ link register save eliminated.
 465              	.LVL34:
 104:../../shields/Murata/src/murata.c ****     threadToNotify = aThreadId;
 466              		.loc 1 104 0
 467 0000 014B     		ldr	r3, .L37
 468 0002 1860     		str	r0, [r3]
 105:../../shields/Murata/src/murata.c ****     return 1;
 106:../../shields/Murata/src/murata.c **** }
 469              		.loc 1 106 0
 470 0004 0120     		movs	r0, #1
 471              	.LVL35:
 472 0006 7047     		bx	lr
 473              	.L38:
 474              		.align	2
 475              	.L37:
 476 0008 00000000 		.word	threadToNotify
 477              		.cfi_endproc
 478              	.LFE137:
 480              		.section	.text.Murata_LoRaWAN_Send,"ax",%progbits
ARM GAS  /tmp/ccKXHpiW.s 			page 11


 481              		.align	1
 482              		.global	Murata_LoRaWAN_Send
 483              		.syntax unified
 484              		.thumb
 485              		.thumb_func
 486              		.fpu fpv4-sp-d16
 488              	Murata_LoRaWAN_Send:
 489              	.LFB138:
 107:../../shields/Murata/src/murata.c **** 
 108:../../shields/Murata/src/murata.c **** uint8_t Murata_LoRaWAN_Send(uint8_t *buffer, uint8_t length)
 109:../../shields/Murata/src/murata.c **** {
 490              		.loc 1 109 0
 491              		.cfi_startproc
 492              		@ args = 0, pretend = 0, frame = 0
 493              		@ frame_needed = 0, uses_anonymous_args = 0
 494              	.LVL36:
 495 0000 30B5     		push	{r4, r5, lr}
 496              	.LCFI15:
 497              		.cfi_def_cfa_offset 12
 498              		.cfi_offset 4, -12
 499              		.cfi_offset 5, -8
 500              		.cfi_offset 14, -4
 501 0002 83B0     		sub	sp, sp, #12
 502              	.LCFI16:
 503              		.cfi_def_cfa_offset 24
 504 0004 0C46     		mov	r4, r1
 505              	.LVL37:
 110:../../shields/Murata/src/murata.c ****     uint8_t status = 0;
 111:../../shields/Murata/src/murata.c ****     status = modem_send_unsolicited_response(0x40, 0, length, (uint8_t *)buffer, &session_config);
 506              		.loc 1 111 0
 507 0006 084B     		ldr	r3, .L41
 508 0008 0093     		str	r3, [sp]
 509 000a 0346     		mov	r3, r0
 510 000c 0A46     		mov	r2, r1
 511 000e 0021     		movs	r1, #0
 512              	.LVL38:
 513 0010 4020     		movs	r0, #64
 514              	.LVL39:
 515 0012 FFF7FEFF 		bl	modem_send_unsolicited_response
 516              	.LVL40:
 517 0016 0546     		mov	r5, r0
 518              	.LVL41:
 112:../../shields/Murata/src/murata.c ****     printf("Sending LoRaWAN message with payload size %d\r\n", length);
 519              		.loc 1 112 0
 520 0018 2146     		mov	r1, r4
 521 001a 0448     		ldr	r0, .L41+4
 522 001c FFF7FEFF 		bl	printf
 523              	.LVL42:
 113:../../shields/Murata/src/murata.c ****     return status;
 114:../../shields/Murata/src/murata.c **** }
 524              		.loc 1 114 0
 525 0020 2846     		mov	r0, r5
 526 0022 03B0     		add	sp, sp, #12
 527              	.LCFI17:
 528              		.cfi_def_cfa_offset 12
 529              		@ sp needed
 530 0024 30BD     		pop	{r4, r5, pc}
ARM GAS  /tmp/ccKXHpiW.s 			page 12


 531              	.LVL43:
 532              	.L42:
 533 0026 00BF     		.align	2
 534              	.L41:
 535 0028 00000000 		.word	.LANCHOR2
 536 002c 00000000 		.word	.LC10
 537              		.cfi_endproc
 538              	.LFE138:
 540              		.section	.text.Murata_process_fifo,"ax",%progbits
 541              		.align	1
 542              		.global	Murata_process_fifo
 543              		.syntax unified
 544              		.thumb
 545              		.thumb_func
 546              		.fpu fpv4-sp-d16
 548              	Murata_process_fifo:
 549              	.LFB139:
 115:../../shields/Murata/src/murata.c **** void Murata_process_fifo(void)
 116:../../shields/Murata/src/murata.c **** {
 550              		.loc 1 116 0
 551              		.cfi_startproc
 552              		@ args = 0, pretend = 0, frame = 0
 553              		@ frame_needed = 0, uses_anonymous_args = 0
 554 0000 08B5     		push	{r3, lr}
 555              	.LCFI18:
 556              		.cfi_def_cfa_offset 8
 557              		.cfi_offset 3, -8
 558              		.cfi_offset 14, -4
 117:../../shields/Murata/src/murata.c ****     modem_process_fifo();
 559              		.loc 1 117 0
 560 0002 FFF7FEFF 		bl	modem_process_fifo
 561              	.LVL44:
 562 0006 08BD     		pop	{r3, pc}
 563              		.cfi_endproc
 564              	.LFE139:
 566              		.section	.text.Murata_rxCallback,"ax",%progbits
 567              		.align	1
 568              		.global	Murata_rxCallback
 569              		.syntax unified
 570              		.thumb
 571              		.thumb_func
 572              		.fpu fpv4-sp-d16
 574              	Murata_rxCallback:
 575              	.LFB140:
 118:../../shields/Murata/src/murata.c **** }
 119:../../shields/Murata/src/murata.c **** 
 120:../../shields/Murata/src/murata.c **** void Murata_rxCallback(void)
 121:../../shields/Murata/src/murata.c **** {
 576              		.loc 1 121 0
 577              		.cfi_startproc
 578              		@ args = 0, pretend = 0, frame = 0
 579              		@ frame_needed = 0, uses_anonymous_args = 0
 580 0000 08B5     		push	{r3, lr}
 581              	.LCFI19:
 582              		.cfi_def_cfa_offset 8
 583              		.cfi_offset 3, -8
 584              		.cfi_offset 14, -4
ARM GAS  /tmp/ccKXHpiW.s 			page 13


 122:../../shields/Murata/src/murata.c ****     modem_interface_uart_rx_cb();
 585              		.loc 1 122 0
 586 0002 FFF7FEFF 		bl	modem_interface_uart_rx_cb
 587              	.LVL45:
 123:../../shields/Murata/src/murata.c ****     if(!murata_notification_sent)
 588              		.loc 1 123 0
 589 0006 064B     		ldr	r3, .L49
 590 0008 1B78     		ldrb	r3, [r3]	@ zero_extendqisi2
 591 000a 03B1     		cbz	r3, .L48
 592              	.L45:
 593 000c 08BD     		pop	{r3, pc}
 594              	.L48:
 124:../../shields/Murata/src/murata.c ****     {
 125:../../shields/Murata/src/murata.c ****         //start rx processing thread
 126:../../shields/Murata/src/murata.c ****         RTOS_Send_Notification(threadToNotify);
 595              		.loc 1 126 0
 596 000e 054B     		ldr	r3, .L49+4
 597 0010 1868     		ldr	r0, [r3]
 598 0012 FFF7FEFF 		bl	RTOS_Send_Notification
 599              	.LVL46:
 127:../../shields/Murata/src/murata.c ****         murata_notification_sent = 1;
 600              		.loc 1 127 0
 601 0016 0122     		movs	r2, #1
 602 0018 014B     		ldr	r3, .L49
 603 001a 1A70     		strb	r2, [r3]
 128:../../shields/Murata/src/murata.c ****     }
 129:../../shields/Murata/src/murata.c **** }
 604              		.loc 1 129 0
 605 001c F6E7     		b	.L45
 606              	.L50:
 607 001e 00BF     		.align	2
 608              	.L49:
 609 0020 00000000 		.word	.LANCHOR0
 610 0024 00000000 		.word	threadToNotify
 611              		.cfi_endproc
 612              	.LFE140:
 614              		.global	modem_callbacks
 615              		.global	session_config
 616              		.comm	murataHeader,44,4
 617              		.global	murata_notification_sent
 618              		.comm	threadToNotify,4,4
 619              		.comm	murata_reset_pin,4,4
 620              		.comm	murata_wakeup_pin,4,4
 621              		.comm	P3_header,44,4
 622              		.comm	P2_header,44,4
 623              		.comm	P1_header,44,4
 624              		.comm	FLASH_SPI,100,4
 625              		.comm	P3_SPI,100,4
 626              		.comm	P2_SPI,100,4
 627              		.comm	P1_SPI,100,4
 628              		.comm	P3_I2C,76,4
 629              		.comm	P2_I2C,76,4
 630              		.comm	P1_I2C,76,4
 631              		.comm	common_I2C,76,4
 632              		.comm	P3_UART,120,4
 633              		.comm	P2_UART,120,4
 634              		.comm	P1_UART,120,4
ARM GAS  /tmp/ccKXHpiW.s 			page 14


 635              		.comm	BLE_UART,120,4
 636              		.comm	USB_UART,120,4
 637              		.comm	hiwdg,16,4
 638              		.comm	P3_DIO6,8,4
 639              		.comm	P3_DIO5,8,4
 640              		.comm	P3_DIO4,8,4
 641              		.comm	P3_DIO3,8,4
 642              		.comm	P3_DIO2,8,4
 643              		.comm	P3_DIO1,8,4
 644              		.comm	P2_DIO6,8,4
 645              		.comm	P2_DIO5,8,4
 646              		.comm	P2_DIO4,8,4
 647              		.comm	P2_DIO3,8,4
 648              		.comm	P2_DIO2,8,4
 649              		.comm	P2_DIO1,8,4
 650              		.comm	P1_DIO6,8,4
 651              		.comm	P1_DIO5,8,4
 652              		.comm	P1_DIO4,8,4
 653              		.comm	P1_DIO3,8,4
 654              		.comm	P1_DIO2,8,4
 655              		.comm	P1_DIO1,8,4
 656              		.section	.bss.murata_notification_sent,"aw",%nobits
 657              		.set	.LANCHOR0,. + 0
 660              	murata_notification_sent:
 661 0000 00       		.space	1
 662              		.section	.data.modem_callbacks,"aw",%progbits
 663              		.align	2
 664              		.set	.LANCHOR1,. + 0
 667              	modem_callbacks:
 668 0000 00000000 		.word	on_modem_command_completed_callback
 669 0004 00000000 		.space	4
 670 0008 00000000 		.word	on_modem_return_file_data_callback
 671 000c 00000000 		.word	on_modem_write_file_data_callback
 672 0010 00000000 		.word	on_modem_reboot_callback
 673              		.section	.data.session_config,"aw",%progbits
 674              		.align	2
 675              		.set	.LANCHOR2,. + 0
 678              	session_config:
 679 0000 01       		.byte	1
 680 0001 000000   		.space	3
 681 0004 00       		.byte	0
 682 0005 F6       		.byte	-10
 683 0006 28       		.byte	40
 684 0007 26       		.byte	38
 685 0008 79       		.byte	121
 686 0009 89       		.byte	-119
 687 000a F7       		.byte	-9
 688 000b AF       		.byte	-81
 689 000c 70       		.byte	112
 690 000d B3       		.byte	-77
 691 000e D5       		.byte	-43
 692 000f 7E       		.byte	126
 693 0010 D0       		.byte	-48
 694 0011 02       		.byte	2
 695 0012 2F       		.byte	47
 696 0013 B6       		.byte	-74
 697 0014 3B       		.byte	59
ARM GAS  /tmp/ccKXHpiW.s 			page 15


 698 0015 1A       		.byte	26
 699 0016 09       		.byte	9
 700 0017 04       		.byte	4
 701 0018 4D       		.byte	77
 702 0019 65       		.byte	101
 703 001a D4       		.byte	-44
 704 001b E3       		.byte	-29
 705 001c 23       		.byte	35
 706 001d 03       		.byte	3
 707 001e 3D       		.byte	61
 708 001f 12       		.byte	18
 709 0020 F0       		.byte	-16
 710 0021 1E       		.byte	30
 711 0022 BE       		.byte	-66
 712 0023 9C       		.byte	-100
 713 0024 00       		.byte	0
 714 0025 01       		.byte	1
 715 0026 00000000 		.space	10
 715      00000000 
 715      0000
 716              		.section	.rodata.Murata_Initialize.str1.4,"aMS",%progbits,1
 717              		.align	2
 718              	.LC4:
 719 0000 2A2A2A49 		.ascii	"***Initializing LoRaWAN modem driver***\015\000"
 719      6E697469 
 719      616C697A 
 719      696E6720 
 719      4C6F5261 
 720 0029 000000   		.space	3
 721              	.LC5:
 722 002c 496E7661 		.ascii	"Invalid MURATA_CONNECTOR provided in Makefile\015\000"
 722      6C696420 
 722      4D555241 
 722      54415F43 
 722      4F4E4E45 
 723 005b 00       		.space	1
 724              	.LC6:
 725 005c 4D757261 		.ascii	"Murata on P%d, initializing UART\015\012\000"
 725      7461206F 
 725      6E205025 
 725      642C2069 
 725      6E697469 
 726 007f 00       		.space	1
 727              	.LC7:
 728 0080 74686575 		.ascii	"theultimateapplication\000"
 728      6C74696D 
 728      61746561 
 728      70706C69 
 728      63617469 
 729 0097 00       		.space	1
 730              	.LC8:
 731 0098 5573696E 		.ascii	"Using LoRaWAN keys of %s application \015\012\000"
 731      67204C6F 
 731      52615741 
 731      4E206B65 
 731      7973206F 
 732              	.LC9:
ARM GAS  /tmp/ccKXHpiW.s 			page 16


 733 00c0 4D757261 		.ascii	"Murata module init OK \015\012\015\000"
 733      7461206D 
 733      6F64756C 
 733      6520696E 
 733      6974204F 
 734              		.section	.rodata.Murata_LoRaWAN_Send.str1.4,"aMS",%progbits,1
 735              		.align	2
 736              	.LC10:
 737 0000 53656E64 		.ascii	"Sending LoRaWAN message with payload size %d\015\012"
 737      696E6720 
 737      4C6F5261 
 737      57414E20 
 737      6D657373 
 738 002e 00       		.ascii	"\000"
 739              		.section	.rodata.on_modem_command_completed_callback.str1.4,"aMS",%progbits,1
 740              		.align	2
 741              	.LC0:
 742 0000 4C6F5261 		.ascii	"LoRaWAN modem command with tag %i completed (succes"
 742      57414E20 
 742      6D6F6465 
 742      6D20636F 
 742      6D6D616E 
 743 0033 73203D20 		.ascii	"s = %i)\015\012\000"
 743      2569290D 
 743      0A00
 744              		.section	.rodata.on_modem_reboot_callback.str1.4,"aMS",%progbits,1
 745              		.align	2
 746              	.LC3:
 747 0000 4C6F5261 		.ascii	"LoRaWAN murata modem has rebooted \015\000"
 747      57414E20 
 747      6D757261 
 747      7461206D 
 747      6F64656D 
 748              		.section	.rodata.on_modem_return_file_data_callback.str1.4,"aMS",%progbits,1
 749              		.align	2
 750              	.LC1:
 751 0000 4C6F5261 		.ascii	"LoRaWAN modem return file data file %i offset %li s"
 751      57414E20 
 751      6D6F6465 
 751      6D207265 
 751      7475726E 
 752 0033 697A6520 		.ascii	"ize %li buffer %p\015\012\000"
 752      256C6920 
 752      62756666 
 752      65722025 
 752      700D0A00 
 753              		.section	.rodata.on_modem_write_file_data_callback.str1.4,"aMS",%progbits,1
 754              		.align	2
 755              	.LC2:
 756 0000 4C6F5261 		.ascii	"LoRaWAN modem write file data file %i offset %li si"
 756      57414E20 
 756      6D6F6465 
 756      6D207772 
 756      69746520 
 757 0033 7A652025 		.ascii	"ze %li buffer %p\015\012\000"
 757      6C692062 
 757      75666665 
ARM GAS  /tmp/ccKXHpiW.s 			page 17


 757      72202570 
 757      0D0A00
 758              		.text
 759              	.Letext0:
 760              		.file 2 "/usr/include/newlib/machine/_default_types.h"
 761              		.file 3 "/usr/include/newlib/sys/_stdint.h"
 762              		.file 4 "../../core/ST/CMSIS/Include/core_cm4.h"
 763              		.file 5 "../../core/ST/CMSIS/Device/ST/STM32L4xx/Include/system_stm32l4xx.h"
 764              		.file 6 "../../core/ST/CMSIS/Device/ST/STM32L4xx/Include/stm32l496xx.h"
 765              		.file 7 "../../core/ST/STM32L4xx_HAL_Driver/Inc/stm32l4xx_hal_def.h"
 766              		.file 8 "../../core/ST/STM32L4xx_HAL_Driver/Inc/stm32l4xx_hal_gpio.h"
 767              		.file 9 "../../core/ST/STM32L4xx_HAL_Driver/Inc/stm32l4xx_hal_dma.h"
 768              		.file 10 "../../core/ST/STM32L4xx_HAL_Driver/Inc/stm32l4xx_hal_i2c.h"
 769              		.file 11 "../../core/ST/STM32L4xx_HAL_Driver/Inc/stm32l4xx_hal_iwdg.h"
 770              		.file 12 "../../core/ST/STM32L4xx_HAL_Driver/Inc/stm32l4xx_hal_spi.h"
 771              		.file 13 "../../core/ST/STM32L4xx_HAL_Driver/Inc/stm32l4xx_hal_uart.h"
 772              		.file 14 "../../core/ST/STM32L4xx_HAL_Driver/Inc/stm32l4xx_hal.h"
 773              		.file 15 "../../core/ST/Middlewares/Third_Party/FreeRTOS/Source/include/task.h"
 774              		.file 16 "../../core/ST/Middlewares/Third_Party/FreeRTOS/Source/CMSIS_RTOS/cmsis_os.h"
 775              		.file 17 "../../core/platform/octa/inc/gpio.h"
 776              		.file 18 "../../core/platform/octa/inc/iwdg.h"
 777              		.file 19 "../../core/platform/octa/inc/uart.h"
 778              		.file 20 "../../core/platform/octa/inc/i2c.h"
 779              		.file 21 "../../core/platform/octa/inc/spi.h"
 780              		.file 22 "../../core/platform/octa/inc/octa.h"
 781              		.file 23 "../../shields/Murata/inc/d7ap.h"
 782              		.file 24 "../../shields/Murata/inc/lorawan_stack.h"
 783              		.file 25 "../../shields/Murata/inc/alp.h"
 784              		.file 26 "../../shields/Murata/inc/modem_interface.h"
 785              		.file 27 "../../shields/Murata/inc/modem.h"
 786              		.file 28 "../../shields/Murata/inc/murata.h"
 787              		.file 29 "<built-in>"
 788              		.file 30 "../../core/platform/octa/inc/rtosmacros.h"
ARM GAS  /tmp/ccKXHpiW.s 			page 18

