ARM GAS  /tmp/cc9Ltixj.s 			page 1


   1              		.cpu cortex-m4
   2              		.eabi_attribute 27, 1
   3              		.eabi_attribute 28, 1
   4              		.eabi_attribute 20, 1
   5              		.eabi_attribute 21, 1
   6              		.eabi_attribute 23, 3
   7              		.eabi_attribute 24, 1
   8              		.eabi_attribute 25, 1
   9              		.eabi_attribute 26, 1
  10              		.eabi_attribute 30, 1
  11              		.eabi_attribute 34, 1
  12              		.eabi_attribute 18, 4
  13              		.file	"octa.c"
  14              		.text
  15              	.Ltext0:
  16              		.cfi_sections	.debug_frame
  17              		.section	.text.OCTA_NVIC_Initialize,"ax",%progbits
  18              		.align	1
  19              		.global	OCTA_NVIC_Initialize
  20              		.syntax unified
  21              		.thumb
  22              		.thumb_func
  23              		.fpu fpv4-sp-d16
  25              	OCTA_NVIC_Initialize:
  26              	.LFB128:
  27              		.file 1 "../../core/platform/octa/src/octa.c"
   1:../../core/platform/octa/src/octa.c **** #include "octa.h"
   2:../../core/platform/octa/src/octa.c **** 
   3:../../core/platform/octa/src/octa.c **** void OCTA_NVIC_Initialize(){
  28              		.loc 1 3 0
  29              		.cfi_startproc
  30              		@ args = 0, pretend = 0, frame = 0
  31              		@ frame_needed = 0, uses_anonymous_args = 0
  32 0000 08B5     		push	{r3, lr}
  33              	.LCFI0:
  34              		.cfi_def_cfa_offset 8
  35              		.cfi_offset 3, -8
  36              		.cfi_offset 14, -4
   4:../../core/platform/octa/src/octa.c **** 
   5:../../core/platform/octa/src/octa.c ****   /* EXTI5_IRQn interrupt configuration */
   6:../../core/platform/octa/src/octa.c ****   HAL_NVIC_SetPriority(23, 2, 0);
  37              		.loc 1 6 0
  38 0002 0022     		movs	r2, #0
  39 0004 0221     		movs	r1, #2
  40 0006 1720     		movs	r0, #23
  41 0008 FFF7FEFF 		bl	HAL_NVIC_SetPriority
  42              	.LVL0:
   7:../../core/platform/octa/src/octa.c ****   HAL_NVIC_EnableIRQ(23); // 23 is interrupt line 5 - 9
  43              		.loc 1 7 0
  44 000c 1720     		movs	r0, #23
  45 000e FFF7FEFF 		bl	HAL_NVIC_EnableIRQ
  46              	.LVL1:
   8:../../core/platform/octa/src/octa.c ****     
   9:../../core/platform/octa/src/octa.c ****   HAL_NVIC_SetPriority(40, 0, 0);
  47              		.loc 1 9 0
  48 0012 0022     		movs	r2, #0
  49 0014 1146     		mov	r1, r2
ARM GAS  /tmp/cc9Ltixj.s 			page 2


  50 0016 2820     		movs	r0, #40
  51 0018 FFF7FEFF 		bl	HAL_NVIC_SetPriority
  52              	.LVL2:
  10:../../core/platform/octa/src/octa.c ****   HAL_NVIC_EnableIRQ(40); // 23 is interrupt line 10 - 15
  53              		.loc 1 10 0
  54 001c 2820     		movs	r0, #40
  55 001e FFF7FEFF 		bl	HAL_NVIC_EnableIRQ
  56              	.LVL3:
  11:../../core/platform/octa/src/octa.c **** 
  12:../../core/platform/octa/src/octa.c ****   HAL_NVIC_SetPriority(6, 0, 0);
  57              		.loc 1 12 0
  58 0022 0022     		movs	r2, #0
  59 0024 1146     		mov	r1, r2
  60 0026 0620     		movs	r0, #6
  61 0028 FFF7FEFF 		bl	HAL_NVIC_SetPriority
  62              	.LVL4:
  13:../../core/platform/octa/src/octa.c ****   HAL_NVIC_EnableIRQ(6); // 23 is interrupt line 0
  63              		.loc 1 13 0
  64 002c 0620     		movs	r0, #6
  65 002e FFF7FEFF 		bl	HAL_NVIC_EnableIRQ
  66              	.LVL5:
  14:../../core/platform/octa/src/octa.c **** 
  15:../../core/platform/octa/src/octa.c ****   HAL_NVIC_SetPriority(7, 0, 0);
  67              		.loc 1 15 0
  68 0032 0022     		movs	r2, #0
  69 0034 1146     		mov	r1, r2
  70 0036 0720     		movs	r0, #7
  71 0038 FFF7FEFF 		bl	HAL_NVIC_SetPriority
  72              	.LVL6:
  16:../../core/platform/octa/src/octa.c ****   HAL_NVIC_EnableIRQ(7); // 23 is interrupt line 1
  73              		.loc 1 16 0
  74 003c 0720     		movs	r0, #7
  75 003e FFF7FEFF 		bl	HAL_NVIC_EnableIRQ
  76              	.LVL7:
  77 0042 08BD     		pop	{r3, pc}
  78              		.cfi_endproc
  79              	.LFE128:
  81              		.section	.text.OCTA_Initialize_Common_Peripherals,"ax",%progbits
  82              		.align	1
  83              		.global	OCTA_Initialize_Common_Peripherals
  84              		.syntax unified
  85              		.thumb
  86              		.thumb_func
  87              		.fpu fpv4-sp-d16
  89              	OCTA_Initialize_Common_Peripherals:
  90              	.LFB130:
  17:../../core/platform/octa/src/octa.c **** }
  18:../../core/platform/octa/src/octa.c **** void OCTA_Initialize_Platform(void)
  19:../../core/platform/octa/src/octa.c **** {
  20:../../core/platform/octa/src/octa.c ****     //GPIO, IWDG, USB_UART(Logging)
  21:../../core/platform/octa/src/octa.c ****     OCTA_Initialize_Common_Peripherals();
  22:../../core/platform/octa/src/octa.c ****     //P1 UART, I2C, SPI & GPIO handles
  23:../../core/platform/octa/src/octa.c ****     OCTA_Initialize_P1_Peripherals();
  24:../../core/platform/octa/src/octa.c ****     //P2 UART, I2C, SPI & GPIO handles
  25:../../core/platform/octa/src/octa.c ****     OCTA_Initialize_P2_Peripherals();
  26:../../core/platform/octa/src/octa.c ****     //P3 UART, I2C, SPI & GPIO handles
  27:../../core/platform/octa/src/octa.c ****     OCTA_Initialize_P3_Peripherals();
ARM GAS  /tmp/cc9Ltixj.s 			page 3


  28:../../core/platform/octa/src/octa.c ****     //Interupts
  29:../../core/platform/octa/src/octa.c ****     OCTA_NVIC_Initialize();
  30:../../core/platform/octa/src/octa.c **** }
  31:../../core/platform/octa/src/octa.c **** 
  32:../../core/platform/octa/src/octa.c **** void OCTA_Initialize_Common_Peripherals(void)
  33:../../core/platform/octa/src/octa.c **** {
  91              		.loc 1 33 0
  92              		.cfi_startproc
  93              		@ args = 0, pretend = 0, frame = 0
  94              		@ frame_needed = 0, uses_anonymous_args = 0
  95 0000 08B5     		push	{r3, lr}
  96              	.LCFI1:
  97              		.cfi_def_cfa_offset 8
  98              		.cfi_offset 3, -8
  99              		.cfi_offset 14, -4
  34:../../core/platform/octa/src/octa.c ****     OCTA_GPIO_Init();
 100              		.loc 1 34 0
 101 0002 FFF7FEFF 		bl	OCTA_GPIO_Init
 102              	.LVL8:
  35:../../core/platform/octa/src/octa.c ****     OCTA_IWDG_Init();
 103              		.loc 1 35 0
 104 0006 FFF7FEFF 		bl	OCTA_IWDG_Init
 105              	.LVL9:
  36:../../core/platform/octa/src/octa.c ****     FLASH_SPI_Init();
 106              		.loc 1 36 0
 107 000a FFF7FEFF 		bl	FLASH_SPI_Init
 108              	.LVL10:
  37:../../core/platform/octa/src/octa.c ****     common_I2C_Init();
 109              		.loc 1 37 0
 110 000e FFF7FEFF 		bl	common_I2C_Init
 111              	.LVL11:
  38:../../core/platform/octa/src/octa.c ****     USB_UART_Init(115200);
 112              		.loc 1 38 0
 113 0012 4FF4E130 		mov	r0, #115200
 114 0016 FFF7FEFF 		bl	USB_UART_Init
 115              	.LVL12:
 116 001a 08BD     		pop	{r3, pc}
 117              		.cfi_endproc
 118              	.LFE130:
 120              		.section	.text.OCTA_Initialize_P1_Peripherals,"ax",%progbits
 121              		.align	1
 122              		.global	OCTA_Initialize_P1_Peripherals
 123              		.syntax unified
 124              		.thumb
 125              		.thumb_func
 126              		.fpu fpv4-sp-d16
 128              	OCTA_Initialize_P1_Peripherals:
 129              	.LFB131:
  39:../../core/platform/octa/src/octa.c ****     #if USE_BOOTLOADER
  40:../../core/platform/octa/src/octa.c ****         printf("\r\nusing bootloader, initializing BLE UART\r\n");
  41:../../core/platform/octa/src/octa.c ****         BLE_UART_Init(115200); 
  42:../../core/platform/octa/src/octa.c ****         bootloader_initialize(&BLE_UART);     
  43:../../core/platform/octa/src/octa.c ****     #endif
  44:../../core/platform/octa/src/octa.c **** }
  45:../../core/platform/octa/src/octa.c **** 
  46:../../core/platform/octa/src/octa.c **** void OCTA_Initialize_P1_Peripherals(void)
  47:../../core/platform/octa/src/octa.c **** {
ARM GAS  /tmp/cc9Ltixj.s 			page 4


 130              		.loc 1 47 0
 131              		.cfi_startproc
 132              		@ args = 0, pretend = 0, frame = 0
 133              		@ frame_needed = 0, uses_anonymous_args = 0
 134              		@ link register save eliminated.
  48:../../core/platform/octa/src/octa.c ****     P1_header.number = 1;
 135              		.loc 1 48 0
 136 0000 0A4B     		ldr	r3, .L6
 137 0002 0122     		movs	r2, #1
 138 0004 1A70     		strb	r2, [r3]
  49:../../core/platform/octa/src/octa.c ****     P1_header.uartHandle = &P1_UART;
 139              		.loc 1 49 0
 140 0006 0A4A     		ldr	r2, .L6+4
 141 0008 5A60     		str	r2, [r3, #4]
  50:../../core/platform/octa/src/octa.c ****     P1_header.i2cHandle = &P1_I2C;
 142              		.loc 1 50 0
 143 000a 0A4A     		ldr	r2, .L6+8
 144 000c 9A60     		str	r2, [r3, #8]
  51:../../core/platform/octa/src/octa.c ****     P1_header.spiHandle = &P1_SPI;
 145              		.loc 1 51 0
 146 000e 0A4A     		ldr	r2, .L6+12
 147 0010 DA60     		str	r2, [r3, #12]
  52:../../core/platform/octa/src/octa.c ****     P1_header.DIO1 = &P1_DIO1;
 148              		.loc 1 52 0
 149 0012 0A4A     		ldr	r2, .L6+16
 150 0014 1A61     		str	r2, [r3, #16]
  53:../../core/platform/octa/src/octa.c ****     P1_header.DIO2 = &P1_DIO2;
 151              		.loc 1 53 0
 152 0016 0A4A     		ldr	r2, .L6+20
 153 0018 5A61     		str	r2, [r3, #20]
  54:../../core/platform/octa/src/octa.c ****     P1_header.DIO3 = &P1_DIO3;
 154              		.loc 1 54 0
 155 001a 0A4A     		ldr	r2, .L6+24
 156 001c 9A61     		str	r2, [r3, #24]
  55:../../core/platform/octa/src/octa.c ****     P1_header.DIO4 = &P1_DIO4;
 157              		.loc 1 55 0
 158 001e 0A4A     		ldr	r2, .L6+28
 159 0020 DA61     		str	r2, [r3, #28]
  56:../../core/platform/octa/src/octa.c ****     P1_header.DIO5 = &P1_DIO5;
 160              		.loc 1 56 0
 161 0022 0A4A     		ldr	r2, .L6+32
 162 0024 1A62     		str	r2, [r3, #32]
  57:../../core/platform/octa/src/octa.c ****     P1_header.DIO6 = &P1_DIO6;
 163              		.loc 1 57 0
 164 0026 0A4A     		ldr	r2, .L6+36
 165 0028 5A62     		str	r2, [r3, #36]
 166 002a 7047     		bx	lr
 167              	.L7:
 168              		.align	2
 169              	.L6:
 170 002c 00000000 		.word	P1_header
 171 0030 00000000 		.word	P1_UART
 172 0034 00000000 		.word	P1_I2C
 173 0038 00000000 		.word	P1_SPI
 174 003c 00000000 		.word	P1_DIO1
 175 0040 00000000 		.word	P1_DIO2
 176 0044 00000000 		.word	P1_DIO3
ARM GAS  /tmp/cc9Ltixj.s 			page 5


 177 0048 00000000 		.word	P1_DIO4
 178 004c 00000000 		.word	P1_DIO5
 179 0050 00000000 		.word	P1_DIO6
 180              		.cfi_endproc
 181              	.LFE131:
 183              		.section	.text.OCTA_Initialize_P2_Peripherals,"ax",%progbits
 184              		.align	1
 185              		.global	OCTA_Initialize_P2_Peripherals
 186              		.syntax unified
 187              		.thumb
 188              		.thumb_func
 189              		.fpu fpv4-sp-d16
 191              	OCTA_Initialize_P2_Peripherals:
 192              	.LFB132:
  58:../../core/platform/octa/src/octa.c **** }
  59:../../core/platform/octa/src/octa.c **** 
  60:../../core/platform/octa/src/octa.c **** void OCTA_Initialize_P2_Peripherals(void)
  61:../../core/platform/octa/src/octa.c **** {
 193              		.loc 1 61 0
 194              		.cfi_startproc
 195              		@ args = 0, pretend = 0, frame = 0
 196              		@ frame_needed = 0, uses_anonymous_args = 0
 197              		@ link register save eliminated.
  62:../../core/platform/octa/src/octa.c ****     P2_header.number = 2;
 198              		.loc 1 62 0
 199 0000 0A4B     		ldr	r3, .L9
 200 0002 0222     		movs	r2, #2
 201 0004 1A70     		strb	r2, [r3]
  63:../../core/platform/octa/src/octa.c ****     #if USE_BOOTLOADER
  64:../../core/platform/octa/src/octa.c ****         printf("\r\nusing bootloader, P2 UART unavailable\r\n");
  65:../../core/platform/octa/src/octa.c ****         P2_header.uartHandle = NULL;
  66:../../core/platform/octa/src/octa.c ****     #else
  67:../../core/platform/octa/src/octa.c ****         P2_header.uartHandle = &P2_UART;
 202              		.loc 1 67 0
 203 0006 0A4A     		ldr	r2, .L9+4
 204 0008 5A60     		str	r2, [r3, #4]
  68:../../core/platform/octa/src/octa.c ****     #endif
  69:../../core/platform/octa/src/octa.c ****     P2_header.i2cHandle = &P2_I2C;
 205              		.loc 1 69 0
 206 000a 0A4A     		ldr	r2, .L9+8
 207 000c 9A60     		str	r2, [r3, #8]
  70:../../core/platform/octa/src/octa.c ****     P2_header.spiHandle = &P2_SPI;
 208              		.loc 1 70 0
 209 000e 0A4A     		ldr	r2, .L9+12
 210 0010 DA60     		str	r2, [r3, #12]
  71:../../core/platform/octa/src/octa.c ****     P2_header.DIO1 = &P2_DIO1;
 211              		.loc 1 71 0
 212 0012 0A4A     		ldr	r2, .L9+16
 213 0014 1A61     		str	r2, [r3, #16]
  72:../../core/platform/octa/src/octa.c ****     P2_header.DIO2 = &P2_DIO2;
 214              		.loc 1 72 0
 215 0016 0A4A     		ldr	r2, .L9+20
 216 0018 5A61     		str	r2, [r3, #20]
  73:../../core/platform/octa/src/octa.c ****     P2_header.DIO3 = &P2_DIO3;
 217              		.loc 1 73 0
 218 001a 0A4A     		ldr	r2, .L9+24
 219 001c 9A61     		str	r2, [r3, #24]
ARM GAS  /tmp/cc9Ltixj.s 			page 6


  74:../../core/platform/octa/src/octa.c ****     P2_header.DIO4 = &P2_DIO4;
 220              		.loc 1 74 0
 221 001e 0A4A     		ldr	r2, .L9+28
 222 0020 DA61     		str	r2, [r3, #28]
  75:../../core/platform/octa/src/octa.c ****     P2_header.DIO5 = &P2_DIO5;
 223              		.loc 1 75 0
 224 0022 0A4A     		ldr	r2, .L9+32
 225 0024 1A62     		str	r2, [r3, #32]
  76:../../core/platform/octa/src/octa.c ****     P2_header.DIO6 = &P2_DIO6;
 226              		.loc 1 76 0
 227 0026 0A4A     		ldr	r2, .L9+36
 228 0028 5A62     		str	r2, [r3, #36]
 229 002a 7047     		bx	lr
 230              	.L10:
 231              		.align	2
 232              	.L9:
 233 002c 00000000 		.word	P2_header
 234 0030 00000000 		.word	P2_UART
 235 0034 00000000 		.word	P2_I2C
 236 0038 00000000 		.word	P2_SPI
 237 003c 00000000 		.word	P2_DIO1
 238 0040 00000000 		.word	P2_DIO2
 239 0044 00000000 		.word	P2_DIO3
 240 0048 00000000 		.word	P2_DIO4
 241 004c 00000000 		.word	P2_DIO5
 242 0050 00000000 		.word	P2_DIO6
 243              		.cfi_endproc
 244              	.LFE132:
 246              		.section	.text.OCTA_Initialize_P3_Peripherals,"ax",%progbits
 247              		.align	1
 248              		.global	OCTA_Initialize_P3_Peripherals
 249              		.syntax unified
 250              		.thumb
 251              		.thumb_func
 252              		.fpu fpv4-sp-d16
 254              	OCTA_Initialize_P3_Peripherals:
 255              	.LFB133:
  77:../../core/platform/octa/src/octa.c **** }
  78:../../core/platform/octa/src/octa.c **** 
  79:../../core/platform/octa/src/octa.c **** void OCTA_Initialize_P3_Peripherals(void)
  80:../../core/platform/octa/src/octa.c **** {
 256              		.loc 1 80 0
 257              		.cfi_startproc
 258              		@ args = 0, pretend = 0, frame = 0
 259              		@ frame_needed = 0, uses_anonymous_args = 0
 260              		@ link register save eliminated.
  81:../../core/platform/octa/src/octa.c ****     P3_header.number = 3;
 261              		.loc 1 81 0
 262 0000 0A4B     		ldr	r3, .L12
 263 0002 0322     		movs	r2, #3
 264 0004 1A70     		strb	r2, [r3]
  82:../../core/platform/octa/src/octa.c ****     P3_header.uartHandle = &P3_UART;
 265              		.loc 1 82 0
 266 0006 0A4A     		ldr	r2, .L12+4
 267 0008 5A60     		str	r2, [r3, #4]
  83:../../core/platform/octa/src/octa.c ****     P3_header.i2cHandle = &P3_I2C;
 268              		.loc 1 83 0
ARM GAS  /tmp/cc9Ltixj.s 			page 7


 269 000a 0A4A     		ldr	r2, .L12+8
 270 000c 9A60     		str	r2, [r3, #8]
  84:../../core/platform/octa/src/octa.c ****     P3_header.spiHandle = &P3_SPI;
 271              		.loc 1 84 0
 272 000e 0A4A     		ldr	r2, .L12+12
 273 0010 DA60     		str	r2, [r3, #12]
  85:../../core/platform/octa/src/octa.c ****     P3_header.DIO1 = &P3_DIO1;
 274              		.loc 1 85 0
 275 0012 0A4A     		ldr	r2, .L12+16
 276 0014 1A61     		str	r2, [r3, #16]
  86:../../core/platform/octa/src/octa.c ****     P3_header.DIO2 = &P3_DIO2;
 277              		.loc 1 86 0
 278 0016 0A4A     		ldr	r2, .L12+20
 279 0018 5A61     		str	r2, [r3, #20]
  87:../../core/platform/octa/src/octa.c ****     P3_header.DIO3 = &P3_DIO3;
 280              		.loc 1 87 0
 281 001a 0A4A     		ldr	r2, .L12+24
 282 001c 9A61     		str	r2, [r3, #24]
  88:../../core/platform/octa/src/octa.c ****     P3_header.DIO4 = &P3_DIO4;
 283              		.loc 1 88 0
 284 001e 0A4A     		ldr	r2, .L12+28
 285 0020 DA61     		str	r2, [r3, #28]
  89:../../core/platform/octa/src/octa.c ****     P3_header.DIO5 = &P3_DIO5;
 286              		.loc 1 89 0
 287 0022 0A4A     		ldr	r2, .L12+32
 288 0024 1A62     		str	r2, [r3, #32]
  90:../../core/platform/octa/src/octa.c ****     P3_header.DIO6 = &P3_DIO6;
 289              		.loc 1 90 0
 290 0026 0A4A     		ldr	r2, .L12+36
 291 0028 5A62     		str	r2, [r3, #36]
 292 002a 7047     		bx	lr
 293              	.L13:
 294              		.align	2
 295              	.L12:
 296 002c 00000000 		.word	P3_header
 297 0030 00000000 		.word	P3_UART
 298 0034 00000000 		.word	P3_I2C
 299 0038 00000000 		.word	P3_SPI
 300 003c 00000000 		.word	P3_DIO1
 301 0040 00000000 		.word	P3_DIO2
 302 0044 00000000 		.word	P3_DIO3
 303 0048 00000000 		.word	P3_DIO4
 304 004c 00000000 		.word	P3_DIO5
 305 0050 00000000 		.word	P3_DIO6
 306              		.cfi_endproc
 307              	.LFE133:
 309              		.section	.text.OCTA_Initialize_Platform,"ax",%progbits
 310              		.align	1
 311              		.global	OCTA_Initialize_Platform
 312              		.syntax unified
 313              		.thumb
 314              		.thumb_func
 315              		.fpu fpv4-sp-d16
 317              	OCTA_Initialize_Platform:
 318              	.LFB129:
  19:../../core/platform/octa/src/octa.c ****     //GPIO, IWDG, USB_UART(Logging)
 319              		.loc 1 19 0
ARM GAS  /tmp/cc9Ltixj.s 			page 8


 320              		.cfi_startproc
 321              		@ args = 0, pretend = 0, frame = 0
 322              		@ frame_needed = 0, uses_anonymous_args = 0
 323 0000 08B5     		push	{r3, lr}
 324              	.LCFI2:
 325              		.cfi_def_cfa_offset 8
 326              		.cfi_offset 3, -8
 327              		.cfi_offset 14, -4
  21:../../core/platform/octa/src/octa.c ****     //P1 UART, I2C, SPI & GPIO handles
 328              		.loc 1 21 0
 329 0002 FFF7FEFF 		bl	OCTA_Initialize_Common_Peripherals
 330              	.LVL13:
  23:../../core/platform/octa/src/octa.c ****     //P2 UART, I2C, SPI & GPIO handles
 331              		.loc 1 23 0
 332 0006 FFF7FEFF 		bl	OCTA_Initialize_P1_Peripherals
 333              	.LVL14:
  25:../../core/platform/octa/src/octa.c ****     //P3 UART, I2C, SPI & GPIO handles
 334              		.loc 1 25 0
 335 000a FFF7FEFF 		bl	OCTA_Initialize_P2_Peripherals
 336              	.LVL15:
  27:../../core/platform/octa/src/octa.c ****     //Interupts
 337              		.loc 1 27 0
 338 000e FFF7FEFF 		bl	OCTA_Initialize_P3_Peripherals
 339              	.LVL16:
  29:../../core/platform/octa/src/octa.c **** }
 340              		.loc 1 29 0
 341 0012 FFF7FEFF 		bl	OCTA_NVIC_Initialize
 342              	.LVL17:
 343 0016 08BD     		pop	{r3, pc}
 344              		.cfi_endproc
 345              	.LFE129:
 347              		.section	.text.get_UID,"ax",%progbits
 348              		.align	1
 349              		.global	get_UID
 350              		.syntax unified
 351              		.thumb
 352              		.thumb_func
 353              		.fpu fpv4-sp-d16
 355              	get_UID:
 356              	.LFB134:
  91:../../core/platform/octa/src/octa.c **** }
  92:../../core/platform/octa/src/octa.c **** 
  93:../../core/platform/octa/src/octa.c **** uint64_t get_UID(void)
  94:../../core/platform/octa/src/octa.c **** {
 357              		.loc 1 94 0
 358              		.cfi_startproc
 359              		@ args = 0, pretend = 0, frame = 0
 360              		@ frame_needed = 0, uses_anonymous_args = 0
 361              		@ link register save eliminated.
 362 0000 10B4     		push	{r4}
 363              	.LCFI3:
 364              		.cfi_def_cfa_offset 4
 365              		.cfi_offset 4, -4
  95:../../core/platform/octa/src/octa.c ****     // Full 96 bits UID in an array
  96:../../core/platform/octa/src/octa.c ****     // uint32_t *uniqueID = (uint32_t*)UID_BASE;
  97:../../core/platform/octa/src/octa.c ****     // for(uint8_t i = 0; i < 12; i++){
  98:../../core/platform/octa/src/octa.c ****     //   UID[i] = (uint8_t)uniqueID[i];
ARM GAS  /tmp/cc9Ltixj.s 			page 9


  99:../../core/platform/octa/src/octa.c ****     // }
 100:../../core/platform/octa/src/octa.c ****     //return 64 bit mac address
 101:../../core/platform/octa/src/octa.c ****     return (*((uint64_t *)(UID_BASE)) << 32) + *((uint64_t *)(UID_BASE + 0x04U));
 366              		.loc 1 101 0
 367 0002 0020     		movs	r0, #0
 368 0004 044B     		ldr	r3, .L18
 369 0006 1968     		ldr	r1, [r3]
 370 0008 044C     		ldr	r4, .L18+4
 371 000a 2268     		ldr	r2, [r4]
 372 000c 6368     		ldr	r3, [r4, #4]
 102:../../core/platform/octa/src/octa.c **** }
 373              		.loc 1 102 0
 374 000e 8018     		adds	r0, r0, r2
 375 0010 5941     		adcs	r1, r1, r3
 376 0012 5DF8044B 		ldr	r4, [sp], #4
 377              	.LCFI4:
 378              		.cfi_restore 4
 379              		.cfi_def_cfa_offset 0
 380 0016 7047     		bx	lr
 381              	.L19:
 382              		.align	2
 383              	.L18:
 384 0018 9075FF1F 		.word	536835472
 385 001c 9475FF1F 		.word	536835476
 386              		.cfi_endproc
 387              	.LFE134:
 389              		.section	.text.platform_initialize_UART,"ax",%progbits
 390              		.align	1
 391              		.global	platform_initialize_UART
 392              		.syntax unified
 393              		.thumb
 394              		.thumb_func
 395              		.fpu fpv4-sp-d16
 397              	platform_initialize_UART:
 398              	.LFB135:
 103:../../core/platform/octa/src/octa.c **** 
 104:../../core/platform/octa/src/octa.c **** void platform_initialize_UART(struct OCTA_header aHeader, uint32_t aBaudRate)
 105:../../core/platform/octa/src/octa.c **** {
 399              		.loc 1 105 0
 400              		.cfi_startproc
 401              		@ args = 48, pretend = 16, frame = 0
 402              		@ frame_needed = 0, uses_anonymous_args = 0
 403              	.LVL18:
 404 0000 84B0     		sub	sp, sp, #16
 405              	.LCFI5:
 406              		.cfi_def_cfa_offset 16
 407 0002 08B5     		push	{r3, lr}
 408              	.LCFI6:
 409              		.cfi_def_cfa_offset 24
 410              		.cfi_offset 3, -24
 411              		.cfi_offset 14, -20
 412 0004 0DF1080E 		add	lr, sp, #8
 413 0008 8EE80F00 		stm	lr, {r0, r1, r2, r3}
 106:../../core/platform/octa/src/octa.c ****     switch(aHeader.number)
 414              		.loc 1 106 0
 415 000c 9DF80830 		ldrb	r3, [sp, #8]	@ zero_extendqisi2
 416 0010 022B     		cmp	r3, #2
ARM GAS  /tmp/cc9Ltixj.s 			page 10


 417 0012 0BD0     		beq	.L22
 418 0014 032B     		cmp	r3, #3
 419 0016 0DD0     		beq	.L23
 420 0018 012B     		cmp	r3, #1
 421 001a 03D0     		beq	.L26
 422              	.L20:
 107:../../core/platform/octa/src/octa.c ****     {
 108:../../core/platform/octa/src/octa.c ****         case 1:
 109:../../core/platform/octa/src/octa.c ****             P1_UART_Init(aBaudRate);
 110:../../core/platform/octa/src/octa.c ****             break;
 111:../../core/platform/octa/src/octa.c ****         case 2:
 112:../../core/platform/octa/src/octa.c ****             P2_UART_Init(aBaudRate);
 113:../../core/platform/octa/src/octa.c ****             break;
 114:../../core/platform/octa/src/octa.c ****         case 3:
 115:../../core/platform/octa/src/octa.c ****             P3_UART_Init(aBaudRate);
 116:../../core/platform/octa/src/octa.c ****             break;
 117:../../core/platform/octa/src/octa.c ****         default:
 118:../../core/platform/octa/src/octa.c ****             break;
 119:../../core/platform/octa/src/octa.c ****     }
 120:../../core/platform/octa/src/octa.c **** }
 423              		.loc 1 120 0
 424 001c BDE80840 		pop	{r3, lr}
 425              	.LCFI7:
 426              		.cfi_remember_state
 427              		.cfi_restore 14
 428              		.cfi_restore 3
 429              		.cfi_def_cfa_offset 16
 430 0020 04B0     		add	sp, sp, #16
 431              	.LCFI8:
 432              		.cfi_def_cfa_offset 0
 433 0022 7047     		bx	lr
 434              	.L26:
 435              	.LCFI9:
 436              		.cfi_restore_state
 109:../../core/platform/octa/src/octa.c ****             break;
 437              		.loc 1 109 0
 438 0024 0D98     		ldr	r0, [sp, #52]
 439 0026 FFF7FEFF 		bl	P1_UART_Init
 440              	.LVL19:
 110:../../core/platform/octa/src/octa.c ****         case 2:
 441              		.loc 1 110 0
 442 002a F7E7     		b	.L20
 443              	.L22:
 112:../../core/platform/octa/src/octa.c ****             break;
 444              		.loc 1 112 0
 445 002c 0D98     		ldr	r0, [sp, #52]
 446 002e FFF7FEFF 		bl	P2_UART_Init
 447              	.LVL20:
 113:../../core/platform/octa/src/octa.c ****         case 3:
 448              		.loc 1 113 0
 449 0032 F3E7     		b	.L20
 450              	.L23:
 115:../../core/platform/octa/src/octa.c ****             break;
 451              		.loc 1 115 0
 452 0034 0D98     		ldr	r0, [sp, #52]
 453 0036 FFF7FEFF 		bl	P3_UART_Init
 454              	.LVL21:
ARM GAS  /tmp/cc9Ltixj.s 			page 11


 455              		.loc 1 120 0
 456 003a EFE7     		b	.L20
 457              		.cfi_endproc
 458              	.LFE135:
 460              		.section	.text.platform_initialize_I2C,"ax",%progbits
 461              		.align	1
 462              		.global	platform_initialize_I2C
 463              		.syntax unified
 464              		.thumb
 465              		.thumb_func
 466              		.fpu fpv4-sp-d16
 468              	platform_initialize_I2C:
 469              	.LFB136:
 121:../../core/platform/octa/src/octa.c **** 
 122:../../core/platform/octa/src/octa.c **** void platform_initialize_I2C(struct OCTA_header aHeader)
 123:../../core/platform/octa/src/octa.c **** {
 470              		.loc 1 123 0
 471              		.cfi_startproc
 472              		@ args = 44, pretend = 16, frame = 0
 473              		@ frame_needed = 0, uses_anonymous_args = 0
 474 0000 84B0     		sub	sp, sp, #16
 475              	.LCFI10:
 476              		.cfi_def_cfa_offset 16
 477 0002 08B5     		push	{r3, lr}
 478              	.LCFI11:
 479              		.cfi_def_cfa_offset 24
 480              		.cfi_offset 3, -24
 481              		.cfi_offset 14, -20
 482 0004 0DF1080E 		add	lr, sp, #8
 483 0008 8EE80F00 		stm	lr, {r0, r1, r2, r3}
 124:../../core/platform/octa/src/octa.c ****     switch(aHeader.number)
 484              		.loc 1 124 0
 485 000c 9DF80830 		ldrb	r3, [sp, #8]	@ zero_extendqisi2
 486 0010 022B     		cmp	r3, #2
 487 0012 0AD0     		beq	.L29
 488 0014 032B     		cmp	r3, #3
 489 0016 0BD0     		beq	.L30
 490 0018 012B     		cmp	r3, #1
 491 001a 03D0     		beq	.L33
 492              	.L27:
 125:../../core/platform/octa/src/octa.c ****     {
 126:../../core/platform/octa/src/octa.c ****         case 1:
 127:../../core/platform/octa/src/octa.c ****             P1_I2C_Init();
 128:../../core/platform/octa/src/octa.c ****             break;
 129:../../core/platform/octa/src/octa.c ****         case 2:
 130:../../core/platform/octa/src/octa.c ****             P2_I2C_Init();
 131:../../core/platform/octa/src/octa.c ****             break;
 132:../../core/platform/octa/src/octa.c ****         case 3:
 133:../../core/platform/octa/src/octa.c ****             P3_I2C_Init();
 134:../../core/platform/octa/src/octa.c ****             break;
 135:../../core/platform/octa/src/octa.c ****         default:
 136:../../core/platform/octa/src/octa.c ****             break;
 137:../../core/platform/octa/src/octa.c ****     }
 138:../../core/platform/octa/src/octa.c **** }
 493              		.loc 1 138 0
 494 001c BDE80840 		pop	{r3, lr}
 495              	.LCFI12:
ARM GAS  /tmp/cc9Ltixj.s 			page 12


 496              		.cfi_remember_state
 497              		.cfi_restore 14
 498              		.cfi_restore 3
 499              		.cfi_def_cfa_offset 16
 500 0020 04B0     		add	sp, sp, #16
 501              	.LCFI13:
 502              		.cfi_def_cfa_offset 0
 503 0022 7047     		bx	lr
 504              	.L33:
 505              	.LCFI14:
 506              		.cfi_restore_state
 127:../../core/platform/octa/src/octa.c ****             break;
 507              		.loc 1 127 0
 508 0024 FFF7FEFF 		bl	P1_I2C_Init
 509              	.LVL22:
 128:../../core/platform/octa/src/octa.c ****         case 2:
 510              		.loc 1 128 0
 511 0028 F8E7     		b	.L27
 512              	.L29:
 130:../../core/platform/octa/src/octa.c ****             break;
 513              		.loc 1 130 0
 514 002a FFF7FEFF 		bl	P2_I2C_Init
 515              	.LVL23:
 131:../../core/platform/octa/src/octa.c ****         case 3:
 516              		.loc 1 131 0
 517 002e F5E7     		b	.L27
 518              	.L30:
 133:../../core/platform/octa/src/octa.c ****             break;
 519              		.loc 1 133 0
 520 0030 FFF7FEFF 		bl	P3_I2C_Init
 521              	.LVL24:
 522              		.loc 1 138 0
 523 0034 F2E7     		b	.L27
 524              		.cfi_endproc
 525              	.LFE136:
 527              		.section	.text.platform_initialize_SPI,"ax",%progbits
 528              		.align	1
 529              		.global	platform_initialize_SPI
 530              		.syntax unified
 531              		.thumb
 532              		.thumb_func
 533              		.fpu fpv4-sp-d16
 535              	platform_initialize_SPI:
 536              	.LFB137:
 139:../../core/platform/octa/src/octa.c **** 
 140:../../core/platform/octa/src/octa.c **** void platform_initialize_SPI(struct OCTA_header aHeader)
 141:../../core/platform/octa/src/octa.c **** {
 537              		.loc 1 141 0
 538              		.cfi_startproc
 539              		@ args = 44, pretend = 16, frame = 0
 540              		@ frame_needed = 0, uses_anonymous_args = 0
 541 0000 84B0     		sub	sp, sp, #16
 542              	.LCFI15:
 543              		.cfi_def_cfa_offset 16
 544 0002 08B5     		push	{r3, lr}
 545              	.LCFI16:
 546              		.cfi_def_cfa_offset 24
ARM GAS  /tmp/cc9Ltixj.s 			page 13


 547              		.cfi_offset 3, -24
 548              		.cfi_offset 14, -20
 549 0004 0DF1080E 		add	lr, sp, #8
 550 0008 8EE80F00 		stm	lr, {r0, r1, r2, r3}
 142:../../core/platform/octa/src/octa.c ****     switch(aHeader.number)
 551              		.loc 1 142 0
 552 000c 9DF80830 		ldrb	r3, [sp, #8]	@ zero_extendqisi2
 553 0010 022B     		cmp	r3, #2
 554 0012 0AD0     		beq	.L36
 555 0014 032B     		cmp	r3, #3
 556 0016 0BD0     		beq	.L37
 557 0018 012B     		cmp	r3, #1
 558 001a 03D0     		beq	.L40
 559              	.L34:
 143:../../core/platform/octa/src/octa.c ****     {
 144:../../core/platform/octa/src/octa.c ****         case 1:
 145:../../core/platform/octa/src/octa.c ****             P1_SPI_Init();
 146:../../core/platform/octa/src/octa.c ****             break;
 147:../../core/platform/octa/src/octa.c ****         case 2:
 148:../../core/platform/octa/src/octa.c ****             P2_SPI_Init();
 149:../../core/platform/octa/src/octa.c ****             break;
 150:../../core/platform/octa/src/octa.c ****         case 3:
 151:../../core/platform/octa/src/octa.c ****             P3_SPI_Init();
 152:../../core/platform/octa/src/octa.c ****             break;
 153:../../core/platform/octa/src/octa.c ****         default:
 154:../../core/platform/octa/src/octa.c ****             break;
 155:../../core/platform/octa/src/octa.c ****     }
 156:../../core/platform/octa/src/octa.c **** }
 560              		.loc 1 156 0
 561 001c BDE80840 		pop	{r3, lr}
 562              	.LCFI17:
 563              		.cfi_remember_state
 564              		.cfi_restore 14
 565              		.cfi_restore 3
 566              		.cfi_def_cfa_offset 16
 567 0020 04B0     		add	sp, sp, #16
 568              	.LCFI18:
 569              		.cfi_def_cfa_offset 0
 570 0022 7047     		bx	lr
 571              	.L40:
 572              	.LCFI19:
 573              		.cfi_restore_state
 145:../../core/platform/octa/src/octa.c ****             break;
 574              		.loc 1 145 0
 575 0024 FFF7FEFF 		bl	P1_SPI_Init
 576              	.LVL25:
 146:../../core/platform/octa/src/octa.c ****         case 2:
 577              		.loc 1 146 0
 578 0028 F8E7     		b	.L34
 579              	.L36:
 148:../../core/platform/octa/src/octa.c ****             break;
 580              		.loc 1 148 0
 581 002a FFF7FEFF 		bl	P2_SPI_Init
 582              	.LVL26:
 149:../../core/platform/octa/src/octa.c ****         case 3:
 583              		.loc 1 149 0
 584 002e F5E7     		b	.L34
ARM GAS  /tmp/cc9Ltixj.s 			page 14


 585              	.L37:
 151:../../core/platform/octa/src/octa.c ****             break;
 586              		.loc 1 151 0
 587 0030 FFF7FEFF 		bl	P3_SPI_Init
 588              	.LVL27:
 589              		.loc 1 156 0
 590 0034 F2E7     		b	.L34
 591              		.cfi_endproc
 592              	.LFE137:
 594              		.section	.text.platform_getHeader,"ax",%progbits
 595              		.align	1
 596              		.global	platform_getHeader
 597              		.syntax unified
 598              		.thumb
 599              		.thumb_func
 600              		.fpu fpv4-sp-d16
 602              	platform_getHeader:
 603              	.LFB138:
 157:../../core/platform/octa/src/octa.c **** 
 158:../../core/platform/octa/src/octa.c **** struct OCTA_header platform_getHeader(uint8_t connector)
 159:../../core/platform/octa/src/octa.c **** {
 604              		.loc 1 159 0
 605              		.cfi_startproc
 606              		@ args = 0, pretend = 0, frame = 48
 607              		@ frame_needed = 0, uses_anonymous_args = 0
 608              	.LVL28:
 609 0000 70B5     		push	{r4, r5, r6, lr}
 610              	.LCFI20:
 611              		.cfi_def_cfa_offset 16
 612              		.cfi_offset 4, -16
 613              		.cfi_offset 5, -12
 614              		.cfi_offset 6, -8
 615              		.cfi_offset 14, -4
 616 0002 8CB0     		sub	sp, sp, #48
 617              	.LCFI21:
 618              		.cfi_def_cfa_offset 64
 619 0004 0546     		mov	r5, r0
 160:../../core/platform/octa/src/octa.c ****     switch (connector)
 620              		.loc 1 160 0
 621 0006 0229     		cmp	r1, #2
 622 0008 24D0     		beq	.L43
 623 000a 0329     		cmp	r1, #3
 624 000c 30D0     		beq	.L44
 625 000e 0129     		cmp	r1, #1
 626 0010 10D0     		beq	.L49
 627              	.LBB2:
 161:../../core/platform/octa/src/octa.c ****     {
 162:../../core/platform/octa/src/octa.c ****     case 1:
 163:../../core/platform/octa/src/octa.c ****         P1_header.active = 1;
 164:../../core/platform/octa/src/octa.c ****         return P1_header;
 165:../../core/platform/octa/src/octa.c ****     case 2:
 166:../../core/platform/octa/src/octa.c ****         P2_header.active = 1;
 167:../../core/platform/octa/src/octa.c ****         return P2_header;
 168:../../core/platform/octa/src/octa.c ****     case 3:
 169:../../core/platform/octa/src/octa.c ****         P3_header.active = 1;
 170:../../core/platform/octa/src/octa.c ****         return P3_header;
 171:../../core/platform/octa/src/octa.c ****     default:
ARM GAS  /tmp/cc9Ltixj.s 			page 15


 172:../../core/platform/octa/src/octa.c ****         //invalid connector
 173:../../core/platform/octa/src/octa.c ****         printf("Invalid connector\r\n");
 628              		.loc 1 173 0
 629 0012 1E48     		ldr	r0, .L50
 630              	.LVL29:
 631 0014 FFF7FEFF 		bl	puts
 632              	.LVL30:
 174:../../core/platform/octa/src/octa.c ****         struct OCTA_header invalid; 
 175:../../core/platform/octa/src/octa.c ****         invalid.active = 0;
 633              		.loc 1 175 0
 634 0018 0023     		movs	r3, #0
 635 001a 8DF82C30 		strb	r3, [sp, #44]
 176:../../core/platform/octa/src/octa.c ****         return invalid;
 636              		.loc 1 176 0
 637 001e 2C46     		mov	r4, r5
 638 0020 01AE     		add	r6, sp, #4
 639 0022 0FCE     		ldmia	r6!, {r0, r1, r2, r3}
 640 0024 0FC4     		stmia	r4!, {r0, r1, r2, r3}
 641 0026 0FCE     		ldmia	r6!, {r0, r1, r2, r3}
 642 0028 0FC4     		stmia	r4!, {r0, r1, r2, r3}
 643 002a 96E80700 		ldm	r6, {r0, r1, r2}
 644 002e 84E80700 		stm	r4, {r0, r1, r2}
 645 0032 0CE0     		b	.L41
 646              	.LVL31:
 647              	.L49:
 163:../../core/platform/octa/src/octa.c ****         return P1_header;
 648              		.loc 1 163 0
 649 0034 164C     		ldr	r4, .L50+4
 650 0036 0123     		movs	r3, #1
 651 0038 84F82830 		strb	r3, [r4, #40]
 164:../../core/platform/octa/src/octa.c ****     case 2:
 652              		.loc 1 164 0
 653 003c 0646     		mov	r6, r0
 654 003e 0FCC     		ldmia	r4!, {r0, r1, r2, r3}
 655              	.LVL32:
 656 0040 0FC6     		stmia	r6!, {r0, r1, r2, r3}
 657 0042 0FCC     		ldmia	r4!, {r0, r1, r2, r3}
 658 0044 0FC6     		stmia	r6!, {r0, r1, r2, r3}
 659 0046 94E80700 		ldm	r4, {r0, r1, r2}
 660 004a 86E80700 		stm	r6, {r0, r1, r2}
 661              	.L41:
 662              	.LBE2:
 177:../../core/platform/octa/src/octa.c ****     }
 178:../../core/platform/octa/src/octa.c **** }
 663              		.loc 1 178 0
 664 004e 2846     		mov	r0, r5
 665 0050 0CB0     		add	sp, sp, #48
 666              	.LCFI22:
 667              		.cfi_remember_state
 668              		.cfi_def_cfa_offset 16
 669              		@ sp needed
 670 0052 70BD     		pop	{r4, r5, r6, pc}
 671              	.LVL33:
 672              	.L43:
 673              	.LCFI23:
 674              		.cfi_restore_state
 675              	.LBB3:
ARM GAS  /tmp/cc9Ltixj.s 			page 16


 166:../../core/platform/octa/src/octa.c ****         return P2_header;
 676              		.loc 1 166 0
 677 0054 0F4C     		ldr	r4, .L50+8
 678 0056 0123     		movs	r3, #1
 679 0058 84F82830 		strb	r3, [r4, #40]
 167:../../core/platform/octa/src/octa.c ****     case 3:
 680              		.loc 1 167 0
 681 005c 0646     		mov	r6, r0
 682 005e 0FCC     		ldmia	r4!, {r0, r1, r2, r3}
 683              	.LVL34:
 684 0060 0FC6     		stmia	r6!, {r0, r1, r2, r3}
 685 0062 0FCC     		ldmia	r4!, {r0, r1, r2, r3}
 686 0064 0FC6     		stmia	r6!, {r0, r1, r2, r3}
 687 0066 94E80700 		ldm	r4, {r0, r1, r2}
 688 006a 86E80700 		stm	r6, {r0, r1, r2}
 689 006e EEE7     		b	.L41
 690              	.LVL35:
 691              	.L44:
 169:../../core/platform/octa/src/octa.c ****         return P3_header;
 692              		.loc 1 169 0
 693 0070 094C     		ldr	r4, .L50+12
 694 0072 0123     		movs	r3, #1
 695 0074 84F82830 		strb	r3, [r4, #40]
 170:../../core/platform/octa/src/octa.c ****     default:
 696              		.loc 1 170 0
 697 0078 0646     		mov	r6, r0
 698 007a 0FCC     		ldmia	r4!, {r0, r1, r2, r3}
 699              	.LVL36:
 700 007c 0FC6     		stmia	r6!, {r0, r1, r2, r3}
 701 007e 0FCC     		ldmia	r4!, {r0, r1, r2, r3}
 702 0080 0FC6     		stmia	r6!, {r0, r1, r2, r3}
 703 0082 94E80700 		ldm	r4, {r0, r1, r2}
 704 0086 86E80700 		stm	r6, {r0, r1, r2}
 705 008a E0E7     		b	.L41
 706              	.L51:
 707              		.align	2
 708              	.L50:
 709 008c 00000000 		.word	.LC0
 710 0090 00000000 		.word	P1_header
 711 0094 00000000 		.word	P2_header
 712 0098 00000000 		.word	P3_header
 713              	.LBE3:
 714              		.cfi_endproc
 715              	.LFE138:
 717              		.comm	P3_header,44,4
 718              		.comm	P2_header,44,4
 719              		.comm	P1_header,44,4
 720              		.comm	FLASH_SPI,100,4
 721              		.comm	P3_SPI,100,4
 722              		.comm	P2_SPI,100,4
 723              		.comm	P1_SPI,100,4
 724              		.comm	P3_I2C,76,4
 725              		.comm	P2_I2C,76,4
 726              		.comm	P1_I2C,76,4
 727              		.comm	common_I2C,76,4
 728              		.comm	P3_UART,120,4
 729              		.comm	P2_UART,120,4
ARM GAS  /tmp/cc9Ltixj.s 			page 17


 730              		.comm	P1_UART,120,4
 731              		.comm	BLE_UART,120,4
 732              		.comm	USB_UART,120,4
 733              		.comm	hiwdg,16,4
 734              		.comm	P3_DIO6,8,4
 735              		.comm	P3_DIO5,8,4
 736              		.comm	P3_DIO4,8,4
 737              		.comm	P3_DIO3,8,4
 738              		.comm	P3_DIO2,8,4
 739              		.comm	P3_DIO1,8,4
 740              		.comm	P2_DIO6,8,4
 741              		.comm	P2_DIO5,8,4
 742              		.comm	P2_DIO4,8,4
 743              		.comm	P2_DIO3,8,4
 744              		.comm	P2_DIO2,8,4
 745              		.comm	P2_DIO1,8,4
 746              		.comm	P1_DIO6,8,4
 747              		.comm	P1_DIO5,8,4
 748              		.comm	P1_DIO4,8,4
 749              		.comm	P1_DIO3,8,4
 750              		.comm	P1_DIO2,8,4
 751              		.comm	P1_DIO1,8,4
 752              		.section	.rodata.platform_getHeader.str1.4,"aMS",%progbits,1
 753              		.align	2
 754              	.LC0:
 755 0000 496E7661 		.ascii	"Invalid connector\015\000"
 755      6C696420 
 755      636F6E6E 
 755      6563746F 
 755      720D00
 756              		.text
 757              	.Letext0:
 758              		.file 2 "/usr/include/newlib/machine/_default_types.h"
 759              		.file 3 "/usr/include/newlib/sys/_stdint.h"
 760              		.file 4 "../../core/ST/CMSIS/Include/core_cm4.h"
 761              		.file 5 "../../core/ST/CMSIS/Device/ST/STM32L4xx/Include/system_stm32l4xx.h"
 762              		.file 6 "../../core/ST/CMSIS/Device/ST/STM32L4xx/Include/stm32l496xx.h"
 763              		.file 7 "../../core/ST/STM32L4xx_HAL_Driver/Inc/stm32l4xx_hal_def.h"
 764              		.file 8 "../../core/ST/STM32L4xx_HAL_Driver/Inc/stm32l4xx_hal_dma.h"
 765              		.file 9 "../../core/ST/STM32L4xx_HAL_Driver/Inc/stm32l4xx_hal_i2c.h"
 766              		.file 10 "../../core/ST/STM32L4xx_HAL_Driver/Inc/stm32l4xx_hal_iwdg.h"
 767              		.file 11 "../../core/ST/STM32L4xx_HAL_Driver/Inc/stm32l4xx_hal_spi.h"
 768              		.file 12 "../../core/ST/STM32L4xx_HAL_Driver/Inc/stm32l4xx_hal_uart.h"
 769              		.file 13 "../../core/ST/STM32L4xx_HAL_Driver/Inc/stm32l4xx_hal.h"
 770              		.file 14 "../../core/platform/octa/inc/gpio.h"
 771              		.file 15 "../../core/platform/octa/inc/iwdg.h"
 772              		.file 16 "../../core/platform/octa/inc/uart.h"
 773              		.file 17 "../../core/platform/octa/inc/i2c.h"
 774              		.file 18 "../../core/platform/octa/inc/spi.h"
 775              		.file 19 "../../core/platform/octa/inc/octa.h"
 776              		.file 20 "../../core/ST/STM32L4xx_HAL_Driver/Inc/stm32l4xx_hal_cortex.h"
 777              		.file 21 "<built-in>"
ARM GAS  /tmp/cc9Ltixj.s 			page 18

