ARM GAS  /tmp/ccmTrwWQ.s 			page 1


   1              		.cpu cortex-m4
   2              		.eabi_attribute 27, 1
   3              		.eabi_attribute 28, 1
   4              		.eabi_attribute 20, 1
   5              		.eabi_attribute 21, 1
   6              		.eabi_attribute 23, 3
   7              		.eabi_attribute 24, 1
   8              		.eabi_attribute 25, 1
   9              		.eabi_attribute 26, 1
  10              		.eabi_attribute 30, 1
  11              		.eabi_attribute 34, 1
  12              		.eabi_attribute 18, 4
  13              		.file	"stm32l4xx_hal_pwr_ex.c"
  14              		.text
  15              	.Ltext0:
  16              		.cfi_sections	.debug_frame
  17              		.section	.text.HAL_PWREx_GetVoltageRange,"ax",%progbits
  18              		.align	1
  19              		.global	HAL_PWREx_GetVoltageRange
  20              		.syntax unified
  21              		.thumb
  22              		.thumb_func
  23              		.fpu fpv4-sp-d16
  25              	HAL_PWREx_GetVoltageRange:
  26              	.LFB123:
  27              		.file 1 "../../core/ST/STM32L4xx_HAL_Driver/Src/stm32l4xx_hal_pwr_ex.c"
   1:../../core/ST/STM32L4xx_HAL_Driver/Src/stm32l4xx_hal_pwr_ex.c **** /**
   2:../../core/ST/STM32L4xx_HAL_Driver/Src/stm32l4xx_hal_pwr_ex.c ****   ******************************************************************************
   3:../../core/ST/STM32L4xx_HAL_Driver/Src/stm32l4xx_hal_pwr_ex.c ****   * @file    stm32l4xx_hal_pwr_ex.c
   4:../../core/ST/STM32L4xx_HAL_Driver/Src/stm32l4xx_hal_pwr_ex.c ****   * @author  MCD Application Team
   5:../../core/ST/STM32L4xx_HAL_Driver/Src/stm32l4xx_hal_pwr_ex.c ****   * @brief   Extended PWR HAL module driver.
   6:../../core/ST/STM32L4xx_HAL_Driver/Src/stm32l4xx_hal_pwr_ex.c ****   *          This file provides firmware functions to manage the following
   7:../../core/ST/STM32L4xx_HAL_Driver/Src/stm32l4xx_hal_pwr_ex.c ****   *          functionalities of the Power Controller (PWR) peripheral:
   8:../../core/ST/STM32L4xx_HAL_Driver/Src/stm32l4xx_hal_pwr_ex.c ****   *           + Extended Initialization and de-initialization functions
   9:../../core/ST/STM32L4xx_HAL_Driver/Src/stm32l4xx_hal_pwr_ex.c ****   *           + Extended Peripheral Control functions
  10:../../core/ST/STM32L4xx_HAL_Driver/Src/stm32l4xx_hal_pwr_ex.c ****   *
  11:../../core/ST/STM32L4xx_HAL_Driver/Src/stm32l4xx_hal_pwr_ex.c ****   ******************************************************************************
  12:../../core/ST/STM32L4xx_HAL_Driver/Src/stm32l4xx_hal_pwr_ex.c ****   * @attention
  13:../../core/ST/STM32L4xx_HAL_Driver/Src/stm32l4xx_hal_pwr_ex.c ****   *
  14:../../core/ST/STM32L4xx_HAL_Driver/Src/stm32l4xx_hal_pwr_ex.c ****   * <h2><center>&copy; COPYRIGHT(c) 2017 STMicroelectronics</center></h2>
  15:../../core/ST/STM32L4xx_HAL_Driver/Src/stm32l4xx_hal_pwr_ex.c ****   *
  16:../../core/ST/STM32L4xx_HAL_Driver/Src/stm32l4xx_hal_pwr_ex.c ****   * Redistribution and use in source and binary forms, with or without modification,
  17:../../core/ST/STM32L4xx_HAL_Driver/Src/stm32l4xx_hal_pwr_ex.c ****   * are permitted provided that the following conditions are met:
  18:../../core/ST/STM32L4xx_HAL_Driver/Src/stm32l4xx_hal_pwr_ex.c ****   *   1. Redistributions of source code must retain the above copyright notice,
  19:../../core/ST/STM32L4xx_HAL_Driver/Src/stm32l4xx_hal_pwr_ex.c ****   *      this list of conditions and the following disclaimer.
  20:../../core/ST/STM32L4xx_HAL_Driver/Src/stm32l4xx_hal_pwr_ex.c ****   *   2. Redistributions in binary form must reproduce the above copyright notice,
  21:../../core/ST/STM32L4xx_HAL_Driver/Src/stm32l4xx_hal_pwr_ex.c ****   *      this list of conditions and the following disclaimer in the documentation
  22:../../core/ST/STM32L4xx_HAL_Driver/Src/stm32l4xx_hal_pwr_ex.c ****   *      and/or other materials provided with the distribution.
  23:../../core/ST/STM32L4xx_HAL_Driver/Src/stm32l4xx_hal_pwr_ex.c ****   *   3. Neither the name of STMicroelectronics nor the names of its contributors
  24:../../core/ST/STM32L4xx_HAL_Driver/Src/stm32l4xx_hal_pwr_ex.c ****   *      may be used to endorse or promote products derived from this software
  25:../../core/ST/STM32L4xx_HAL_Driver/Src/stm32l4xx_hal_pwr_ex.c ****   *      without specific prior written permission.
  26:../../core/ST/STM32L4xx_HAL_Driver/Src/stm32l4xx_hal_pwr_ex.c ****   *
  27:../../core/ST/STM32L4xx_HAL_Driver/Src/stm32l4xx_hal_pwr_ex.c ****   * THIS SOFTWARE IS PROVIDED BY THE COPYRIGHT HOLDERS AND CONTRIBUTORS "AS IS"
  28:../../core/ST/STM32L4xx_HAL_Driver/Src/stm32l4xx_hal_pwr_ex.c ****   * AND ANY EXPRESS OR IMPLIED WARRANTIES, INCLUDING, BUT NOT LIMITED TO, THE
  29:../../core/ST/STM32L4xx_HAL_Driver/Src/stm32l4xx_hal_pwr_ex.c ****   * IMPLIED WARRANTIES OF MERCHANTABILITY AND FITNESS FOR A PARTICULAR PURPOSE ARE
  30:../../core/ST/STM32L4xx_HAL_Driver/Src/stm32l4xx_hal_pwr_ex.c ****   * DISCLAIMED. IN NO EVENT SHALL THE COPYRIGHT HOLDER OR CONTRIBUTORS BE LIABLE
  31:../../core/ST/STM32L4xx_HAL_Driver/Src/stm32l4xx_hal_pwr_ex.c ****   * FOR ANY DIRECT, INDIRECT, INCIDENTAL, SPECIAL, EXEMPLARY, OR CONSEQUENTIAL
ARM GAS  /tmp/ccmTrwWQ.s 			page 2


  32:../../core/ST/STM32L4xx_HAL_Driver/Src/stm32l4xx_hal_pwr_ex.c ****   * DAMAGES (INCLUDING, BUT NOT LIMITED TO, PROCUREMENT OF SUBSTITUTE GOODS OR
  33:../../core/ST/STM32L4xx_HAL_Driver/Src/stm32l4xx_hal_pwr_ex.c ****   * SERVICES; LOSS OF USE, DATA, OR PROFITS; OR BUSINESS INTERRUPTION) HOWEVER
  34:../../core/ST/STM32L4xx_HAL_Driver/Src/stm32l4xx_hal_pwr_ex.c ****   * CAUSED AND ON ANY THEORY OF LIABILITY, WHETHER IN CONTRACT, STRICT LIABILITY,
  35:../../core/ST/STM32L4xx_HAL_Driver/Src/stm32l4xx_hal_pwr_ex.c ****   * OR TORT (INCLUDING NEGLIGENCE OR OTHERWISE) ARISING IN ANY WAY OUT OF THE USE
  36:../../core/ST/STM32L4xx_HAL_Driver/Src/stm32l4xx_hal_pwr_ex.c ****   * OF THIS SOFTWARE, EVEN IF ADVISED OF THE POSSIBILITY OF SUCH DAMAGE.
  37:../../core/ST/STM32L4xx_HAL_Driver/Src/stm32l4xx_hal_pwr_ex.c ****   *
  38:../../core/ST/STM32L4xx_HAL_Driver/Src/stm32l4xx_hal_pwr_ex.c ****   ******************************************************************************
  39:../../core/ST/STM32L4xx_HAL_Driver/Src/stm32l4xx_hal_pwr_ex.c ****   */
  40:../../core/ST/STM32L4xx_HAL_Driver/Src/stm32l4xx_hal_pwr_ex.c **** 
  41:../../core/ST/STM32L4xx_HAL_Driver/Src/stm32l4xx_hal_pwr_ex.c **** /* Includes ------------------------------------------------------------------*/
  42:../../core/ST/STM32L4xx_HAL_Driver/Src/stm32l4xx_hal_pwr_ex.c **** #include "stm32l4xx_hal.h"
  43:../../core/ST/STM32L4xx_HAL_Driver/Src/stm32l4xx_hal_pwr_ex.c **** 
  44:../../core/ST/STM32L4xx_HAL_Driver/Src/stm32l4xx_hal_pwr_ex.c **** /** @addtogroup STM32L4xx_HAL_Driver
  45:../../core/ST/STM32L4xx_HAL_Driver/Src/stm32l4xx_hal_pwr_ex.c ****   * @{
  46:../../core/ST/STM32L4xx_HAL_Driver/Src/stm32l4xx_hal_pwr_ex.c ****   */
  47:../../core/ST/STM32L4xx_HAL_Driver/Src/stm32l4xx_hal_pwr_ex.c **** 
  48:../../core/ST/STM32L4xx_HAL_Driver/Src/stm32l4xx_hal_pwr_ex.c **** /** @defgroup PWREx PWREx
  49:../../core/ST/STM32L4xx_HAL_Driver/Src/stm32l4xx_hal_pwr_ex.c ****   * @brief PWR Extended HAL module driver
  50:../../core/ST/STM32L4xx_HAL_Driver/Src/stm32l4xx_hal_pwr_ex.c ****   * @{
  51:../../core/ST/STM32L4xx_HAL_Driver/Src/stm32l4xx_hal_pwr_ex.c ****   */
  52:../../core/ST/STM32L4xx_HAL_Driver/Src/stm32l4xx_hal_pwr_ex.c **** 
  53:../../core/ST/STM32L4xx_HAL_Driver/Src/stm32l4xx_hal_pwr_ex.c **** #ifdef HAL_PWR_MODULE_ENABLED
  54:../../core/ST/STM32L4xx_HAL_Driver/Src/stm32l4xx_hal_pwr_ex.c **** 
  55:../../core/ST/STM32L4xx_HAL_Driver/Src/stm32l4xx_hal_pwr_ex.c **** /* Private typedef -----------------------------------------------------------*/
  56:../../core/ST/STM32L4xx_HAL_Driver/Src/stm32l4xx_hal_pwr_ex.c **** /* Private define ------------------------------------------------------------*/
  57:../../core/ST/STM32L4xx_HAL_Driver/Src/stm32l4xx_hal_pwr_ex.c **** 
  58:../../core/ST/STM32L4xx_HAL_Driver/Src/stm32l4xx_hal_pwr_ex.c **** #if defined (STM32L412xx) || defined (STM32L422xx) || defined (STM32L431xx) || defined (STM32L432xx
  59:../../core/ST/STM32L4xx_HAL_Driver/Src/stm32l4xx_hal_pwr_ex.c **** #define PWR_PORTH_AVAILABLE_PINS   ((uint32_t)0x0000000B) /* PH0/PH1/PH3 */
  60:../../core/ST/STM32L4xx_HAL_Driver/Src/stm32l4xx_hal_pwr_ex.c **** #elif defined (STM32L451xx) || defined (STM32L452xx) || defined (STM32L462xx)
  61:../../core/ST/STM32L4xx_HAL_Driver/Src/stm32l4xx_hal_pwr_ex.c **** #define PWR_PORTH_AVAILABLE_PINS   ((uint32_t)0x0000000B) /* PH0/PH1/PH3 */
  62:../../core/ST/STM32L4xx_HAL_Driver/Src/stm32l4xx_hal_pwr_ex.c **** #elif defined (STM32L471xx) || defined (STM32L475xx) || defined (STM32L476xx) || defined (STM32L485
  63:../../core/ST/STM32L4xx_HAL_Driver/Src/stm32l4xx_hal_pwr_ex.c **** #define PWR_PORTH_AVAILABLE_PINS   ((uint32_t)0x00000003) /* PH0/PH1 */
  64:../../core/ST/STM32L4xx_HAL_Driver/Src/stm32l4xx_hal_pwr_ex.c **** #elif defined (STM32L496xx) || defined (STM32L4A6xx) || defined (STM32L4R5xx) || defined (STM32L4R7
  65:../../core/ST/STM32L4xx_HAL_Driver/Src/stm32l4xx_hal_pwr_ex.c **** #define PWR_PORTH_AVAILABLE_PINS   ((uint32_t)0x0000FFFF) /* PH0..PH15 */
  66:../../core/ST/STM32L4xx_HAL_Driver/Src/stm32l4xx_hal_pwr_ex.c **** #endif
  67:../../core/ST/STM32L4xx_HAL_Driver/Src/stm32l4xx_hal_pwr_ex.c **** 
  68:../../core/ST/STM32L4xx_HAL_Driver/Src/stm32l4xx_hal_pwr_ex.c **** #if defined (STM32L496xx) || defined (STM32L4A6xx) || defined (STM32L4R5xx) || defined (STM32L4R7xx
  69:../../core/ST/STM32L4xx_HAL_Driver/Src/stm32l4xx_hal_pwr_ex.c **** #define PWR_PORTI_AVAILABLE_PINS   ((uint32_t)0x00000FFF) /* PI0..PI11 */
  70:../../core/ST/STM32L4xx_HAL_Driver/Src/stm32l4xx_hal_pwr_ex.c **** #endif
  71:../../core/ST/STM32L4xx_HAL_Driver/Src/stm32l4xx_hal_pwr_ex.c **** 
  72:../../core/ST/STM32L4xx_HAL_Driver/Src/stm32l4xx_hal_pwr_ex.c **** /** @defgroup PWR_Extended_Private_Defines PWR Extended Private Defines
  73:../../core/ST/STM32L4xx_HAL_Driver/Src/stm32l4xx_hal_pwr_ex.c ****   * @{
  74:../../core/ST/STM32L4xx_HAL_Driver/Src/stm32l4xx_hal_pwr_ex.c ****   */
  75:../../core/ST/STM32L4xx_HAL_Driver/Src/stm32l4xx_hal_pwr_ex.c **** 
  76:../../core/ST/STM32L4xx_HAL_Driver/Src/stm32l4xx_hal_pwr_ex.c **** /** @defgroup PWREx_PVM_Mode_Mask PWR PVM Mode Mask
  77:../../core/ST/STM32L4xx_HAL_Driver/Src/stm32l4xx_hal_pwr_ex.c ****   * @{
  78:../../core/ST/STM32L4xx_HAL_Driver/Src/stm32l4xx_hal_pwr_ex.c ****   */
  79:../../core/ST/STM32L4xx_HAL_Driver/Src/stm32l4xx_hal_pwr_ex.c **** #define PVM_MODE_IT               ((uint32_t)0x00010000)  /*!< Mask for interruption yielded by PVM
  80:../../core/ST/STM32L4xx_HAL_Driver/Src/stm32l4xx_hal_pwr_ex.c **** #define PVM_MODE_EVT              ((uint32_t)0x00020000)  /*!< Mask for event yielded by PVM thresh
  81:../../core/ST/STM32L4xx_HAL_Driver/Src/stm32l4xx_hal_pwr_ex.c **** #define PVM_RISING_EDGE           ((uint32_t)0x00000001)  /*!< Mask for rising edge set as PVM trig
  82:../../core/ST/STM32L4xx_HAL_Driver/Src/stm32l4xx_hal_pwr_ex.c **** #define PVM_FALLING_EDGE          ((uint32_t)0x00000002)  /*!< Mask for falling edge set as PVM tri
  83:../../core/ST/STM32L4xx_HAL_Driver/Src/stm32l4xx_hal_pwr_ex.c **** /**
  84:../../core/ST/STM32L4xx_HAL_Driver/Src/stm32l4xx_hal_pwr_ex.c ****   * @}
  85:../../core/ST/STM32L4xx_HAL_Driver/Src/stm32l4xx_hal_pwr_ex.c ****   */
  86:../../core/ST/STM32L4xx_HAL_Driver/Src/stm32l4xx_hal_pwr_ex.c **** 
  87:../../core/ST/STM32L4xx_HAL_Driver/Src/stm32l4xx_hal_pwr_ex.c **** /** @defgroup PWREx_TimeOut_Value PWR Extended Flag Setting Time Out Value
  88:../../core/ST/STM32L4xx_HAL_Driver/Src/stm32l4xx_hal_pwr_ex.c ****   * @{
ARM GAS  /tmp/ccmTrwWQ.s 			page 3


  89:../../core/ST/STM32L4xx_HAL_Driver/Src/stm32l4xx_hal_pwr_ex.c ****   */
  90:../../core/ST/STM32L4xx_HAL_Driver/Src/stm32l4xx_hal_pwr_ex.c **** #define PWR_FLAG_SETTING_DELAY_US                      50UL   /*!< Time out value for REGLPF and VO
  91:../../core/ST/STM32L4xx_HAL_Driver/Src/stm32l4xx_hal_pwr_ex.c **** /**
  92:../../core/ST/STM32L4xx_HAL_Driver/Src/stm32l4xx_hal_pwr_ex.c ****   * @}
  93:../../core/ST/STM32L4xx_HAL_Driver/Src/stm32l4xx_hal_pwr_ex.c ****   */
  94:../../core/ST/STM32L4xx_HAL_Driver/Src/stm32l4xx_hal_pwr_ex.c **** 
  95:../../core/ST/STM32L4xx_HAL_Driver/Src/stm32l4xx_hal_pwr_ex.c **** 
  96:../../core/ST/STM32L4xx_HAL_Driver/Src/stm32l4xx_hal_pwr_ex.c **** 
  97:../../core/ST/STM32L4xx_HAL_Driver/Src/stm32l4xx_hal_pwr_ex.c **** /**
  98:../../core/ST/STM32L4xx_HAL_Driver/Src/stm32l4xx_hal_pwr_ex.c ****   * @}
  99:../../core/ST/STM32L4xx_HAL_Driver/Src/stm32l4xx_hal_pwr_ex.c ****   */
 100:../../core/ST/STM32L4xx_HAL_Driver/Src/stm32l4xx_hal_pwr_ex.c **** 
 101:../../core/ST/STM32L4xx_HAL_Driver/Src/stm32l4xx_hal_pwr_ex.c **** 
 102:../../core/ST/STM32L4xx_HAL_Driver/Src/stm32l4xx_hal_pwr_ex.c **** 
 103:../../core/ST/STM32L4xx_HAL_Driver/Src/stm32l4xx_hal_pwr_ex.c **** /* Private macro -------------------------------------------------------------*/
 104:../../core/ST/STM32L4xx_HAL_Driver/Src/stm32l4xx_hal_pwr_ex.c **** /* Private variables ---------------------------------------------------------*/
 105:../../core/ST/STM32L4xx_HAL_Driver/Src/stm32l4xx_hal_pwr_ex.c **** /* Private function prototypes -----------------------------------------------*/
 106:../../core/ST/STM32L4xx_HAL_Driver/Src/stm32l4xx_hal_pwr_ex.c **** /* Exported functions --------------------------------------------------------*/
 107:../../core/ST/STM32L4xx_HAL_Driver/Src/stm32l4xx_hal_pwr_ex.c **** 
 108:../../core/ST/STM32L4xx_HAL_Driver/Src/stm32l4xx_hal_pwr_ex.c **** /** @defgroup PWREx_Exported_Functions PWR Extended Exported Functions
 109:../../core/ST/STM32L4xx_HAL_Driver/Src/stm32l4xx_hal_pwr_ex.c ****   * @{
 110:../../core/ST/STM32L4xx_HAL_Driver/Src/stm32l4xx_hal_pwr_ex.c ****   */
 111:../../core/ST/STM32L4xx_HAL_Driver/Src/stm32l4xx_hal_pwr_ex.c **** 
 112:../../core/ST/STM32L4xx_HAL_Driver/Src/stm32l4xx_hal_pwr_ex.c **** /** @defgroup PWREx_Exported_Functions_Group1 Extended Peripheral Control functions
 113:../../core/ST/STM32L4xx_HAL_Driver/Src/stm32l4xx_hal_pwr_ex.c ****   *  @brief   Extended Peripheral Control functions
 114:../../core/ST/STM32L4xx_HAL_Driver/Src/stm32l4xx_hal_pwr_ex.c ****   *
 115:../../core/ST/STM32L4xx_HAL_Driver/Src/stm32l4xx_hal_pwr_ex.c **** @verbatim
 116:../../core/ST/STM32L4xx_HAL_Driver/Src/stm32l4xx_hal_pwr_ex.c ****  ===============================================================================
 117:../../core/ST/STM32L4xx_HAL_Driver/Src/stm32l4xx_hal_pwr_ex.c ****               ##### Extended Peripheral Initialization and de-initialization functions #####
 118:../../core/ST/STM32L4xx_HAL_Driver/Src/stm32l4xx_hal_pwr_ex.c ****  ===============================================================================
 119:../../core/ST/STM32L4xx_HAL_Driver/Src/stm32l4xx_hal_pwr_ex.c ****     [..]
 120:../../core/ST/STM32L4xx_HAL_Driver/Src/stm32l4xx_hal_pwr_ex.c **** 
 121:../../core/ST/STM32L4xx_HAL_Driver/Src/stm32l4xx_hal_pwr_ex.c **** @endverbatim
 122:../../core/ST/STM32L4xx_HAL_Driver/Src/stm32l4xx_hal_pwr_ex.c ****   * @{
 123:../../core/ST/STM32L4xx_HAL_Driver/Src/stm32l4xx_hal_pwr_ex.c ****   */
 124:../../core/ST/STM32L4xx_HAL_Driver/Src/stm32l4xx_hal_pwr_ex.c **** 
 125:../../core/ST/STM32L4xx_HAL_Driver/Src/stm32l4xx_hal_pwr_ex.c **** 
 126:../../core/ST/STM32L4xx_HAL_Driver/Src/stm32l4xx_hal_pwr_ex.c **** /**
 127:../../core/ST/STM32L4xx_HAL_Driver/Src/stm32l4xx_hal_pwr_ex.c ****   * @brief Return Voltage Scaling Range.
 128:../../core/ST/STM32L4xx_HAL_Driver/Src/stm32l4xx_hal_pwr_ex.c ****   * @retval VOS bit field (PWR_REGULATOR_VOLTAGE_RANGE1 or PWR_REGULATOR_VOLTAGE_RANGE2
 129:../../core/ST/STM32L4xx_HAL_Driver/Src/stm32l4xx_hal_pwr_ex.c ****   *         or PWR_REGULATOR_VOLTAGE_SCALE1_BOOST when applicable)
 130:../../core/ST/STM32L4xx_HAL_Driver/Src/stm32l4xx_hal_pwr_ex.c ****   */
 131:../../core/ST/STM32L4xx_HAL_Driver/Src/stm32l4xx_hal_pwr_ex.c **** uint32_t HAL_PWREx_GetVoltageRange(void)
 132:../../core/ST/STM32L4xx_HAL_Driver/Src/stm32l4xx_hal_pwr_ex.c **** {
  28              		.loc 1 132 0
  29              		.cfi_startproc
  30              		@ args = 0, pretend = 0, frame = 0
  31              		@ frame_needed = 0, uses_anonymous_args = 0
  32              		@ link register save eliminated.
 133:../../core/ST/STM32L4xx_HAL_Driver/Src/stm32l4xx_hal_pwr_ex.c **** #if defined(PWR_CR5_R1MODE)
 134:../../core/ST/STM32L4xx_HAL_Driver/Src/stm32l4xx_hal_pwr_ex.c ****     if (READ_BIT(PWR->CR1, PWR_CR1_VOS) == PWR_REGULATOR_VOLTAGE_SCALE2)
 135:../../core/ST/STM32L4xx_HAL_Driver/Src/stm32l4xx_hal_pwr_ex.c ****     {
 136:../../core/ST/STM32L4xx_HAL_Driver/Src/stm32l4xx_hal_pwr_ex.c ****       return PWR_REGULATOR_VOLTAGE_SCALE2;
 137:../../core/ST/STM32L4xx_HAL_Driver/Src/stm32l4xx_hal_pwr_ex.c ****     }
 138:../../core/ST/STM32L4xx_HAL_Driver/Src/stm32l4xx_hal_pwr_ex.c ****     else if (READ_BIT(PWR->CR5, PWR_CR5_R1MODE) == PWR_CR5_R1MODE)
 139:../../core/ST/STM32L4xx_HAL_Driver/Src/stm32l4xx_hal_pwr_ex.c ****     {
 140:../../core/ST/STM32L4xx_HAL_Driver/Src/stm32l4xx_hal_pwr_ex.c ****       /* PWR_CR5_R1MODE bit set means that Range 1 Boost is disabled */
ARM GAS  /tmp/ccmTrwWQ.s 			page 4


 141:../../core/ST/STM32L4xx_HAL_Driver/Src/stm32l4xx_hal_pwr_ex.c ****       return PWR_REGULATOR_VOLTAGE_SCALE1;
 142:../../core/ST/STM32L4xx_HAL_Driver/Src/stm32l4xx_hal_pwr_ex.c ****     }
 143:../../core/ST/STM32L4xx_HAL_Driver/Src/stm32l4xx_hal_pwr_ex.c ****     else
 144:../../core/ST/STM32L4xx_HAL_Driver/Src/stm32l4xx_hal_pwr_ex.c ****     {
 145:../../core/ST/STM32L4xx_HAL_Driver/Src/stm32l4xx_hal_pwr_ex.c ****       return PWR_REGULATOR_VOLTAGE_SCALE1_BOOST;
 146:../../core/ST/STM32L4xx_HAL_Driver/Src/stm32l4xx_hal_pwr_ex.c ****     }
 147:../../core/ST/STM32L4xx_HAL_Driver/Src/stm32l4xx_hal_pwr_ex.c **** #else
 148:../../core/ST/STM32L4xx_HAL_Driver/Src/stm32l4xx_hal_pwr_ex.c ****   return  (PWR->CR1 & PWR_CR1_VOS);
  33              		.loc 1 148 0
  34 0000 024B     		ldr	r3, .L2
  35 0002 1868     		ldr	r0, [r3]
 149:../../core/ST/STM32L4xx_HAL_Driver/Src/stm32l4xx_hal_pwr_ex.c **** #endif
 150:../../core/ST/STM32L4xx_HAL_Driver/Src/stm32l4xx_hal_pwr_ex.c **** }
  36              		.loc 1 150 0
  37 0004 00F4C060 		and	r0, r0, #1536
  38 0008 7047     		bx	lr
  39              	.L3:
  40 000a 00BF     		.align	2
  41              	.L2:
  42 000c 00700040 		.word	1073770496
  43              		.cfi_endproc
  44              	.LFE123:
  46              		.section	.text.HAL_PWREx_ControlVoltageScaling,"ax",%progbits
  47              		.align	1
  48              		.global	HAL_PWREx_ControlVoltageScaling
  49              		.syntax unified
  50              		.thumb
  51              		.thumb_func
  52              		.fpu fpv4-sp-d16
  54              	HAL_PWREx_ControlVoltageScaling:
  55              	.LFB124:
 151:../../core/ST/STM32L4xx_HAL_Driver/Src/stm32l4xx_hal_pwr_ex.c **** 
 152:../../core/ST/STM32L4xx_HAL_Driver/Src/stm32l4xx_hal_pwr_ex.c **** 
 153:../../core/ST/STM32L4xx_HAL_Driver/Src/stm32l4xx_hal_pwr_ex.c **** 
 154:../../core/ST/STM32L4xx_HAL_Driver/Src/stm32l4xx_hal_pwr_ex.c **** /**
 155:../../core/ST/STM32L4xx_HAL_Driver/Src/stm32l4xx_hal_pwr_ex.c ****   * @brief Configure the main internal regulator output voltage.
 156:../../core/ST/STM32L4xx_HAL_Driver/Src/stm32l4xx_hal_pwr_ex.c ****   * @param  VoltageScaling: specifies the regulator output voltage to achieve
 157:../../core/ST/STM32L4xx_HAL_Driver/Src/stm32l4xx_hal_pwr_ex.c ****   *         a tradeoff between performance and power consumption.
 158:../../core/ST/STM32L4xx_HAL_Driver/Src/stm32l4xx_hal_pwr_ex.c ****   *          This parameter can be one of the following values:
 159:../../core/ST/STM32L4xx_HAL_Driver/Src/stm32l4xx_hal_pwr_ex.c ****   @if STM32L4S9xx
 160:../../core/ST/STM32L4xx_HAL_Driver/Src/stm32l4xx_hal_pwr_ex.c ****   *            @arg @ref PWR_REGULATOR_VOLTAGE_SCALE1_BOOST when available, Regulator voltage outpu
 161:../../core/ST/STM32L4xx_HAL_Driver/Src/stm32l4xx_hal_pwr_ex.c ****   *                                                typical output voltage at 1.2 V,
 162:../../core/ST/STM32L4xx_HAL_Driver/Src/stm32l4xx_hal_pwr_ex.c ****   *                                                system frequency up to 120 MHz.
 163:../../core/ST/STM32L4xx_HAL_Driver/Src/stm32l4xx_hal_pwr_ex.c ****   @endif
 164:../../core/ST/STM32L4xx_HAL_Driver/Src/stm32l4xx_hal_pwr_ex.c ****   *            @arg @ref PWR_REGULATOR_VOLTAGE_SCALE1 Regulator voltage output range 1 mode,
 165:../../core/ST/STM32L4xx_HAL_Driver/Src/stm32l4xx_hal_pwr_ex.c ****   *                                                typical output voltage at 1.2 V,
 166:../../core/ST/STM32L4xx_HAL_Driver/Src/stm32l4xx_hal_pwr_ex.c ****   *                                                system frequency up to 80 MHz.
 167:../../core/ST/STM32L4xx_HAL_Driver/Src/stm32l4xx_hal_pwr_ex.c ****   *            @arg @ref PWR_REGULATOR_VOLTAGE_SCALE2 Regulator voltage output range 2 mode,
 168:../../core/ST/STM32L4xx_HAL_Driver/Src/stm32l4xx_hal_pwr_ex.c ****   *                                                typical output voltage at 1.0 V,
 169:../../core/ST/STM32L4xx_HAL_Driver/Src/stm32l4xx_hal_pwr_ex.c ****   *                                                system frequency up to 26 MHz.
 170:../../core/ST/STM32L4xx_HAL_Driver/Src/stm32l4xx_hal_pwr_ex.c ****   * @note  When moving from Range 1 to Range 2, the system frequency must be decreased to
 171:../../core/ST/STM32L4xx_HAL_Driver/Src/stm32l4xx_hal_pwr_ex.c ****   *        a value below 26 MHz before calling HAL_PWREx_ControlVoltageScaling() API.
 172:../../core/ST/STM32L4xx_HAL_Driver/Src/stm32l4xx_hal_pwr_ex.c ****   *        When moving from Range 2 to Range 1, the system frequency can be increased to
 173:../../core/ST/STM32L4xx_HAL_Driver/Src/stm32l4xx_hal_pwr_ex.c ****   *        a value up to 80 MHz after calling HAL_PWREx_ControlVoltageScaling() API. For
 174:../../core/ST/STM32L4xx_HAL_Driver/Src/stm32l4xx_hal_pwr_ex.c ****   *        some devices, the system frequency can be increased up to 120 MHz.
 175:../../core/ST/STM32L4xx_HAL_Driver/Src/stm32l4xx_hal_pwr_ex.c ****   * @note  When moving from Range 2 to Range 1, the API waits for VOSF flag to be
 176:../../core/ST/STM32L4xx_HAL_Driver/Src/stm32l4xx_hal_pwr_ex.c ****   *        cleared before returning the status. If the flag is not cleared within
ARM GAS  /tmp/ccmTrwWQ.s 			page 5


 177:../../core/ST/STM32L4xx_HAL_Driver/Src/stm32l4xx_hal_pwr_ex.c ****   *        50 microseconds, HAL_TIMEOUT status is reported.
 178:../../core/ST/STM32L4xx_HAL_Driver/Src/stm32l4xx_hal_pwr_ex.c ****   * @retval HAL Status
 179:../../core/ST/STM32L4xx_HAL_Driver/Src/stm32l4xx_hal_pwr_ex.c ****   */
 180:../../core/ST/STM32L4xx_HAL_Driver/Src/stm32l4xx_hal_pwr_ex.c **** HAL_StatusTypeDef HAL_PWREx_ControlVoltageScaling(uint32_t VoltageScaling)
 181:../../core/ST/STM32L4xx_HAL_Driver/Src/stm32l4xx_hal_pwr_ex.c **** {
  56              		.loc 1 181 0
  57              		.cfi_startproc
  58              		@ args = 0, pretend = 0, frame = 0
  59              		@ frame_needed = 0, uses_anonymous_args = 0
  60              		@ link register save eliminated.
  61              	.LVL0:
 182:../../core/ST/STM32L4xx_HAL_Driver/Src/stm32l4xx_hal_pwr_ex.c ****   uint32_t wait_loop_index;
 183:../../core/ST/STM32L4xx_HAL_Driver/Src/stm32l4xx_hal_pwr_ex.c **** 
 184:../../core/ST/STM32L4xx_HAL_Driver/Src/stm32l4xx_hal_pwr_ex.c ****   assert_param(IS_PWR_VOLTAGE_SCALING_RANGE(VoltageScaling));
 185:../../core/ST/STM32L4xx_HAL_Driver/Src/stm32l4xx_hal_pwr_ex.c **** 
 186:../../core/ST/STM32L4xx_HAL_Driver/Src/stm32l4xx_hal_pwr_ex.c **** #if defined(PWR_CR5_R1MODE)
 187:../../core/ST/STM32L4xx_HAL_Driver/Src/stm32l4xx_hal_pwr_ex.c ****   if (VoltageScaling == PWR_REGULATOR_VOLTAGE_SCALE1_BOOST)
 188:../../core/ST/STM32L4xx_HAL_Driver/Src/stm32l4xx_hal_pwr_ex.c ****   {
 189:../../core/ST/STM32L4xx_HAL_Driver/Src/stm32l4xx_hal_pwr_ex.c ****     /* If current range is range 2 */
 190:../../core/ST/STM32L4xx_HAL_Driver/Src/stm32l4xx_hal_pwr_ex.c ****     if (READ_BIT(PWR->CR1, PWR_CR1_VOS) == PWR_REGULATOR_VOLTAGE_SCALE2)
 191:../../core/ST/STM32L4xx_HAL_Driver/Src/stm32l4xx_hal_pwr_ex.c ****     {
 192:../../core/ST/STM32L4xx_HAL_Driver/Src/stm32l4xx_hal_pwr_ex.c ****       /* Make sure Range 1 Boost is enabled */
 193:../../core/ST/STM32L4xx_HAL_Driver/Src/stm32l4xx_hal_pwr_ex.c ****       CLEAR_BIT(PWR->CR5, PWR_CR5_R1MODE);
 194:../../core/ST/STM32L4xx_HAL_Driver/Src/stm32l4xx_hal_pwr_ex.c **** 
 195:../../core/ST/STM32L4xx_HAL_Driver/Src/stm32l4xx_hal_pwr_ex.c ****       /* Set Range 1 */
 196:../../core/ST/STM32L4xx_HAL_Driver/Src/stm32l4xx_hal_pwr_ex.c ****       MODIFY_REG(PWR->CR1, PWR_CR1_VOS, PWR_REGULATOR_VOLTAGE_SCALE1);
 197:../../core/ST/STM32L4xx_HAL_Driver/Src/stm32l4xx_hal_pwr_ex.c **** 
 198:../../core/ST/STM32L4xx_HAL_Driver/Src/stm32l4xx_hal_pwr_ex.c ****       /* Wait until VOSF is cleared */
 199:../../core/ST/STM32L4xx_HAL_Driver/Src/stm32l4xx_hal_pwr_ex.c ****       wait_loop_index = ((PWR_FLAG_SETTING_DELAY_US * SystemCoreClock) / 1000000U) + 1;
 200:../../core/ST/STM32L4xx_HAL_Driver/Src/stm32l4xx_hal_pwr_ex.c ****       while ((HAL_IS_BIT_SET(PWR->SR2, PWR_SR2_VOSF)) && (wait_loop_index != 0U))
 201:../../core/ST/STM32L4xx_HAL_Driver/Src/stm32l4xx_hal_pwr_ex.c ****       {
 202:../../core/ST/STM32L4xx_HAL_Driver/Src/stm32l4xx_hal_pwr_ex.c ****         wait_loop_index--;
 203:../../core/ST/STM32L4xx_HAL_Driver/Src/stm32l4xx_hal_pwr_ex.c ****       }
 204:../../core/ST/STM32L4xx_HAL_Driver/Src/stm32l4xx_hal_pwr_ex.c ****       if (HAL_IS_BIT_SET(PWR->SR2, PWR_SR2_VOSF))
 205:../../core/ST/STM32L4xx_HAL_Driver/Src/stm32l4xx_hal_pwr_ex.c ****       {
 206:../../core/ST/STM32L4xx_HAL_Driver/Src/stm32l4xx_hal_pwr_ex.c ****         return HAL_TIMEOUT;
 207:../../core/ST/STM32L4xx_HAL_Driver/Src/stm32l4xx_hal_pwr_ex.c ****       }
 208:../../core/ST/STM32L4xx_HAL_Driver/Src/stm32l4xx_hal_pwr_ex.c ****     }
 209:../../core/ST/STM32L4xx_HAL_Driver/Src/stm32l4xx_hal_pwr_ex.c ****     /* If current range is range 1 normal or boost mode */
 210:../../core/ST/STM32L4xx_HAL_Driver/Src/stm32l4xx_hal_pwr_ex.c ****     else
 211:../../core/ST/STM32L4xx_HAL_Driver/Src/stm32l4xx_hal_pwr_ex.c ****     {
 212:../../core/ST/STM32L4xx_HAL_Driver/Src/stm32l4xx_hal_pwr_ex.c ****       /* Enable Range 1 Boost (no issue if bit already reset) */
 213:../../core/ST/STM32L4xx_HAL_Driver/Src/stm32l4xx_hal_pwr_ex.c ****       CLEAR_BIT(PWR->CR5, PWR_CR5_R1MODE);
 214:../../core/ST/STM32L4xx_HAL_Driver/Src/stm32l4xx_hal_pwr_ex.c ****     }
 215:../../core/ST/STM32L4xx_HAL_Driver/Src/stm32l4xx_hal_pwr_ex.c ****   }
 216:../../core/ST/STM32L4xx_HAL_Driver/Src/stm32l4xx_hal_pwr_ex.c ****   else if (VoltageScaling == PWR_REGULATOR_VOLTAGE_SCALE1)
 217:../../core/ST/STM32L4xx_HAL_Driver/Src/stm32l4xx_hal_pwr_ex.c ****   {
 218:../../core/ST/STM32L4xx_HAL_Driver/Src/stm32l4xx_hal_pwr_ex.c ****     /* If current range is range 2 */
 219:../../core/ST/STM32L4xx_HAL_Driver/Src/stm32l4xx_hal_pwr_ex.c ****     if (READ_BIT(PWR->CR1, PWR_CR1_VOS) == PWR_REGULATOR_VOLTAGE_SCALE2)
 220:../../core/ST/STM32L4xx_HAL_Driver/Src/stm32l4xx_hal_pwr_ex.c ****     {
 221:../../core/ST/STM32L4xx_HAL_Driver/Src/stm32l4xx_hal_pwr_ex.c ****       /* Make sure Range 1 Boost is disabled */
 222:../../core/ST/STM32L4xx_HAL_Driver/Src/stm32l4xx_hal_pwr_ex.c ****       SET_BIT(PWR->CR5, PWR_CR5_R1MODE);
 223:../../core/ST/STM32L4xx_HAL_Driver/Src/stm32l4xx_hal_pwr_ex.c **** 
 224:../../core/ST/STM32L4xx_HAL_Driver/Src/stm32l4xx_hal_pwr_ex.c ****       /* Set Range 1 */
 225:../../core/ST/STM32L4xx_HAL_Driver/Src/stm32l4xx_hal_pwr_ex.c ****       MODIFY_REG(PWR->CR1, PWR_CR1_VOS, PWR_REGULATOR_VOLTAGE_SCALE1);
 226:../../core/ST/STM32L4xx_HAL_Driver/Src/stm32l4xx_hal_pwr_ex.c **** 
 227:../../core/ST/STM32L4xx_HAL_Driver/Src/stm32l4xx_hal_pwr_ex.c ****       /* Wait until VOSF is cleared */
ARM GAS  /tmp/ccmTrwWQ.s 			page 6


 228:../../core/ST/STM32L4xx_HAL_Driver/Src/stm32l4xx_hal_pwr_ex.c ****       wait_loop_index = ((PWR_FLAG_SETTING_DELAY_US * SystemCoreClock) / 1000000U) + 1;
 229:../../core/ST/STM32L4xx_HAL_Driver/Src/stm32l4xx_hal_pwr_ex.c ****       while ((HAL_IS_BIT_SET(PWR->SR2, PWR_SR2_VOSF)) && (wait_loop_index != 0U))
 230:../../core/ST/STM32L4xx_HAL_Driver/Src/stm32l4xx_hal_pwr_ex.c ****       {
 231:../../core/ST/STM32L4xx_HAL_Driver/Src/stm32l4xx_hal_pwr_ex.c ****         wait_loop_index--;
 232:../../core/ST/STM32L4xx_HAL_Driver/Src/stm32l4xx_hal_pwr_ex.c ****       }
 233:../../core/ST/STM32L4xx_HAL_Driver/Src/stm32l4xx_hal_pwr_ex.c ****       if (HAL_IS_BIT_SET(PWR->SR2, PWR_SR2_VOSF))
 234:../../core/ST/STM32L4xx_HAL_Driver/Src/stm32l4xx_hal_pwr_ex.c ****       {
 235:../../core/ST/STM32L4xx_HAL_Driver/Src/stm32l4xx_hal_pwr_ex.c ****         return HAL_TIMEOUT;
 236:../../core/ST/STM32L4xx_HAL_Driver/Src/stm32l4xx_hal_pwr_ex.c ****       }
 237:../../core/ST/STM32L4xx_HAL_Driver/Src/stm32l4xx_hal_pwr_ex.c ****     }
 238:../../core/ST/STM32L4xx_HAL_Driver/Src/stm32l4xx_hal_pwr_ex.c ****      /* If current range is range 1 normal or boost mode */
 239:../../core/ST/STM32L4xx_HAL_Driver/Src/stm32l4xx_hal_pwr_ex.c ****     else
 240:../../core/ST/STM32L4xx_HAL_Driver/Src/stm32l4xx_hal_pwr_ex.c ****     {
 241:../../core/ST/STM32L4xx_HAL_Driver/Src/stm32l4xx_hal_pwr_ex.c ****       /* Disable Range 1 Boost (no issue if bit already set) */
 242:../../core/ST/STM32L4xx_HAL_Driver/Src/stm32l4xx_hal_pwr_ex.c ****       SET_BIT(PWR->CR5, PWR_CR5_R1MODE);
 243:../../core/ST/STM32L4xx_HAL_Driver/Src/stm32l4xx_hal_pwr_ex.c ****     }
 244:../../core/ST/STM32L4xx_HAL_Driver/Src/stm32l4xx_hal_pwr_ex.c ****   }
 245:../../core/ST/STM32L4xx_HAL_Driver/Src/stm32l4xx_hal_pwr_ex.c ****   else
 246:../../core/ST/STM32L4xx_HAL_Driver/Src/stm32l4xx_hal_pwr_ex.c ****   {
 247:../../core/ST/STM32L4xx_HAL_Driver/Src/stm32l4xx_hal_pwr_ex.c ****     /* Set Range 2 */
 248:../../core/ST/STM32L4xx_HAL_Driver/Src/stm32l4xx_hal_pwr_ex.c ****     MODIFY_REG(PWR->CR1, PWR_CR1_VOS, PWR_REGULATOR_VOLTAGE_SCALE2);
 249:../../core/ST/STM32L4xx_HAL_Driver/Src/stm32l4xx_hal_pwr_ex.c ****     /* No need to wait for VOSF to be cleared for this transition */
 250:../../core/ST/STM32L4xx_HAL_Driver/Src/stm32l4xx_hal_pwr_ex.c ****     /* PWR_CR5_R1MODE bit setting has no effect in Range 2        */
 251:../../core/ST/STM32L4xx_HAL_Driver/Src/stm32l4xx_hal_pwr_ex.c ****   }
 252:../../core/ST/STM32L4xx_HAL_Driver/Src/stm32l4xx_hal_pwr_ex.c **** 
 253:../../core/ST/STM32L4xx_HAL_Driver/Src/stm32l4xx_hal_pwr_ex.c **** #else
 254:../../core/ST/STM32L4xx_HAL_Driver/Src/stm32l4xx_hal_pwr_ex.c **** 
 255:../../core/ST/STM32L4xx_HAL_Driver/Src/stm32l4xx_hal_pwr_ex.c ****   /* If Set Range 1 */
 256:../../core/ST/STM32L4xx_HAL_Driver/Src/stm32l4xx_hal_pwr_ex.c ****   if (VoltageScaling == PWR_REGULATOR_VOLTAGE_SCALE1)
  62              		.loc 1 256 0
  63 0000 B0F5007F 		cmp	r0, #512
  64 0004 0FD0     		beq	.L13
 257:../../core/ST/STM32L4xx_HAL_Driver/Src/stm32l4xx_hal_pwr_ex.c ****   {
 258:../../core/ST/STM32L4xx_HAL_Driver/Src/stm32l4xx_hal_pwr_ex.c ****     if (READ_BIT(PWR->CR1, PWR_CR1_VOS) != PWR_REGULATOR_VOLTAGE_SCALE1)
 259:../../core/ST/STM32L4xx_HAL_Driver/Src/stm32l4xx_hal_pwr_ex.c ****     {
 260:../../core/ST/STM32L4xx_HAL_Driver/Src/stm32l4xx_hal_pwr_ex.c ****       /* Set Range 1 */
 261:../../core/ST/STM32L4xx_HAL_Driver/Src/stm32l4xx_hal_pwr_ex.c ****       MODIFY_REG(PWR->CR1, PWR_CR1_VOS, PWR_REGULATOR_VOLTAGE_SCALE1);
 262:../../core/ST/STM32L4xx_HAL_Driver/Src/stm32l4xx_hal_pwr_ex.c **** 
 263:../../core/ST/STM32L4xx_HAL_Driver/Src/stm32l4xx_hal_pwr_ex.c ****       /* Wait until VOSF is cleared */
 264:../../core/ST/STM32L4xx_HAL_Driver/Src/stm32l4xx_hal_pwr_ex.c ****       wait_loop_index = ((PWR_FLAG_SETTING_DELAY_US * SystemCoreClock) / 1000000U) + 1U;
 265:../../core/ST/STM32L4xx_HAL_Driver/Src/stm32l4xx_hal_pwr_ex.c ****       while ((HAL_IS_BIT_SET(PWR->SR2, PWR_SR2_VOSF)) && (wait_loop_index != 0U))
 266:../../core/ST/STM32L4xx_HAL_Driver/Src/stm32l4xx_hal_pwr_ex.c ****       {
 267:../../core/ST/STM32L4xx_HAL_Driver/Src/stm32l4xx_hal_pwr_ex.c ****         wait_loop_index--;
 268:../../core/ST/STM32L4xx_HAL_Driver/Src/stm32l4xx_hal_pwr_ex.c ****       }
 269:../../core/ST/STM32L4xx_HAL_Driver/Src/stm32l4xx_hal_pwr_ex.c ****       if (HAL_IS_BIT_SET(PWR->SR2, PWR_SR2_VOSF))
 270:../../core/ST/STM32L4xx_HAL_Driver/Src/stm32l4xx_hal_pwr_ex.c ****       {
 271:../../core/ST/STM32L4xx_HAL_Driver/Src/stm32l4xx_hal_pwr_ex.c ****         return HAL_TIMEOUT;
 272:../../core/ST/STM32L4xx_HAL_Driver/Src/stm32l4xx_hal_pwr_ex.c ****       }
 273:../../core/ST/STM32L4xx_HAL_Driver/Src/stm32l4xx_hal_pwr_ex.c ****     }
 274:../../core/ST/STM32L4xx_HAL_Driver/Src/stm32l4xx_hal_pwr_ex.c ****   }
 275:../../core/ST/STM32L4xx_HAL_Driver/Src/stm32l4xx_hal_pwr_ex.c ****   else
 276:../../core/ST/STM32L4xx_HAL_Driver/Src/stm32l4xx_hal_pwr_ex.c ****   {
 277:../../core/ST/STM32L4xx_HAL_Driver/Src/stm32l4xx_hal_pwr_ex.c ****     if (READ_BIT(PWR->CR1, PWR_CR1_VOS) != PWR_REGULATOR_VOLTAGE_SCALE2)
  65              		.loc 1 277 0
  66 0006 1F4B     		ldr	r3, .L14
  67 0008 1B68     		ldr	r3, [r3]
  68 000a 03F4C063 		and	r3, r3, #1536
ARM GAS  /tmp/ccmTrwWQ.s 			page 7


  69 000e B3F5806F 		cmp	r3, #1024
  70 0012 34D0     		beq	.L12
 278:../../core/ST/STM32L4xx_HAL_Driver/Src/stm32l4xx_hal_pwr_ex.c ****     {
 279:../../core/ST/STM32L4xx_HAL_Driver/Src/stm32l4xx_hal_pwr_ex.c ****       /* Set Range 2 */
 280:../../core/ST/STM32L4xx_HAL_Driver/Src/stm32l4xx_hal_pwr_ex.c ****       MODIFY_REG(PWR->CR1, PWR_CR1_VOS, PWR_REGULATOR_VOLTAGE_SCALE2);
  71              		.loc 1 280 0
  72 0014 1B4A     		ldr	r2, .L14
  73 0016 1368     		ldr	r3, [r2]
  74 0018 23F4C063 		bic	r3, r3, #1536
  75 001c 43F48063 		orr	r3, r3, #1024
  76 0020 1360     		str	r3, [r2]
 281:../../core/ST/STM32L4xx_HAL_Driver/Src/stm32l4xx_hal_pwr_ex.c ****       /* No need to wait for VOSF to be cleared for this transition */
 282:../../core/ST/STM32L4xx_HAL_Driver/Src/stm32l4xx_hal_pwr_ex.c ****     }
 283:../../core/ST/STM32L4xx_HAL_Driver/Src/stm32l4xx_hal_pwr_ex.c ****   }
 284:../../core/ST/STM32L4xx_HAL_Driver/Src/stm32l4xx_hal_pwr_ex.c **** #endif
 285:../../core/ST/STM32L4xx_HAL_Driver/Src/stm32l4xx_hal_pwr_ex.c **** 
 286:../../core/ST/STM32L4xx_HAL_Driver/Src/stm32l4xx_hal_pwr_ex.c ****   return HAL_OK;
  77              		.loc 1 286 0
  78 0022 0020     		movs	r0, #0
  79              	.LVL1:
  80 0024 7047     		bx	lr
  81              	.LVL2:
  82              	.L13:
 258:../../core/ST/STM32L4xx_HAL_Driver/Src/stm32l4xx_hal_pwr_ex.c ****     {
  83              		.loc 1 258 0
  84 0026 174B     		ldr	r3, .L14
  85 0028 1B68     		ldr	r3, [r3]
  86 002a 03F4C063 		and	r3, r3, #1536
  87 002e B3F5007F 		cmp	r3, #512
  88 0032 20D0     		beq	.L10
 261:../../core/ST/STM32L4xx_HAL_Driver/Src/stm32l4xx_hal_pwr_ex.c **** 
  89              		.loc 1 261 0
  90 0034 134A     		ldr	r2, .L14
  91 0036 1368     		ldr	r3, [r2]
  92 0038 23F4C063 		bic	r3, r3, #1536
  93 003c 43F40073 		orr	r3, r3, #512
  94 0040 1360     		str	r3, [r2]
 264:../../core/ST/STM32L4xx_HAL_Driver/Src/stm32l4xx_hal_pwr_ex.c ****       while ((HAL_IS_BIT_SET(PWR->SR2, PWR_SR2_VOSF)) && (wait_loop_index != 0U))
  95              		.loc 1 264 0
  96 0042 114B     		ldr	r3, .L14+4
  97 0044 1A68     		ldr	r2, [r3]
  98 0046 3223     		movs	r3, #50
  99 0048 03FB02F3 		mul	r3, r3, r2
 100 004c 0F4A     		ldr	r2, .L14+8
 101 004e A2FB0323 		umull	r2, r3, r2, r3
 102 0052 9B0C     		lsrs	r3, r3, #18
 103 0054 0133     		adds	r3, r3, #1
 104              	.LVL3:
 265:../../core/ST/STM32L4xx_HAL_Driver/Src/stm32l4xx_hal_pwr_ex.c ****       {
 105              		.loc 1 265 0
 106 0056 00E0     		b	.L7
 107              	.L9:
 267:../../core/ST/STM32L4xx_HAL_Driver/Src/stm32l4xx_hal_pwr_ex.c ****       }
 108              		.loc 1 267 0
 109 0058 013B     		subs	r3, r3, #1
 110              	.LVL4:
 111              	.L7:
ARM GAS  /tmp/ccmTrwWQ.s 			page 8


 265:../../core/ST/STM32L4xx_HAL_Driver/Src/stm32l4xx_hal_pwr_ex.c ****       {
 112              		.loc 1 265 0
 113 005a 0A4A     		ldr	r2, .L14
 114 005c 5269     		ldr	r2, [r2, #20]
 115 005e 12F4806F 		tst	r2, #1024
 116 0062 01D0     		beq	.L8
 265:../../core/ST/STM32L4xx_HAL_Driver/Src/stm32l4xx_hal_pwr_ex.c ****       {
 117              		.loc 1 265 0 is_stmt 0 discriminator 1
 118 0064 002B     		cmp	r3, #0
 119 0066 F7D1     		bne	.L9
 120              	.L8:
 269:../../core/ST/STM32L4xx_HAL_Driver/Src/stm32l4xx_hal_pwr_ex.c ****       {
 121              		.loc 1 269 0 is_stmt 1
 122 0068 064B     		ldr	r3, .L14
 123              	.LVL5:
 124 006a 5B69     		ldr	r3, [r3, #20]
 125 006c 13F4806F 		tst	r3, #1024
 126 0070 03D0     		beq	.L11
 271:../../core/ST/STM32L4xx_HAL_Driver/Src/stm32l4xx_hal_pwr_ex.c ****       }
 127              		.loc 1 271 0
 128 0072 0320     		movs	r0, #3
 129              	.LVL6:
 130 0074 7047     		bx	lr
 131              	.LVL7:
 132              	.L10:
 133              		.loc 1 286 0
 134 0076 0020     		movs	r0, #0
 135              	.LVL8:
 136 0078 7047     		bx	lr
 137              	.LVL9:
 138              	.L11:
 139 007a 0020     		movs	r0, #0
 140              	.LVL10:
 141 007c 7047     		bx	lr
 142              	.LVL11:
 143              	.L12:
 144 007e 0020     		movs	r0, #0
 145              	.LVL12:
 287:../../core/ST/STM32L4xx_HAL_Driver/Src/stm32l4xx_hal_pwr_ex.c **** }
 146              		.loc 1 287 0
 147 0080 7047     		bx	lr
 148              	.L15:
 149 0082 00BF     		.align	2
 150              	.L14:
 151 0084 00700040 		.word	1073770496
 152 0088 00000000 		.word	SystemCoreClock
 153 008c 83DE1B43 		.word	1125899907
 154              		.cfi_endproc
 155              	.LFE124:
 157              		.section	.text.HAL_PWREx_EnableBatteryCharging,"ax",%progbits
 158              		.align	1
 159              		.global	HAL_PWREx_EnableBatteryCharging
 160              		.syntax unified
 161              		.thumb
 162              		.thumb_func
 163              		.fpu fpv4-sp-d16
 165              	HAL_PWREx_EnableBatteryCharging:
ARM GAS  /tmp/ccmTrwWQ.s 			page 9


 166              	.LFB125:
 288:../../core/ST/STM32L4xx_HAL_Driver/Src/stm32l4xx_hal_pwr_ex.c **** 
 289:../../core/ST/STM32L4xx_HAL_Driver/Src/stm32l4xx_hal_pwr_ex.c **** 
 290:../../core/ST/STM32L4xx_HAL_Driver/Src/stm32l4xx_hal_pwr_ex.c **** /**
 291:../../core/ST/STM32L4xx_HAL_Driver/Src/stm32l4xx_hal_pwr_ex.c ****   * @brief Enable battery charging.
 292:../../core/ST/STM32L4xx_HAL_Driver/Src/stm32l4xx_hal_pwr_ex.c ****   *        When VDD is present, charge the external battery on VBAT thru an internal resistor.
 293:../../core/ST/STM32L4xx_HAL_Driver/Src/stm32l4xx_hal_pwr_ex.c ****   * @param  ResistorSelection: specifies the resistor impedance.
 294:../../core/ST/STM32L4xx_HAL_Driver/Src/stm32l4xx_hal_pwr_ex.c ****   *          This parameter can be one of the following values:
 295:../../core/ST/STM32L4xx_HAL_Driver/Src/stm32l4xx_hal_pwr_ex.c ****   *            @arg @ref PWR_BATTERY_CHARGING_RESISTOR_5     5 kOhms resistor
 296:../../core/ST/STM32L4xx_HAL_Driver/Src/stm32l4xx_hal_pwr_ex.c ****   *            @arg @ref PWR_BATTERY_CHARGING_RESISTOR_1_5 1.5 kOhms resistor
 297:../../core/ST/STM32L4xx_HAL_Driver/Src/stm32l4xx_hal_pwr_ex.c ****   * @retval None
 298:../../core/ST/STM32L4xx_HAL_Driver/Src/stm32l4xx_hal_pwr_ex.c ****   */
 299:../../core/ST/STM32L4xx_HAL_Driver/Src/stm32l4xx_hal_pwr_ex.c **** void HAL_PWREx_EnableBatteryCharging(uint32_t ResistorSelection)
 300:../../core/ST/STM32L4xx_HAL_Driver/Src/stm32l4xx_hal_pwr_ex.c **** {
 167              		.loc 1 300 0
 168              		.cfi_startproc
 169              		@ args = 0, pretend = 0, frame = 0
 170              		@ frame_needed = 0, uses_anonymous_args = 0
 171              		@ link register save eliminated.
 172              	.LVL13:
 301:../../core/ST/STM32L4xx_HAL_Driver/Src/stm32l4xx_hal_pwr_ex.c ****   assert_param(IS_PWR_BATTERY_RESISTOR_SELECT(ResistorSelection));
 302:../../core/ST/STM32L4xx_HAL_Driver/Src/stm32l4xx_hal_pwr_ex.c **** 
 303:../../core/ST/STM32L4xx_HAL_Driver/Src/stm32l4xx_hal_pwr_ex.c ****   /* Specify resistor selection */
 304:../../core/ST/STM32L4xx_HAL_Driver/Src/stm32l4xx_hal_pwr_ex.c ****   MODIFY_REG(PWR->CR4, PWR_CR4_VBRS, ResistorSelection);
 173              		.loc 1 304 0
 174 0000 054A     		ldr	r2, .L17
 175 0002 D368     		ldr	r3, [r2, #12]
 176 0004 23F40073 		bic	r3, r3, #512
 177 0008 1843     		orrs	r0, r0, r3
 178              	.LVL14:
 179 000a D060     		str	r0, [r2, #12]
 305:../../core/ST/STM32L4xx_HAL_Driver/Src/stm32l4xx_hal_pwr_ex.c **** 
 306:../../core/ST/STM32L4xx_HAL_Driver/Src/stm32l4xx_hal_pwr_ex.c ****   /* Enable battery charging */
 307:../../core/ST/STM32L4xx_HAL_Driver/Src/stm32l4xx_hal_pwr_ex.c ****   SET_BIT(PWR->CR4, PWR_CR4_VBE);
 180              		.loc 1 307 0
 181 000c D368     		ldr	r3, [r2, #12]
 182 000e 43F48073 		orr	r3, r3, #256
 183 0012 D360     		str	r3, [r2, #12]
 184 0014 7047     		bx	lr
 185              	.L18:
 186 0016 00BF     		.align	2
 187              	.L17:
 188 0018 00700040 		.word	1073770496
 189              		.cfi_endproc
 190              	.LFE125:
 192              		.section	.text.HAL_PWREx_DisableBatteryCharging,"ax",%progbits
 193              		.align	1
 194              		.global	HAL_PWREx_DisableBatteryCharging
 195              		.syntax unified
 196              		.thumb
 197              		.thumb_func
 198              		.fpu fpv4-sp-d16
 200              	HAL_PWREx_DisableBatteryCharging:
 201              	.LFB126:
 308:../../core/ST/STM32L4xx_HAL_Driver/Src/stm32l4xx_hal_pwr_ex.c **** }
 309:../../core/ST/STM32L4xx_HAL_Driver/Src/stm32l4xx_hal_pwr_ex.c **** 
 310:../../core/ST/STM32L4xx_HAL_Driver/Src/stm32l4xx_hal_pwr_ex.c **** 
ARM GAS  /tmp/ccmTrwWQ.s 			page 10


 311:../../core/ST/STM32L4xx_HAL_Driver/Src/stm32l4xx_hal_pwr_ex.c **** /**
 312:../../core/ST/STM32L4xx_HAL_Driver/Src/stm32l4xx_hal_pwr_ex.c ****   * @brief Disable battery charging.
 313:../../core/ST/STM32L4xx_HAL_Driver/Src/stm32l4xx_hal_pwr_ex.c ****   * @retval None
 314:../../core/ST/STM32L4xx_HAL_Driver/Src/stm32l4xx_hal_pwr_ex.c ****   */
 315:../../core/ST/STM32L4xx_HAL_Driver/Src/stm32l4xx_hal_pwr_ex.c **** void HAL_PWREx_DisableBatteryCharging(void)
 316:../../core/ST/STM32L4xx_HAL_Driver/Src/stm32l4xx_hal_pwr_ex.c **** {
 202              		.loc 1 316 0
 203              		.cfi_startproc
 204              		@ args = 0, pretend = 0, frame = 0
 205              		@ frame_needed = 0, uses_anonymous_args = 0
 206              		@ link register save eliminated.
 317:../../core/ST/STM32L4xx_HAL_Driver/Src/stm32l4xx_hal_pwr_ex.c ****   CLEAR_BIT(PWR->CR4, PWR_CR4_VBE);
 207              		.loc 1 317 0
 208 0000 024A     		ldr	r2, .L20
 209 0002 D368     		ldr	r3, [r2, #12]
 210 0004 23F48073 		bic	r3, r3, #256
 211 0008 D360     		str	r3, [r2, #12]
 212 000a 7047     		bx	lr
 213              	.L21:
 214              		.align	2
 215              	.L20:
 216 000c 00700040 		.word	1073770496
 217              		.cfi_endproc
 218              	.LFE126:
 220              		.section	.text.HAL_PWREx_EnableVddUSB,"ax",%progbits
 221              		.align	1
 222              		.global	HAL_PWREx_EnableVddUSB
 223              		.syntax unified
 224              		.thumb
 225              		.thumb_func
 226              		.fpu fpv4-sp-d16
 228              	HAL_PWREx_EnableVddUSB:
 229              	.LFB127:
 318:../../core/ST/STM32L4xx_HAL_Driver/Src/stm32l4xx_hal_pwr_ex.c **** }
 319:../../core/ST/STM32L4xx_HAL_Driver/Src/stm32l4xx_hal_pwr_ex.c **** 
 320:../../core/ST/STM32L4xx_HAL_Driver/Src/stm32l4xx_hal_pwr_ex.c **** 
 321:../../core/ST/STM32L4xx_HAL_Driver/Src/stm32l4xx_hal_pwr_ex.c **** #if defined(PWR_CR2_USV)
 322:../../core/ST/STM32L4xx_HAL_Driver/Src/stm32l4xx_hal_pwr_ex.c **** /**
 323:../../core/ST/STM32L4xx_HAL_Driver/Src/stm32l4xx_hal_pwr_ex.c ****   * @brief Enable VDDUSB supply.
 324:../../core/ST/STM32L4xx_HAL_Driver/Src/stm32l4xx_hal_pwr_ex.c ****   * @note  Remove VDDUSB electrical and logical isolation, once VDDUSB supply is present.
 325:../../core/ST/STM32L4xx_HAL_Driver/Src/stm32l4xx_hal_pwr_ex.c ****   * @retval None
 326:../../core/ST/STM32L4xx_HAL_Driver/Src/stm32l4xx_hal_pwr_ex.c ****   */
 327:../../core/ST/STM32L4xx_HAL_Driver/Src/stm32l4xx_hal_pwr_ex.c **** void HAL_PWREx_EnableVddUSB(void)
 328:../../core/ST/STM32L4xx_HAL_Driver/Src/stm32l4xx_hal_pwr_ex.c **** {
 230              		.loc 1 328 0
 231              		.cfi_startproc
 232              		@ args = 0, pretend = 0, frame = 0
 233              		@ frame_needed = 0, uses_anonymous_args = 0
 234              		@ link register save eliminated.
 329:../../core/ST/STM32L4xx_HAL_Driver/Src/stm32l4xx_hal_pwr_ex.c ****   SET_BIT(PWR->CR2, PWR_CR2_USV);
 235              		.loc 1 329 0
 236 0000 024A     		ldr	r2, .L23
 237 0002 5368     		ldr	r3, [r2, #4]
 238 0004 43F48063 		orr	r3, r3, #1024
 239 0008 5360     		str	r3, [r2, #4]
 240 000a 7047     		bx	lr
 241              	.L24:
ARM GAS  /tmp/ccmTrwWQ.s 			page 11


 242              		.align	2
 243              	.L23:
 244 000c 00700040 		.word	1073770496
 245              		.cfi_endproc
 246              	.LFE127:
 248              		.section	.text.HAL_PWREx_DisableVddUSB,"ax",%progbits
 249              		.align	1
 250              		.global	HAL_PWREx_DisableVddUSB
 251              		.syntax unified
 252              		.thumb
 253              		.thumb_func
 254              		.fpu fpv4-sp-d16
 256              	HAL_PWREx_DisableVddUSB:
 257              	.LFB128:
 330:../../core/ST/STM32L4xx_HAL_Driver/Src/stm32l4xx_hal_pwr_ex.c **** }
 331:../../core/ST/STM32L4xx_HAL_Driver/Src/stm32l4xx_hal_pwr_ex.c **** 
 332:../../core/ST/STM32L4xx_HAL_Driver/Src/stm32l4xx_hal_pwr_ex.c **** 
 333:../../core/ST/STM32L4xx_HAL_Driver/Src/stm32l4xx_hal_pwr_ex.c **** /**
 334:../../core/ST/STM32L4xx_HAL_Driver/Src/stm32l4xx_hal_pwr_ex.c ****   * @brief Disable VDDUSB supply.
 335:../../core/ST/STM32L4xx_HAL_Driver/Src/stm32l4xx_hal_pwr_ex.c ****   * @retval None
 336:../../core/ST/STM32L4xx_HAL_Driver/Src/stm32l4xx_hal_pwr_ex.c ****   */
 337:../../core/ST/STM32L4xx_HAL_Driver/Src/stm32l4xx_hal_pwr_ex.c **** void HAL_PWREx_DisableVddUSB(void)
 338:../../core/ST/STM32L4xx_HAL_Driver/Src/stm32l4xx_hal_pwr_ex.c **** {
 258              		.loc 1 338 0
 259              		.cfi_startproc
 260              		@ args = 0, pretend = 0, frame = 0
 261              		@ frame_needed = 0, uses_anonymous_args = 0
 262              		@ link register save eliminated.
 339:../../core/ST/STM32L4xx_HAL_Driver/Src/stm32l4xx_hal_pwr_ex.c ****   CLEAR_BIT(PWR->CR2, PWR_CR2_USV);
 263              		.loc 1 339 0
 264 0000 024A     		ldr	r2, .L26
 265 0002 5368     		ldr	r3, [r2, #4]
 266 0004 23F48063 		bic	r3, r3, #1024
 267 0008 5360     		str	r3, [r2, #4]
 268 000a 7047     		bx	lr
 269              	.L27:
 270              		.align	2
 271              	.L26:
 272 000c 00700040 		.word	1073770496
 273              		.cfi_endproc
 274              	.LFE128:
 276              		.section	.text.HAL_PWREx_EnableVddIO2,"ax",%progbits
 277              		.align	1
 278              		.global	HAL_PWREx_EnableVddIO2
 279              		.syntax unified
 280              		.thumb
 281              		.thumb_func
 282              		.fpu fpv4-sp-d16
 284              	HAL_PWREx_EnableVddIO2:
 285              	.LFB129:
 340:../../core/ST/STM32L4xx_HAL_Driver/Src/stm32l4xx_hal_pwr_ex.c **** }
 341:../../core/ST/STM32L4xx_HAL_Driver/Src/stm32l4xx_hal_pwr_ex.c **** #endif /* PWR_CR2_USV */
 342:../../core/ST/STM32L4xx_HAL_Driver/Src/stm32l4xx_hal_pwr_ex.c **** 
 343:../../core/ST/STM32L4xx_HAL_Driver/Src/stm32l4xx_hal_pwr_ex.c **** #if defined(PWR_CR2_IOSV)
 344:../../core/ST/STM32L4xx_HAL_Driver/Src/stm32l4xx_hal_pwr_ex.c **** /**
 345:../../core/ST/STM32L4xx_HAL_Driver/Src/stm32l4xx_hal_pwr_ex.c ****   * @brief Enable VDDIO2 supply.
 346:../../core/ST/STM32L4xx_HAL_Driver/Src/stm32l4xx_hal_pwr_ex.c ****   * @note  Remove VDDIO2 electrical and logical isolation, once VDDIO2 supply is present.
ARM GAS  /tmp/ccmTrwWQ.s 			page 12


 347:../../core/ST/STM32L4xx_HAL_Driver/Src/stm32l4xx_hal_pwr_ex.c ****   * @retval None
 348:../../core/ST/STM32L4xx_HAL_Driver/Src/stm32l4xx_hal_pwr_ex.c ****   */
 349:../../core/ST/STM32L4xx_HAL_Driver/Src/stm32l4xx_hal_pwr_ex.c **** void HAL_PWREx_EnableVddIO2(void)
 350:../../core/ST/STM32L4xx_HAL_Driver/Src/stm32l4xx_hal_pwr_ex.c **** {
 286              		.loc 1 350 0
 287              		.cfi_startproc
 288              		@ args = 0, pretend = 0, frame = 0
 289              		@ frame_needed = 0, uses_anonymous_args = 0
 290              		@ link register save eliminated.
 351:../../core/ST/STM32L4xx_HAL_Driver/Src/stm32l4xx_hal_pwr_ex.c ****   SET_BIT(PWR->CR2, PWR_CR2_IOSV);
 291              		.loc 1 351 0
 292 0000 024A     		ldr	r2, .L29
 293 0002 5368     		ldr	r3, [r2, #4]
 294 0004 43F40073 		orr	r3, r3, #512
 295 0008 5360     		str	r3, [r2, #4]
 296 000a 7047     		bx	lr
 297              	.L30:
 298              		.align	2
 299              	.L29:
 300 000c 00700040 		.word	1073770496
 301              		.cfi_endproc
 302              	.LFE129:
 304              		.section	.text.HAL_PWREx_DisableVddIO2,"ax",%progbits
 305              		.align	1
 306              		.global	HAL_PWREx_DisableVddIO2
 307              		.syntax unified
 308              		.thumb
 309              		.thumb_func
 310              		.fpu fpv4-sp-d16
 312              	HAL_PWREx_DisableVddIO2:
 313              	.LFB130:
 352:../../core/ST/STM32L4xx_HAL_Driver/Src/stm32l4xx_hal_pwr_ex.c **** }
 353:../../core/ST/STM32L4xx_HAL_Driver/Src/stm32l4xx_hal_pwr_ex.c **** 
 354:../../core/ST/STM32L4xx_HAL_Driver/Src/stm32l4xx_hal_pwr_ex.c **** 
 355:../../core/ST/STM32L4xx_HAL_Driver/Src/stm32l4xx_hal_pwr_ex.c **** /**
 356:../../core/ST/STM32L4xx_HAL_Driver/Src/stm32l4xx_hal_pwr_ex.c ****   * @brief Disable VDDIO2 supply.
 357:../../core/ST/STM32L4xx_HAL_Driver/Src/stm32l4xx_hal_pwr_ex.c ****   * @retval None
 358:../../core/ST/STM32L4xx_HAL_Driver/Src/stm32l4xx_hal_pwr_ex.c ****   */
 359:../../core/ST/STM32L4xx_HAL_Driver/Src/stm32l4xx_hal_pwr_ex.c **** void HAL_PWREx_DisableVddIO2(void)
 360:../../core/ST/STM32L4xx_HAL_Driver/Src/stm32l4xx_hal_pwr_ex.c **** {
 314              		.loc 1 360 0
 315              		.cfi_startproc
 316              		@ args = 0, pretend = 0, frame = 0
 317              		@ frame_needed = 0, uses_anonymous_args = 0
 318              		@ link register save eliminated.
 361:../../core/ST/STM32L4xx_HAL_Driver/Src/stm32l4xx_hal_pwr_ex.c ****   CLEAR_BIT(PWR->CR2, PWR_CR2_IOSV);
 319              		.loc 1 361 0
 320 0000 024A     		ldr	r2, .L32
 321 0002 5368     		ldr	r3, [r2, #4]
 322 0004 23F40073 		bic	r3, r3, #512
 323 0008 5360     		str	r3, [r2, #4]
 324 000a 7047     		bx	lr
 325              	.L33:
 326              		.align	2
 327              	.L32:
 328 000c 00700040 		.word	1073770496
 329              		.cfi_endproc
ARM GAS  /tmp/ccmTrwWQ.s 			page 13


 330              	.LFE130:
 332              		.section	.text.HAL_PWREx_EnableInternalWakeUpLine,"ax",%progbits
 333              		.align	1
 334              		.global	HAL_PWREx_EnableInternalWakeUpLine
 335              		.syntax unified
 336              		.thumb
 337              		.thumb_func
 338              		.fpu fpv4-sp-d16
 340              	HAL_PWREx_EnableInternalWakeUpLine:
 341              	.LFB131:
 362:../../core/ST/STM32L4xx_HAL_Driver/Src/stm32l4xx_hal_pwr_ex.c **** }
 363:../../core/ST/STM32L4xx_HAL_Driver/Src/stm32l4xx_hal_pwr_ex.c **** #endif /* PWR_CR2_IOSV */
 364:../../core/ST/STM32L4xx_HAL_Driver/Src/stm32l4xx_hal_pwr_ex.c **** 
 365:../../core/ST/STM32L4xx_HAL_Driver/Src/stm32l4xx_hal_pwr_ex.c **** 
 366:../../core/ST/STM32L4xx_HAL_Driver/Src/stm32l4xx_hal_pwr_ex.c **** /**
 367:../../core/ST/STM32L4xx_HAL_Driver/Src/stm32l4xx_hal_pwr_ex.c ****   * @brief Enable Internal Wake-up Line.
 368:../../core/ST/STM32L4xx_HAL_Driver/Src/stm32l4xx_hal_pwr_ex.c ****   * @retval None
 369:../../core/ST/STM32L4xx_HAL_Driver/Src/stm32l4xx_hal_pwr_ex.c ****   */
 370:../../core/ST/STM32L4xx_HAL_Driver/Src/stm32l4xx_hal_pwr_ex.c **** void HAL_PWREx_EnableInternalWakeUpLine(void)
 371:../../core/ST/STM32L4xx_HAL_Driver/Src/stm32l4xx_hal_pwr_ex.c **** {
 342              		.loc 1 371 0
 343              		.cfi_startproc
 344              		@ args = 0, pretend = 0, frame = 0
 345              		@ frame_needed = 0, uses_anonymous_args = 0
 346              		@ link register save eliminated.
 372:../../core/ST/STM32L4xx_HAL_Driver/Src/stm32l4xx_hal_pwr_ex.c ****   SET_BIT(PWR->CR3, PWR_CR3_EIWF);
 347              		.loc 1 372 0
 348 0000 024A     		ldr	r2, .L35
 349 0002 9368     		ldr	r3, [r2, #8]
 350 0004 43F40043 		orr	r3, r3, #32768
 351 0008 9360     		str	r3, [r2, #8]
 352 000a 7047     		bx	lr
 353              	.L36:
 354              		.align	2
 355              	.L35:
 356 000c 00700040 		.word	1073770496
 357              		.cfi_endproc
 358              	.LFE131:
 360              		.section	.text.HAL_PWREx_DisableInternalWakeUpLine,"ax",%progbits
 361              		.align	1
 362              		.global	HAL_PWREx_DisableInternalWakeUpLine
 363              		.syntax unified
 364              		.thumb
 365              		.thumb_func
 366              		.fpu fpv4-sp-d16
 368              	HAL_PWREx_DisableInternalWakeUpLine:
 369              	.LFB132:
 373:../../core/ST/STM32L4xx_HAL_Driver/Src/stm32l4xx_hal_pwr_ex.c **** }
 374:../../core/ST/STM32L4xx_HAL_Driver/Src/stm32l4xx_hal_pwr_ex.c **** 
 375:../../core/ST/STM32L4xx_HAL_Driver/Src/stm32l4xx_hal_pwr_ex.c **** 
 376:../../core/ST/STM32L4xx_HAL_Driver/Src/stm32l4xx_hal_pwr_ex.c **** /**
 377:../../core/ST/STM32L4xx_HAL_Driver/Src/stm32l4xx_hal_pwr_ex.c ****   * @brief Disable Internal Wake-up Line.
 378:../../core/ST/STM32L4xx_HAL_Driver/Src/stm32l4xx_hal_pwr_ex.c ****   * @retval None
 379:../../core/ST/STM32L4xx_HAL_Driver/Src/stm32l4xx_hal_pwr_ex.c ****   */
 380:../../core/ST/STM32L4xx_HAL_Driver/Src/stm32l4xx_hal_pwr_ex.c **** void HAL_PWREx_DisableInternalWakeUpLine(void)
 381:../../core/ST/STM32L4xx_HAL_Driver/Src/stm32l4xx_hal_pwr_ex.c **** {
 370              		.loc 1 381 0
ARM GAS  /tmp/ccmTrwWQ.s 			page 14


 371              		.cfi_startproc
 372              		@ args = 0, pretend = 0, frame = 0
 373              		@ frame_needed = 0, uses_anonymous_args = 0
 374              		@ link register save eliminated.
 382:../../core/ST/STM32L4xx_HAL_Driver/Src/stm32l4xx_hal_pwr_ex.c ****   CLEAR_BIT(PWR->CR3, PWR_CR3_EIWF);
 375              		.loc 1 382 0
 376 0000 024A     		ldr	r2, .L38
 377 0002 9368     		ldr	r3, [r2, #8]
 378 0004 23F40043 		bic	r3, r3, #32768
 379 0008 9360     		str	r3, [r2, #8]
 380 000a 7047     		bx	lr
 381              	.L39:
 382              		.align	2
 383              	.L38:
 384 000c 00700040 		.word	1073770496
 385              		.cfi_endproc
 386              	.LFE132:
 388              		.section	.text.HAL_PWREx_EnableGPIOPullUp,"ax",%progbits
 389              		.align	1
 390              		.global	HAL_PWREx_EnableGPIOPullUp
 391              		.syntax unified
 392              		.thumb
 393              		.thumb_func
 394              		.fpu fpv4-sp-d16
 396              	HAL_PWREx_EnableGPIOPullUp:
 397              	.LFB133:
 383:../../core/ST/STM32L4xx_HAL_Driver/Src/stm32l4xx_hal_pwr_ex.c **** }
 384:../../core/ST/STM32L4xx_HAL_Driver/Src/stm32l4xx_hal_pwr_ex.c **** 
 385:../../core/ST/STM32L4xx_HAL_Driver/Src/stm32l4xx_hal_pwr_ex.c **** 
 386:../../core/ST/STM32L4xx_HAL_Driver/Src/stm32l4xx_hal_pwr_ex.c **** 
 387:../../core/ST/STM32L4xx_HAL_Driver/Src/stm32l4xx_hal_pwr_ex.c **** /**
 388:../../core/ST/STM32L4xx_HAL_Driver/Src/stm32l4xx_hal_pwr_ex.c ****   * @brief Enable GPIO pull-up state in Standby and Shutdown modes.
 389:../../core/ST/STM32L4xx_HAL_Driver/Src/stm32l4xx_hal_pwr_ex.c ****   * @note  Set the relevant PUy bits of PWR_PUCRx register to configure the I/O in
 390:../../core/ST/STM32L4xx_HAL_Driver/Src/stm32l4xx_hal_pwr_ex.c ****   *        pull-up state in Standby and Shutdown modes.
 391:../../core/ST/STM32L4xx_HAL_Driver/Src/stm32l4xx_hal_pwr_ex.c ****   * @note  This state is effective in Standby and Shutdown modes only if APC bit
 392:../../core/ST/STM32L4xx_HAL_Driver/Src/stm32l4xx_hal_pwr_ex.c ****   *        is set through HAL_PWREx_EnablePullUpPullDownConfig() API.
 393:../../core/ST/STM32L4xx_HAL_Driver/Src/stm32l4xx_hal_pwr_ex.c ****   * @note  The configuration is lost when exiting the Shutdown mode due to the
 394:../../core/ST/STM32L4xx_HAL_Driver/Src/stm32l4xx_hal_pwr_ex.c ****   *        power-on reset, maintained when exiting the Standby mode.
 395:../../core/ST/STM32L4xx_HAL_Driver/Src/stm32l4xx_hal_pwr_ex.c ****   * @note  To avoid any conflict at Standby and Shutdown modes exits, the corresponding
 396:../../core/ST/STM32L4xx_HAL_Driver/Src/stm32l4xx_hal_pwr_ex.c ****   *        PDy bit of PWR_PDCRx register is cleared unless it is reserved.
 397:../../core/ST/STM32L4xx_HAL_Driver/Src/stm32l4xx_hal_pwr_ex.c ****   * @note  Even if a PUy bit to set is reserved, the other PUy bits entered as input
 398:../../core/ST/STM32L4xx_HAL_Driver/Src/stm32l4xx_hal_pwr_ex.c ****   *        parameter at the same time are set.
 399:../../core/ST/STM32L4xx_HAL_Driver/Src/stm32l4xx_hal_pwr_ex.c ****   * @param  GPIO: Specify the IO port. This parameter can be PWR_GPIO_A, ..., PWR_GPIO_H
 400:../../core/ST/STM32L4xx_HAL_Driver/Src/stm32l4xx_hal_pwr_ex.c ****   *         (or PWR_GPIO_I depending on the devices) to select the GPIO peripheral.
 401:../../core/ST/STM32L4xx_HAL_Driver/Src/stm32l4xx_hal_pwr_ex.c ****   * @param  GPIONumber: Specify the I/O pins numbers.
 402:../../core/ST/STM32L4xx_HAL_Driver/Src/stm32l4xx_hal_pwr_ex.c ****   *         This parameter can be one of the following values:
 403:../../core/ST/STM32L4xx_HAL_Driver/Src/stm32l4xx_hal_pwr_ex.c ****   *         PWR_GPIO_BIT_0, ..., PWR_GPIO_BIT_15 (except for the port where less
 404:../../core/ST/STM32L4xx_HAL_Driver/Src/stm32l4xx_hal_pwr_ex.c ****   *         I/O pins are available) or the logical OR of several of them to set
 405:../../core/ST/STM32L4xx_HAL_Driver/Src/stm32l4xx_hal_pwr_ex.c ****   *         several bits for a given port in a single API call.
 406:../../core/ST/STM32L4xx_HAL_Driver/Src/stm32l4xx_hal_pwr_ex.c ****   * @retval HAL Status
 407:../../core/ST/STM32L4xx_HAL_Driver/Src/stm32l4xx_hal_pwr_ex.c ****   */
 408:../../core/ST/STM32L4xx_HAL_Driver/Src/stm32l4xx_hal_pwr_ex.c **** HAL_StatusTypeDef HAL_PWREx_EnableGPIOPullUp(uint32_t GPIO, uint32_t GPIONumber)
 409:../../core/ST/STM32L4xx_HAL_Driver/Src/stm32l4xx_hal_pwr_ex.c **** {
 398              		.loc 1 409 0
 399              		.cfi_startproc
 400              		@ args = 0, pretend = 0, frame = 0
 401              		@ frame_needed = 0, uses_anonymous_args = 0
ARM GAS  /tmp/ccmTrwWQ.s 			page 15


 402              		@ link register save eliminated.
 403              	.LVL15:
 410:../../core/ST/STM32L4xx_HAL_Driver/Src/stm32l4xx_hal_pwr_ex.c ****   HAL_StatusTypeDef status = HAL_OK;
 411:../../core/ST/STM32L4xx_HAL_Driver/Src/stm32l4xx_hal_pwr_ex.c **** 
 412:../../core/ST/STM32L4xx_HAL_Driver/Src/stm32l4xx_hal_pwr_ex.c ****   assert_param(IS_PWR_GPIO(GPIO));
 413:../../core/ST/STM32L4xx_HAL_Driver/Src/stm32l4xx_hal_pwr_ex.c ****   assert_param(IS_PWR_GPIO_BIT_NUMBER(GPIONumber));
 414:../../core/ST/STM32L4xx_HAL_Driver/Src/stm32l4xx_hal_pwr_ex.c **** 
 415:../../core/ST/STM32L4xx_HAL_Driver/Src/stm32l4xx_hal_pwr_ex.c ****   switch (GPIO)
 404              		.loc 1 415 0
 405 0000 0828     		cmp	r0, #8
 406 0002 6DD8     		bhi	.L52
 407 0004 DFE800F0 		tbb	[pc, r0]
 408              	.L43:
 409 0008 05       		.byte	(.L42-.L43)/2
 410 0009 13       		.byte	(.L44-.L43)/2
 411 000a 1F       		.byte	(.L45-.L43)/2
 412 000b 29       		.byte	(.L46-.L43)/2
 413 000c 33       		.byte	(.L47-.L43)/2
 414 000d 3D       		.byte	(.L48-.L43)/2
 415 000e 47       		.byte	(.L49-.L43)/2
 416 000f 51       		.byte	(.L50-.L43)/2
 417 0010 60       		.byte	(.L51-.L43)/2
 418 0011 00       		.p2align 1
 419              	.L42:
 416:../../core/ST/STM32L4xx_HAL_Driver/Src/stm32l4xx_hal_pwr_ex.c ****   {
 417:../../core/ST/STM32L4xx_HAL_Driver/Src/stm32l4xx_hal_pwr_ex.c ****     case PWR_GPIO_A:
 418:../../core/ST/STM32L4xx_HAL_Driver/Src/stm32l4xx_hal_pwr_ex.c ****        SET_BIT(PWR->PUCRA, (GPIONumber & (~(PWR_GPIO_BIT_14))));
 420              		.loc 1 418 0
 421 0012 344B     		ldr	r3, .L53
 422 0014 1A6A     		ldr	r2, [r3, #32]
 423 0016 21F48040 		bic	r0, r1, #16384
 424              	.LVL16:
 425 001a 0243     		orrs	r2, r2, r0
 426 001c 1A62     		str	r2, [r3, #32]
 419:../../core/ST/STM32L4xx_HAL_Driver/Src/stm32l4xx_hal_pwr_ex.c ****        CLEAR_BIT(PWR->PDCRA, (GPIONumber & (~(PWR_GPIO_BIT_13|PWR_GPIO_BIT_15))));
 427              		.loc 1 419 0
 428 001e 5A6A     		ldr	r2, [r3, #36]
 429 0020 21F42041 		bic	r1, r1, #40960
 430              	.LVL17:
 431 0024 22EA0101 		bic	r1, r2, r1
 432 0028 5962     		str	r1, [r3, #36]
 410:../../core/ST/STM32L4xx_HAL_Driver/Src/stm32l4xx_hal_pwr_ex.c ****   HAL_StatusTypeDef status = HAL_OK;
 433              		.loc 1 410 0
 434 002a 0020     		movs	r0, #0
 420:../../core/ST/STM32L4xx_HAL_Driver/Src/stm32l4xx_hal_pwr_ex.c ****        break;
 435              		.loc 1 420 0
 436 002c 7047     		bx	lr
 437              	.LVL18:
 438              	.L44:
 421:../../core/ST/STM32L4xx_HAL_Driver/Src/stm32l4xx_hal_pwr_ex.c ****     case PWR_GPIO_B:
 422:../../core/ST/STM32L4xx_HAL_Driver/Src/stm32l4xx_hal_pwr_ex.c ****        SET_BIT(PWR->PUCRB, GPIONumber);
 439              		.loc 1 422 0
 440 002e 2D4B     		ldr	r3, .L53
 441 0030 9A6A     		ldr	r2, [r3, #40]
 442 0032 0A43     		orrs	r2, r2, r1
 443 0034 9A62     		str	r2, [r3, #40]
 423:../../core/ST/STM32L4xx_HAL_Driver/Src/stm32l4xx_hal_pwr_ex.c ****        CLEAR_BIT(PWR->PDCRB, (GPIONumber & (~(PWR_GPIO_BIT_4))));
ARM GAS  /tmp/ccmTrwWQ.s 			page 16


 444              		.loc 1 423 0
 445 0036 DA6A     		ldr	r2, [r3, #44]
 446 0038 21F01001 		bic	r1, r1, #16
 447              	.LVL19:
 448 003c 22EA0101 		bic	r1, r2, r1
 449 0040 D962     		str	r1, [r3, #44]
 410:../../core/ST/STM32L4xx_HAL_Driver/Src/stm32l4xx_hal_pwr_ex.c **** 
 450              		.loc 1 410 0
 451 0042 0020     		movs	r0, #0
 452              	.LVL20:
 424:../../core/ST/STM32L4xx_HAL_Driver/Src/stm32l4xx_hal_pwr_ex.c ****        break;
 453              		.loc 1 424 0
 454 0044 7047     		bx	lr
 455              	.LVL21:
 456              	.L45:
 425:../../core/ST/STM32L4xx_HAL_Driver/Src/stm32l4xx_hal_pwr_ex.c ****     case PWR_GPIO_C:
 426:../../core/ST/STM32L4xx_HAL_Driver/Src/stm32l4xx_hal_pwr_ex.c ****        SET_BIT(PWR->PUCRC, GPIONumber);
 457              		.loc 1 426 0
 458 0046 274B     		ldr	r3, .L53
 459 0048 1A6B     		ldr	r2, [r3, #48]
 460 004a 0A43     		orrs	r2, r2, r1
 461 004c 1A63     		str	r2, [r3, #48]
 427:../../core/ST/STM32L4xx_HAL_Driver/Src/stm32l4xx_hal_pwr_ex.c ****        CLEAR_BIT(PWR->PDCRC, GPIONumber);
 462              		.loc 1 427 0
 463 004e 5A6B     		ldr	r2, [r3, #52]
 464 0050 22EA0101 		bic	r1, r2, r1
 465              	.LVL22:
 466 0054 5963     		str	r1, [r3, #52]
 410:../../core/ST/STM32L4xx_HAL_Driver/Src/stm32l4xx_hal_pwr_ex.c **** 
 467              		.loc 1 410 0
 468 0056 0020     		movs	r0, #0
 469              	.LVL23:
 428:../../core/ST/STM32L4xx_HAL_Driver/Src/stm32l4xx_hal_pwr_ex.c ****        break;
 470              		.loc 1 428 0
 471 0058 7047     		bx	lr
 472              	.LVL24:
 473              	.L46:
 429:../../core/ST/STM32L4xx_HAL_Driver/Src/stm32l4xx_hal_pwr_ex.c **** #if defined(GPIOD)
 430:../../core/ST/STM32L4xx_HAL_Driver/Src/stm32l4xx_hal_pwr_ex.c ****     case PWR_GPIO_D:
 431:../../core/ST/STM32L4xx_HAL_Driver/Src/stm32l4xx_hal_pwr_ex.c ****        SET_BIT(PWR->PUCRD, GPIONumber);
 474              		.loc 1 431 0
 475 005a 224B     		ldr	r3, .L53
 476 005c 9A6B     		ldr	r2, [r3, #56]
 477 005e 0A43     		orrs	r2, r2, r1
 478 0060 9A63     		str	r2, [r3, #56]
 432:../../core/ST/STM32L4xx_HAL_Driver/Src/stm32l4xx_hal_pwr_ex.c ****        CLEAR_BIT(PWR->PDCRD, GPIONumber);
 479              		.loc 1 432 0
 480 0062 DA6B     		ldr	r2, [r3, #60]
 481 0064 22EA0101 		bic	r1, r2, r1
 482              	.LVL25:
 483 0068 D963     		str	r1, [r3, #60]
 410:../../core/ST/STM32L4xx_HAL_Driver/Src/stm32l4xx_hal_pwr_ex.c **** 
 484              		.loc 1 410 0
 485 006a 0020     		movs	r0, #0
 486              	.LVL26:
 433:../../core/ST/STM32L4xx_HAL_Driver/Src/stm32l4xx_hal_pwr_ex.c ****        break;
 487              		.loc 1 433 0
ARM GAS  /tmp/ccmTrwWQ.s 			page 17


 488 006c 7047     		bx	lr
 489              	.LVL27:
 490              	.L47:
 434:../../core/ST/STM32L4xx_HAL_Driver/Src/stm32l4xx_hal_pwr_ex.c **** #endif
 435:../../core/ST/STM32L4xx_HAL_Driver/Src/stm32l4xx_hal_pwr_ex.c **** #if defined(GPIOE)
 436:../../core/ST/STM32L4xx_HAL_Driver/Src/stm32l4xx_hal_pwr_ex.c ****     case PWR_GPIO_E:
 437:../../core/ST/STM32L4xx_HAL_Driver/Src/stm32l4xx_hal_pwr_ex.c ****        SET_BIT(PWR->PUCRE, GPIONumber);
 491              		.loc 1 437 0
 492 006e 1D4B     		ldr	r3, .L53
 493 0070 1A6C     		ldr	r2, [r3, #64]
 494 0072 0A43     		orrs	r2, r2, r1
 495 0074 1A64     		str	r2, [r3, #64]
 438:../../core/ST/STM32L4xx_HAL_Driver/Src/stm32l4xx_hal_pwr_ex.c ****        CLEAR_BIT(PWR->PDCRE, GPIONumber);
 496              		.loc 1 438 0
 497 0076 5A6C     		ldr	r2, [r3, #68]
 498 0078 22EA0101 		bic	r1, r2, r1
 499              	.LVL28:
 500 007c 5964     		str	r1, [r3, #68]
 410:../../core/ST/STM32L4xx_HAL_Driver/Src/stm32l4xx_hal_pwr_ex.c **** 
 501              		.loc 1 410 0
 502 007e 0020     		movs	r0, #0
 503              	.LVL29:
 439:../../core/ST/STM32L4xx_HAL_Driver/Src/stm32l4xx_hal_pwr_ex.c ****        break;
 504              		.loc 1 439 0
 505 0080 7047     		bx	lr
 506              	.LVL30:
 507              	.L48:
 440:../../core/ST/STM32L4xx_HAL_Driver/Src/stm32l4xx_hal_pwr_ex.c **** #endif
 441:../../core/ST/STM32L4xx_HAL_Driver/Src/stm32l4xx_hal_pwr_ex.c **** #if defined(GPIOF)
 442:../../core/ST/STM32L4xx_HAL_Driver/Src/stm32l4xx_hal_pwr_ex.c ****     case PWR_GPIO_F:
 443:../../core/ST/STM32L4xx_HAL_Driver/Src/stm32l4xx_hal_pwr_ex.c ****        SET_BIT(PWR->PUCRF, GPIONumber);
 508              		.loc 1 443 0
 509 0082 184B     		ldr	r3, .L53
 510 0084 9A6C     		ldr	r2, [r3, #72]
 511 0086 0A43     		orrs	r2, r2, r1
 512 0088 9A64     		str	r2, [r3, #72]
 444:../../core/ST/STM32L4xx_HAL_Driver/Src/stm32l4xx_hal_pwr_ex.c ****        CLEAR_BIT(PWR->PDCRF, GPIONumber);
 513              		.loc 1 444 0
 514 008a DA6C     		ldr	r2, [r3, #76]
 515 008c 22EA0101 		bic	r1, r2, r1
 516              	.LVL31:
 517 0090 D964     		str	r1, [r3, #76]
 410:../../core/ST/STM32L4xx_HAL_Driver/Src/stm32l4xx_hal_pwr_ex.c **** 
 518              		.loc 1 410 0
 519 0092 0020     		movs	r0, #0
 520              	.LVL32:
 445:../../core/ST/STM32L4xx_HAL_Driver/Src/stm32l4xx_hal_pwr_ex.c ****        break;
 521              		.loc 1 445 0
 522 0094 7047     		bx	lr
 523              	.LVL33:
 524              	.L49:
 446:../../core/ST/STM32L4xx_HAL_Driver/Src/stm32l4xx_hal_pwr_ex.c **** #endif
 447:../../core/ST/STM32L4xx_HAL_Driver/Src/stm32l4xx_hal_pwr_ex.c **** #if defined(GPIOG)
 448:../../core/ST/STM32L4xx_HAL_Driver/Src/stm32l4xx_hal_pwr_ex.c ****     case PWR_GPIO_G:
 449:../../core/ST/STM32L4xx_HAL_Driver/Src/stm32l4xx_hal_pwr_ex.c ****        SET_BIT(PWR->PUCRG, GPIONumber);
 525              		.loc 1 449 0
 526 0096 134B     		ldr	r3, .L53
ARM GAS  /tmp/ccmTrwWQ.s 			page 18


 527 0098 1A6D     		ldr	r2, [r3, #80]
 528 009a 0A43     		orrs	r2, r2, r1
 529 009c 1A65     		str	r2, [r3, #80]
 450:../../core/ST/STM32L4xx_HAL_Driver/Src/stm32l4xx_hal_pwr_ex.c ****        CLEAR_BIT(PWR->PDCRG, GPIONumber);
 530              		.loc 1 450 0
 531 009e 5A6D     		ldr	r2, [r3, #84]
 532 00a0 22EA0101 		bic	r1, r2, r1
 533              	.LVL34:
 534 00a4 5965     		str	r1, [r3, #84]
 410:../../core/ST/STM32L4xx_HAL_Driver/Src/stm32l4xx_hal_pwr_ex.c **** 
 535              		.loc 1 410 0
 536 00a6 0020     		movs	r0, #0
 537              	.LVL35:
 451:../../core/ST/STM32L4xx_HAL_Driver/Src/stm32l4xx_hal_pwr_ex.c ****        break;
 538              		.loc 1 451 0
 539 00a8 7047     		bx	lr
 540              	.LVL36:
 541              	.L50:
 452:../../core/ST/STM32L4xx_HAL_Driver/Src/stm32l4xx_hal_pwr_ex.c **** #endif
 453:../../core/ST/STM32L4xx_HAL_Driver/Src/stm32l4xx_hal_pwr_ex.c ****     case PWR_GPIO_H:
 454:../../core/ST/STM32L4xx_HAL_Driver/Src/stm32l4xx_hal_pwr_ex.c ****        SET_BIT(PWR->PUCRH, (GPIONumber & PWR_PORTH_AVAILABLE_PINS));
 542              		.loc 1 454 0
 543 00aa 0E4B     		ldr	r3, .L53
 544 00ac 9A6D     		ldr	r2, [r3, #88]
 545 00ae 88B2     		uxth	r0, r1
 546              	.LVL37:
 547 00b0 0243     		orrs	r2, r2, r0
 548 00b2 9A65     		str	r2, [r3, #88]
 455:../../core/ST/STM32L4xx_HAL_Driver/Src/stm32l4xx_hal_pwr_ex.c **** #if defined (STM32L496xx) || defined (STM32L4A6xx)
 456:../../core/ST/STM32L4xx_HAL_Driver/Src/stm32l4xx_hal_pwr_ex.c ****        CLEAR_BIT(PWR->PDCRH, ((GPIONumber & PWR_PORTH_AVAILABLE_PINS) & (~(PWR_GPIO_BIT_3))));
 549              		.loc 1 456 0
 550 00b4 DA6D     		ldr	r2, [r3, #92]
 551 00b6 21F00801 		bic	r1, r1, #8
 552              	.LVL38:
 553 00ba 0904     		lsls	r1, r1, #16
 554 00bc 090C     		lsrs	r1, r1, #16
 555 00be 22EA0101 		bic	r1, r2, r1
 556 00c2 D965     		str	r1, [r3, #92]
 410:../../core/ST/STM32L4xx_HAL_Driver/Src/stm32l4xx_hal_pwr_ex.c **** 
 557              		.loc 1 410 0
 558 00c4 0020     		movs	r0, #0
 457:../../core/ST/STM32L4xx_HAL_Driver/Src/stm32l4xx_hal_pwr_ex.c **** #else
 458:../../core/ST/STM32L4xx_HAL_Driver/Src/stm32l4xx_hal_pwr_ex.c ****        CLEAR_BIT(PWR->PDCRH, (GPIONumber & PWR_PORTH_AVAILABLE_PINS));
 459:../../core/ST/STM32L4xx_HAL_Driver/Src/stm32l4xx_hal_pwr_ex.c **** #endif
 460:../../core/ST/STM32L4xx_HAL_Driver/Src/stm32l4xx_hal_pwr_ex.c ****        break;
 559              		.loc 1 460 0
 560 00c6 7047     		bx	lr
 561              	.LVL39:
 562              	.L51:
 461:../../core/ST/STM32L4xx_HAL_Driver/Src/stm32l4xx_hal_pwr_ex.c **** #if defined(GPIOI)
 462:../../core/ST/STM32L4xx_HAL_Driver/Src/stm32l4xx_hal_pwr_ex.c ****     case PWR_GPIO_I:
 463:../../core/ST/STM32L4xx_HAL_Driver/Src/stm32l4xx_hal_pwr_ex.c ****        SET_BIT(PWR->PUCRI, (GPIONumber & PWR_PORTI_AVAILABLE_PINS));
 563              		.loc 1 463 0
 564 00c8 064B     		ldr	r3, .L53
 565 00ca 1A6E     		ldr	r2, [r3, #96]
 566 00cc C1F30B01 		ubfx	r1, r1, #0, #12
 567              	.LVL40:
ARM GAS  /tmp/ccmTrwWQ.s 			page 19


 568 00d0 0A43     		orrs	r2, r2, r1
 569 00d2 1A66     		str	r2, [r3, #96]
 464:../../core/ST/STM32L4xx_HAL_Driver/Src/stm32l4xx_hal_pwr_ex.c ****        CLEAR_BIT(PWR->PDCRI, (GPIONumber & PWR_PORTI_AVAILABLE_PINS));
 570              		.loc 1 464 0
 571 00d4 5A6E     		ldr	r2, [r3, #100]
 572 00d6 22EA0101 		bic	r1, r2, r1
 573 00da 5966     		str	r1, [r3, #100]
 410:../../core/ST/STM32L4xx_HAL_Driver/Src/stm32l4xx_hal_pwr_ex.c **** 
 574              		.loc 1 410 0
 575 00dc 0020     		movs	r0, #0
 576              	.LVL41:
 465:../../core/ST/STM32L4xx_HAL_Driver/Src/stm32l4xx_hal_pwr_ex.c ****        break;
 577              		.loc 1 465 0
 578 00de 7047     		bx	lr
 579              	.LVL42:
 580              	.L52:
 466:../../core/ST/STM32L4xx_HAL_Driver/Src/stm32l4xx_hal_pwr_ex.c **** #endif
 467:../../core/ST/STM32L4xx_HAL_Driver/Src/stm32l4xx_hal_pwr_ex.c ****     default:
 468:../../core/ST/STM32L4xx_HAL_Driver/Src/stm32l4xx_hal_pwr_ex.c ****       status = HAL_ERROR;
 581              		.loc 1 468 0
 582 00e0 0120     		movs	r0, #1
 583              	.LVL43:
 469:../../core/ST/STM32L4xx_HAL_Driver/Src/stm32l4xx_hal_pwr_ex.c ****       break;
 470:../../core/ST/STM32L4xx_HAL_Driver/Src/stm32l4xx_hal_pwr_ex.c ****   }
 471:../../core/ST/STM32L4xx_HAL_Driver/Src/stm32l4xx_hal_pwr_ex.c **** 
 472:../../core/ST/STM32L4xx_HAL_Driver/Src/stm32l4xx_hal_pwr_ex.c ****   return status;
 473:../../core/ST/STM32L4xx_HAL_Driver/Src/stm32l4xx_hal_pwr_ex.c **** }
 584              		.loc 1 473 0
 585 00e2 7047     		bx	lr
 586              	.L54:
 587              		.align	2
 588              	.L53:
 589 00e4 00700040 		.word	1073770496
 590              		.cfi_endproc
 591              	.LFE133:
 593              		.section	.text.HAL_PWREx_DisableGPIOPullUp,"ax",%progbits
 594              		.align	1
 595              		.global	HAL_PWREx_DisableGPIOPullUp
 596              		.syntax unified
 597              		.thumb
 598              		.thumb_func
 599              		.fpu fpv4-sp-d16
 601              	HAL_PWREx_DisableGPIOPullUp:
 602              	.LFB134:
 474:../../core/ST/STM32L4xx_HAL_Driver/Src/stm32l4xx_hal_pwr_ex.c **** 
 475:../../core/ST/STM32L4xx_HAL_Driver/Src/stm32l4xx_hal_pwr_ex.c **** 
 476:../../core/ST/STM32L4xx_HAL_Driver/Src/stm32l4xx_hal_pwr_ex.c **** /**
 477:../../core/ST/STM32L4xx_HAL_Driver/Src/stm32l4xx_hal_pwr_ex.c ****   * @brief Disable GPIO pull-up state in Standby mode and Shutdown modes.
 478:../../core/ST/STM32L4xx_HAL_Driver/Src/stm32l4xx_hal_pwr_ex.c ****   * @note  Reset the relevant PUy bits of PWR_PUCRx register used to configure the I/O
 479:../../core/ST/STM32L4xx_HAL_Driver/Src/stm32l4xx_hal_pwr_ex.c ****   *        in pull-up state in Standby and Shutdown modes.
 480:../../core/ST/STM32L4xx_HAL_Driver/Src/stm32l4xx_hal_pwr_ex.c ****   * @note  Even if a PUy bit to reset is reserved, the other PUy bits entered as input
 481:../../core/ST/STM32L4xx_HAL_Driver/Src/stm32l4xx_hal_pwr_ex.c ****   *        parameter at the same time are reset.
 482:../../core/ST/STM32L4xx_HAL_Driver/Src/stm32l4xx_hal_pwr_ex.c ****   * @param  GPIO: Specifies the IO port. This parameter can be PWR_GPIO_A, ..., PWR_GPIO_H
 483:../../core/ST/STM32L4xx_HAL_Driver/Src/stm32l4xx_hal_pwr_ex.c ****   *          (or PWR_GPIO_I depending on the devices) to select the GPIO peripheral.
 484:../../core/ST/STM32L4xx_HAL_Driver/Src/stm32l4xx_hal_pwr_ex.c ****   * @param  GPIONumber: Specify the I/O pins numbers.
 485:../../core/ST/STM32L4xx_HAL_Driver/Src/stm32l4xx_hal_pwr_ex.c ****   *         This parameter can be one of the following values:
 486:../../core/ST/STM32L4xx_HAL_Driver/Src/stm32l4xx_hal_pwr_ex.c ****   *         PWR_GPIO_BIT_0, ..., PWR_GPIO_BIT_15 (except for the port where less
ARM GAS  /tmp/ccmTrwWQ.s 			page 20


 487:../../core/ST/STM32L4xx_HAL_Driver/Src/stm32l4xx_hal_pwr_ex.c ****   *         I/O pins are available) or the logical OR of several of them to reset
 488:../../core/ST/STM32L4xx_HAL_Driver/Src/stm32l4xx_hal_pwr_ex.c ****   *         several bits for a given port in a single API call.
 489:../../core/ST/STM32L4xx_HAL_Driver/Src/stm32l4xx_hal_pwr_ex.c ****   * @retval HAL Status
 490:../../core/ST/STM32L4xx_HAL_Driver/Src/stm32l4xx_hal_pwr_ex.c ****   */
 491:../../core/ST/STM32L4xx_HAL_Driver/Src/stm32l4xx_hal_pwr_ex.c **** HAL_StatusTypeDef HAL_PWREx_DisableGPIOPullUp(uint32_t GPIO, uint32_t GPIONumber)
 492:../../core/ST/STM32L4xx_HAL_Driver/Src/stm32l4xx_hal_pwr_ex.c **** {
 603              		.loc 1 492 0
 604              		.cfi_startproc
 605              		@ args = 0, pretend = 0, frame = 0
 606              		@ frame_needed = 0, uses_anonymous_args = 0
 607              		@ link register save eliminated.
 608              	.LVL44:
 493:../../core/ST/STM32L4xx_HAL_Driver/Src/stm32l4xx_hal_pwr_ex.c ****   HAL_StatusTypeDef status = HAL_OK;
 494:../../core/ST/STM32L4xx_HAL_Driver/Src/stm32l4xx_hal_pwr_ex.c **** 
 495:../../core/ST/STM32L4xx_HAL_Driver/Src/stm32l4xx_hal_pwr_ex.c ****   assert_param(IS_PWR_GPIO(GPIO));
 496:../../core/ST/STM32L4xx_HAL_Driver/Src/stm32l4xx_hal_pwr_ex.c ****   assert_param(IS_PWR_GPIO_BIT_NUMBER(GPIONumber));
 497:../../core/ST/STM32L4xx_HAL_Driver/Src/stm32l4xx_hal_pwr_ex.c **** 
 498:../../core/ST/STM32L4xx_HAL_Driver/Src/stm32l4xx_hal_pwr_ex.c ****   switch (GPIO)
 609              		.loc 1 498 0
 610 0000 0828     		cmp	r0, #8
 611 0002 4AD8     		bhi	.L67
 612 0004 DFE800F0 		tbb	[pc, r0]
 613              	.L58:
 614 0008 05       		.byte	(.L57-.L58)/2
 615 0009 0E       		.byte	(.L59-.L58)/2
 616 000a 15       		.byte	(.L60-.L58)/2
 617 000b 1C       		.byte	(.L61-.L58)/2
 618 000c 23       		.byte	(.L62-.L58)/2
 619 000d 2A       		.byte	(.L63-.L58)/2
 620 000e 31       		.byte	(.L64-.L58)/2
 621 000f 38       		.byte	(.L65-.L58)/2
 622 0010 40       		.byte	(.L66-.L58)/2
 623 0011 00       		.p2align 1
 624              	.L57:
 499:../../core/ST/STM32L4xx_HAL_Driver/Src/stm32l4xx_hal_pwr_ex.c ****   {
 500:../../core/ST/STM32L4xx_HAL_Driver/Src/stm32l4xx_hal_pwr_ex.c ****     case PWR_GPIO_A:
 501:../../core/ST/STM32L4xx_HAL_Driver/Src/stm32l4xx_hal_pwr_ex.c ****        CLEAR_BIT(PWR->PUCRA, (GPIONumber & (~(PWR_GPIO_BIT_14))));
 625              		.loc 1 501 0
 626 0012 234A     		ldr	r2, .L68
 627 0014 136A     		ldr	r3, [r2, #32]
 628 0016 21F48041 		bic	r1, r1, #16384
 629              	.LVL45:
 630 001a 23EA0101 		bic	r1, r3, r1
 631 001e 1162     		str	r1, [r2, #32]
 493:../../core/ST/STM32L4xx_HAL_Driver/Src/stm32l4xx_hal_pwr_ex.c ****   HAL_StatusTypeDef status = HAL_OK;
 632              		.loc 1 493 0
 633 0020 0020     		movs	r0, #0
 634              	.LVL46:
 502:../../core/ST/STM32L4xx_HAL_Driver/Src/stm32l4xx_hal_pwr_ex.c ****        break;
 635              		.loc 1 502 0
 636 0022 7047     		bx	lr
 637              	.LVL47:
 638              	.L59:
 503:../../core/ST/STM32L4xx_HAL_Driver/Src/stm32l4xx_hal_pwr_ex.c ****     case PWR_GPIO_B:
 504:../../core/ST/STM32L4xx_HAL_Driver/Src/stm32l4xx_hal_pwr_ex.c ****        CLEAR_BIT(PWR->PUCRB, GPIONumber);
 639              		.loc 1 504 0
 640 0024 1E4A     		ldr	r2, .L68
ARM GAS  /tmp/ccmTrwWQ.s 			page 21


 641 0026 936A     		ldr	r3, [r2, #40]
 642 0028 23EA0101 		bic	r1, r3, r1
 643              	.LVL48:
 644 002c 9162     		str	r1, [r2, #40]
 493:../../core/ST/STM32L4xx_HAL_Driver/Src/stm32l4xx_hal_pwr_ex.c **** 
 645              		.loc 1 493 0
 646 002e 0020     		movs	r0, #0
 647              	.LVL49:
 505:../../core/ST/STM32L4xx_HAL_Driver/Src/stm32l4xx_hal_pwr_ex.c ****        break;
 648              		.loc 1 505 0
 649 0030 7047     		bx	lr
 650              	.LVL50:
 651              	.L60:
 506:../../core/ST/STM32L4xx_HAL_Driver/Src/stm32l4xx_hal_pwr_ex.c ****     case PWR_GPIO_C:
 507:../../core/ST/STM32L4xx_HAL_Driver/Src/stm32l4xx_hal_pwr_ex.c ****        CLEAR_BIT(PWR->PUCRC, GPIONumber);
 652              		.loc 1 507 0
 653 0032 1B4A     		ldr	r2, .L68
 654 0034 136B     		ldr	r3, [r2, #48]
 655 0036 23EA0101 		bic	r1, r3, r1
 656              	.LVL51:
 657 003a 1163     		str	r1, [r2, #48]
 493:../../core/ST/STM32L4xx_HAL_Driver/Src/stm32l4xx_hal_pwr_ex.c **** 
 658              		.loc 1 493 0
 659 003c 0020     		movs	r0, #0
 660              	.LVL52:
 508:../../core/ST/STM32L4xx_HAL_Driver/Src/stm32l4xx_hal_pwr_ex.c ****        break;
 661              		.loc 1 508 0
 662 003e 7047     		bx	lr
 663              	.LVL53:
 664              	.L61:
 509:../../core/ST/STM32L4xx_HAL_Driver/Src/stm32l4xx_hal_pwr_ex.c **** #if defined(GPIOD)
 510:../../core/ST/STM32L4xx_HAL_Driver/Src/stm32l4xx_hal_pwr_ex.c ****     case PWR_GPIO_D:
 511:../../core/ST/STM32L4xx_HAL_Driver/Src/stm32l4xx_hal_pwr_ex.c ****        CLEAR_BIT(PWR->PUCRD, GPIONumber);
 665              		.loc 1 511 0
 666 0040 174A     		ldr	r2, .L68
 667 0042 936B     		ldr	r3, [r2, #56]
 668 0044 23EA0101 		bic	r1, r3, r1
 669              	.LVL54:
 670 0048 9163     		str	r1, [r2, #56]
 493:../../core/ST/STM32L4xx_HAL_Driver/Src/stm32l4xx_hal_pwr_ex.c **** 
 671              		.loc 1 493 0
 672 004a 0020     		movs	r0, #0
 673              	.LVL55:
 512:../../core/ST/STM32L4xx_HAL_Driver/Src/stm32l4xx_hal_pwr_ex.c ****        break;
 674              		.loc 1 512 0
 675 004c 7047     		bx	lr
 676              	.LVL56:
 677              	.L62:
 513:../../core/ST/STM32L4xx_HAL_Driver/Src/stm32l4xx_hal_pwr_ex.c **** #endif
 514:../../core/ST/STM32L4xx_HAL_Driver/Src/stm32l4xx_hal_pwr_ex.c **** #if defined(GPIOE)
 515:../../core/ST/STM32L4xx_HAL_Driver/Src/stm32l4xx_hal_pwr_ex.c ****     case PWR_GPIO_E:
 516:../../core/ST/STM32L4xx_HAL_Driver/Src/stm32l4xx_hal_pwr_ex.c ****        CLEAR_BIT(PWR->PUCRE, GPIONumber);
 678              		.loc 1 516 0
 679 004e 144A     		ldr	r2, .L68
 680 0050 136C     		ldr	r3, [r2, #64]
 681 0052 23EA0101 		bic	r1, r3, r1
 682              	.LVL57:
ARM GAS  /tmp/ccmTrwWQ.s 			page 22


 683 0056 1164     		str	r1, [r2, #64]
 493:../../core/ST/STM32L4xx_HAL_Driver/Src/stm32l4xx_hal_pwr_ex.c **** 
 684              		.loc 1 493 0
 685 0058 0020     		movs	r0, #0
 686              	.LVL58:
 517:../../core/ST/STM32L4xx_HAL_Driver/Src/stm32l4xx_hal_pwr_ex.c ****        break;
 687              		.loc 1 517 0
 688 005a 7047     		bx	lr
 689              	.LVL59:
 690              	.L63:
 518:../../core/ST/STM32L4xx_HAL_Driver/Src/stm32l4xx_hal_pwr_ex.c **** #endif
 519:../../core/ST/STM32L4xx_HAL_Driver/Src/stm32l4xx_hal_pwr_ex.c **** #if defined(GPIOF)
 520:../../core/ST/STM32L4xx_HAL_Driver/Src/stm32l4xx_hal_pwr_ex.c ****     case PWR_GPIO_F:
 521:../../core/ST/STM32L4xx_HAL_Driver/Src/stm32l4xx_hal_pwr_ex.c ****        CLEAR_BIT(PWR->PUCRF, GPIONumber);
 691              		.loc 1 521 0
 692 005c 104A     		ldr	r2, .L68
 693 005e 936C     		ldr	r3, [r2, #72]
 694 0060 23EA0101 		bic	r1, r3, r1
 695              	.LVL60:
 696 0064 9164     		str	r1, [r2, #72]
 493:../../core/ST/STM32L4xx_HAL_Driver/Src/stm32l4xx_hal_pwr_ex.c **** 
 697              		.loc 1 493 0
 698 0066 0020     		movs	r0, #0
 699              	.LVL61:
 522:../../core/ST/STM32L4xx_HAL_Driver/Src/stm32l4xx_hal_pwr_ex.c ****        break;
 700              		.loc 1 522 0
 701 0068 7047     		bx	lr
 702              	.LVL62:
 703              	.L64:
 523:../../core/ST/STM32L4xx_HAL_Driver/Src/stm32l4xx_hal_pwr_ex.c **** #endif
 524:../../core/ST/STM32L4xx_HAL_Driver/Src/stm32l4xx_hal_pwr_ex.c **** #if defined(GPIOG)
 525:../../core/ST/STM32L4xx_HAL_Driver/Src/stm32l4xx_hal_pwr_ex.c ****     case PWR_GPIO_G:
 526:../../core/ST/STM32L4xx_HAL_Driver/Src/stm32l4xx_hal_pwr_ex.c ****        CLEAR_BIT(PWR->PUCRG, GPIONumber);
 704              		.loc 1 526 0
 705 006a 0D4A     		ldr	r2, .L68
 706 006c 136D     		ldr	r3, [r2, #80]
 707 006e 23EA0101 		bic	r1, r3, r1
 708              	.LVL63:
 709 0072 1165     		str	r1, [r2, #80]
 493:../../core/ST/STM32L4xx_HAL_Driver/Src/stm32l4xx_hal_pwr_ex.c **** 
 710              		.loc 1 493 0
 711 0074 0020     		movs	r0, #0
 712              	.LVL64:
 527:../../core/ST/STM32L4xx_HAL_Driver/Src/stm32l4xx_hal_pwr_ex.c ****        break;
 713              		.loc 1 527 0
 714 0076 7047     		bx	lr
 715              	.LVL65:
 716              	.L65:
 528:../../core/ST/STM32L4xx_HAL_Driver/Src/stm32l4xx_hal_pwr_ex.c **** #endif
 529:../../core/ST/STM32L4xx_HAL_Driver/Src/stm32l4xx_hal_pwr_ex.c ****     case PWR_GPIO_H:
 530:../../core/ST/STM32L4xx_HAL_Driver/Src/stm32l4xx_hal_pwr_ex.c ****        CLEAR_BIT(PWR->PUCRH, (GPIONumber & PWR_PORTH_AVAILABLE_PINS));
 717              		.loc 1 530 0
 718 0078 094A     		ldr	r2, .L68
 719 007a 936D     		ldr	r3, [r2, #88]
 720 007c 89B2     		uxth	r1, r1
 721              	.LVL66:
 722 007e 23EA0101 		bic	r1, r3, r1
ARM GAS  /tmp/ccmTrwWQ.s 			page 23


 723 0082 9165     		str	r1, [r2, #88]
 493:../../core/ST/STM32L4xx_HAL_Driver/Src/stm32l4xx_hal_pwr_ex.c **** 
 724              		.loc 1 493 0
 725 0084 0020     		movs	r0, #0
 726              	.LVL67:
 531:../../core/ST/STM32L4xx_HAL_Driver/Src/stm32l4xx_hal_pwr_ex.c ****        break;
 727              		.loc 1 531 0
 728 0086 7047     		bx	lr
 729              	.LVL68:
 730              	.L66:
 532:../../core/ST/STM32L4xx_HAL_Driver/Src/stm32l4xx_hal_pwr_ex.c **** #if defined(GPIOI)
 533:../../core/ST/STM32L4xx_HAL_Driver/Src/stm32l4xx_hal_pwr_ex.c ****     case PWR_GPIO_I:
 534:../../core/ST/STM32L4xx_HAL_Driver/Src/stm32l4xx_hal_pwr_ex.c ****        CLEAR_BIT(PWR->PUCRI, (GPIONumber & PWR_PORTI_AVAILABLE_PINS));
 731              		.loc 1 534 0
 732 0088 054A     		ldr	r2, .L68
 733 008a 136E     		ldr	r3, [r2, #96]
 734 008c C1F30B01 		ubfx	r1, r1, #0, #12
 735              	.LVL69:
 736 0090 23EA0101 		bic	r1, r3, r1
 737 0094 1166     		str	r1, [r2, #96]
 493:../../core/ST/STM32L4xx_HAL_Driver/Src/stm32l4xx_hal_pwr_ex.c **** 
 738              		.loc 1 493 0
 739 0096 0020     		movs	r0, #0
 740              	.LVL70:
 535:../../core/ST/STM32L4xx_HAL_Driver/Src/stm32l4xx_hal_pwr_ex.c ****        break;
 741              		.loc 1 535 0
 742 0098 7047     		bx	lr
 743              	.LVL71:
 744              	.L67:
 536:../../core/ST/STM32L4xx_HAL_Driver/Src/stm32l4xx_hal_pwr_ex.c **** #endif
 537:../../core/ST/STM32L4xx_HAL_Driver/Src/stm32l4xx_hal_pwr_ex.c ****     default:
 538:../../core/ST/STM32L4xx_HAL_Driver/Src/stm32l4xx_hal_pwr_ex.c ****        status = HAL_ERROR;
 745              		.loc 1 538 0
 746 009a 0120     		movs	r0, #1
 747              	.LVL72:
 539:../../core/ST/STM32L4xx_HAL_Driver/Src/stm32l4xx_hal_pwr_ex.c ****        break;
 540:../../core/ST/STM32L4xx_HAL_Driver/Src/stm32l4xx_hal_pwr_ex.c ****   }
 541:../../core/ST/STM32L4xx_HAL_Driver/Src/stm32l4xx_hal_pwr_ex.c **** 
 542:../../core/ST/STM32L4xx_HAL_Driver/Src/stm32l4xx_hal_pwr_ex.c ****   return status;
 543:../../core/ST/STM32L4xx_HAL_Driver/Src/stm32l4xx_hal_pwr_ex.c **** }
 748              		.loc 1 543 0
 749 009c 7047     		bx	lr
 750              	.L69:
 751 009e 00BF     		.align	2
 752              	.L68:
 753 00a0 00700040 		.word	1073770496
 754              		.cfi_endproc
 755              	.LFE134:
 757              		.section	.text.HAL_PWREx_EnableGPIOPullDown,"ax",%progbits
 758              		.align	1
 759              		.global	HAL_PWREx_EnableGPIOPullDown
 760              		.syntax unified
 761              		.thumb
 762              		.thumb_func
 763              		.fpu fpv4-sp-d16
 765              	HAL_PWREx_EnableGPIOPullDown:
 766              	.LFB135:
ARM GAS  /tmp/ccmTrwWQ.s 			page 24


 544:../../core/ST/STM32L4xx_HAL_Driver/Src/stm32l4xx_hal_pwr_ex.c **** 
 545:../../core/ST/STM32L4xx_HAL_Driver/Src/stm32l4xx_hal_pwr_ex.c **** 
 546:../../core/ST/STM32L4xx_HAL_Driver/Src/stm32l4xx_hal_pwr_ex.c **** 
 547:../../core/ST/STM32L4xx_HAL_Driver/Src/stm32l4xx_hal_pwr_ex.c **** /**
 548:../../core/ST/STM32L4xx_HAL_Driver/Src/stm32l4xx_hal_pwr_ex.c ****   * @brief Enable GPIO pull-down state in Standby and Shutdown modes.
 549:../../core/ST/STM32L4xx_HAL_Driver/Src/stm32l4xx_hal_pwr_ex.c ****   * @note  Set the relevant PDy bits of PWR_PDCRx register to configure the I/O in
 550:../../core/ST/STM32L4xx_HAL_Driver/Src/stm32l4xx_hal_pwr_ex.c ****   *        pull-down state in Standby and Shutdown modes.
 551:../../core/ST/STM32L4xx_HAL_Driver/Src/stm32l4xx_hal_pwr_ex.c ****   * @note  This state is effective in Standby and Shutdown modes only if APC bit
 552:../../core/ST/STM32L4xx_HAL_Driver/Src/stm32l4xx_hal_pwr_ex.c ****   *        is set through HAL_PWREx_EnablePullUpPullDownConfig() API.
 553:../../core/ST/STM32L4xx_HAL_Driver/Src/stm32l4xx_hal_pwr_ex.c ****   * @note  The configuration is lost when exiting the Shutdown mode due to the
 554:../../core/ST/STM32L4xx_HAL_Driver/Src/stm32l4xx_hal_pwr_ex.c ****   *        power-on reset, maintained when exiting the Standby mode.
 555:../../core/ST/STM32L4xx_HAL_Driver/Src/stm32l4xx_hal_pwr_ex.c ****   * @note  To avoid any conflict at Standby and Shutdown modes exits, the corresponding
 556:../../core/ST/STM32L4xx_HAL_Driver/Src/stm32l4xx_hal_pwr_ex.c ****   *        PUy bit of PWR_PUCRx register is cleared unless it is reserved.
 557:../../core/ST/STM32L4xx_HAL_Driver/Src/stm32l4xx_hal_pwr_ex.c ****   * @note  Even if a PDy bit to set is reserved, the other PDy bits entered as input
 558:../../core/ST/STM32L4xx_HAL_Driver/Src/stm32l4xx_hal_pwr_ex.c ****   *        parameter at the same time are set.
 559:../../core/ST/STM32L4xx_HAL_Driver/Src/stm32l4xx_hal_pwr_ex.c ****   * @param  GPIO: Specify the IO port. This parameter can be PWR_GPIO_A..PWR_GPIO_H
 560:../../core/ST/STM32L4xx_HAL_Driver/Src/stm32l4xx_hal_pwr_ex.c ****   *         (or PWR_GPIO_I depending on the devices) to select the GPIO peripheral.
 561:../../core/ST/STM32L4xx_HAL_Driver/Src/stm32l4xx_hal_pwr_ex.c ****   * @param  GPIONumber: Specify the I/O pins numbers.
 562:../../core/ST/STM32L4xx_HAL_Driver/Src/stm32l4xx_hal_pwr_ex.c ****   *         This parameter can be one of the following values:
 563:../../core/ST/STM32L4xx_HAL_Driver/Src/stm32l4xx_hal_pwr_ex.c ****   *         PWR_GPIO_BIT_0, ..., PWR_GPIO_BIT_15 (except for the port where less
 564:../../core/ST/STM32L4xx_HAL_Driver/Src/stm32l4xx_hal_pwr_ex.c ****   *         I/O pins are available) or the logical OR of several of them to set
 565:../../core/ST/STM32L4xx_HAL_Driver/Src/stm32l4xx_hal_pwr_ex.c ****   *         several bits for a given port in a single API call.
 566:../../core/ST/STM32L4xx_HAL_Driver/Src/stm32l4xx_hal_pwr_ex.c ****   * @retval HAL Status
 567:../../core/ST/STM32L4xx_HAL_Driver/Src/stm32l4xx_hal_pwr_ex.c ****   */
 568:../../core/ST/STM32L4xx_HAL_Driver/Src/stm32l4xx_hal_pwr_ex.c **** HAL_StatusTypeDef HAL_PWREx_EnableGPIOPullDown(uint32_t GPIO, uint32_t GPIONumber)
 569:../../core/ST/STM32L4xx_HAL_Driver/Src/stm32l4xx_hal_pwr_ex.c **** {
 767              		.loc 1 569 0
 768              		.cfi_startproc
 769              		@ args = 0, pretend = 0, frame = 0
 770              		@ frame_needed = 0, uses_anonymous_args = 0
 771              		@ link register save eliminated.
 772              	.LVL73:
 570:../../core/ST/STM32L4xx_HAL_Driver/Src/stm32l4xx_hal_pwr_ex.c ****   HAL_StatusTypeDef status = HAL_OK;
 571:../../core/ST/STM32L4xx_HAL_Driver/Src/stm32l4xx_hal_pwr_ex.c **** 
 572:../../core/ST/STM32L4xx_HAL_Driver/Src/stm32l4xx_hal_pwr_ex.c ****   assert_param(IS_PWR_GPIO(GPIO));
 573:../../core/ST/STM32L4xx_HAL_Driver/Src/stm32l4xx_hal_pwr_ex.c ****   assert_param(IS_PWR_GPIO_BIT_NUMBER(GPIONumber));
 574:../../core/ST/STM32L4xx_HAL_Driver/Src/stm32l4xx_hal_pwr_ex.c **** 
 575:../../core/ST/STM32L4xx_HAL_Driver/Src/stm32l4xx_hal_pwr_ex.c ****   switch (GPIO)
 773              		.loc 1 575 0
 774 0000 0828     		cmp	r0, #8
 775 0002 6CD8     		bhi	.L82
 776 0004 DFE800F0 		tbb	[pc, r0]
 777              	.L73:
 778 0008 05       		.byte	(.L72-.L73)/2
 779 0009 13       		.byte	(.L74-.L73)/2
 780 000a 1F       		.byte	(.L75-.L73)/2
 781 000b 29       		.byte	(.L76-.L73)/2
 782 000c 33       		.byte	(.L77-.L73)/2
 783 000d 3D       		.byte	(.L78-.L73)/2
 784 000e 47       		.byte	(.L79-.L73)/2
 785 000f 51       		.byte	(.L80-.L73)/2
 786 0010 5F       		.byte	(.L81-.L73)/2
 787 0011 00       		.p2align 1
 788              	.L72:
 576:../../core/ST/STM32L4xx_HAL_Driver/Src/stm32l4xx_hal_pwr_ex.c ****   {
 577:../../core/ST/STM32L4xx_HAL_Driver/Src/stm32l4xx_hal_pwr_ex.c ****     case PWR_GPIO_A:
 578:../../core/ST/STM32L4xx_HAL_Driver/Src/stm32l4xx_hal_pwr_ex.c ****        SET_BIT(PWR->PDCRA, (GPIONumber & (~(PWR_GPIO_BIT_13|PWR_GPIO_BIT_15))));
ARM GAS  /tmp/ccmTrwWQ.s 			page 25


 789              		.loc 1 578 0
 790 0012 344B     		ldr	r3, .L83
 791 0014 5A6A     		ldr	r2, [r3, #36]
 792 0016 21F42040 		bic	r0, r1, #40960
 793              	.LVL74:
 794 001a 0243     		orrs	r2, r2, r0
 795 001c 5A62     		str	r2, [r3, #36]
 579:../../core/ST/STM32L4xx_HAL_Driver/Src/stm32l4xx_hal_pwr_ex.c ****        CLEAR_BIT(PWR->PUCRA, (GPIONumber & (~(PWR_GPIO_BIT_14))));
 796              		.loc 1 579 0
 797 001e 1A6A     		ldr	r2, [r3, #32]
 798 0020 21F48041 		bic	r1, r1, #16384
 799              	.LVL75:
 800 0024 22EA0101 		bic	r1, r2, r1
 801 0028 1962     		str	r1, [r3, #32]
 570:../../core/ST/STM32L4xx_HAL_Driver/Src/stm32l4xx_hal_pwr_ex.c ****   HAL_StatusTypeDef status = HAL_OK;
 802              		.loc 1 570 0
 803 002a 0020     		movs	r0, #0
 580:../../core/ST/STM32L4xx_HAL_Driver/Src/stm32l4xx_hal_pwr_ex.c ****        break;
 804              		.loc 1 580 0
 805 002c 7047     		bx	lr
 806              	.LVL76:
 807              	.L74:
 581:../../core/ST/STM32L4xx_HAL_Driver/Src/stm32l4xx_hal_pwr_ex.c ****     case PWR_GPIO_B:
 582:../../core/ST/STM32L4xx_HAL_Driver/Src/stm32l4xx_hal_pwr_ex.c ****        SET_BIT(PWR->PDCRB, (GPIONumber & (~(PWR_GPIO_BIT_4))));
 808              		.loc 1 582 0
 809 002e 2D4B     		ldr	r3, .L83
 810 0030 DA6A     		ldr	r2, [r3, #44]
 811 0032 21F01000 		bic	r0, r1, #16
 812              	.LVL77:
 813 0036 0243     		orrs	r2, r2, r0
 814 0038 DA62     		str	r2, [r3, #44]
 583:../../core/ST/STM32L4xx_HAL_Driver/Src/stm32l4xx_hal_pwr_ex.c ****        CLEAR_BIT(PWR->PUCRB, GPIONumber);
 815              		.loc 1 583 0
 816 003a 9A6A     		ldr	r2, [r3, #40]
 817 003c 22EA0101 		bic	r1, r2, r1
 818              	.LVL78:
 819 0040 9962     		str	r1, [r3, #40]
 570:../../core/ST/STM32L4xx_HAL_Driver/Src/stm32l4xx_hal_pwr_ex.c **** 
 820              		.loc 1 570 0
 821 0042 0020     		movs	r0, #0
 584:../../core/ST/STM32L4xx_HAL_Driver/Src/stm32l4xx_hal_pwr_ex.c ****        break;
 822              		.loc 1 584 0
 823 0044 7047     		bx	lr
 824              	.LVL79:
 825              	.L75:
 585:../../core/ST/STM32L4xx_HAL_Driver/Src/stm32l4xx_hal_pwr_ex.c ****     case PWR_GPIO_C:
 586:../../core/ST/STM32L4xx_HAL_Driver/Src/stm32l4xx_hal_pwr_ex.c ****        SET_BIT(PWR->PDCRC, GPIONumber);
 826              		.loc 1 586 0
 827 0046 274B     		ldr	r3, .L83
 828 0048 5A6B     		ldr	r2, [r3, #52]
 829 004a 0A43     		orrs	r2, r2, r1
 830 004c 5A63     		str	r2, [r3, #52]
 587:../../core/ST/STM32L4xx_HAL_Driver/Src/stm32l4xx_hal_pwr_ex.c ****        CLEAR_BIT(PWR->PUCRC, GPIONumber);
 831              		.loc 1 587 0
 832 004e 1A6B     		ldr	r2, [r3, #48]
 833 0050 22EA0101 		bic	r1, r2, r1
 834              	.LVL80:
ARM GAS  /tmp/ccmTrwWQ.s 			page 26


 835 0054 1963     		str	r1, [r3, #48]
 570:../../core/ST/STM32L4xx_HAL_Driver/Src/stm32l4xx_hal_pwr_ex.c **** 
 836              		.loc 1 570 0
 837 0056 0020     		movs	r0, #0
 838              	.LVL81:
 588:../../core/ST/STM32L4xx_HAL_Driver/Src/stm32l4xx_hal_pwr_ex.c ****        break;
 839              		.loc 1 588 0
 840 0058 7047     		bx	lr
 841              	.LVL82:
 842              	.L76:
 589:../../core/ST/STM32L4xx_HAL_Driver/Src/stm32l4xx_hal_pwr_ex.c **** #if defined(GPIOD)
 590:../../core/ST/STM32L4xx_HAL_Driver/Src/stm32l4xx_hal_pwr_ex.c ****     case PWR_GPIO_D:
 591:../../core/ST/STM32L4xx_HAL_Driver/Src/stm32l4xx_hal_pwr_ex.c ****        SET_BIT(PWR->PDCRD, GPIONumber);
 843              		.loc 1 591 0
 844 005a 224B     		ldr	r3, .L83
 845 005c DA6B     		ldr	r2, [r3, #60]
 846 005e 0A43     		orrs	r2, r2, r1
 847 0060 DA63     		str	r2, [r3, #60]
 592:../../core/ST/STM32L4xx_HAL_Driver/Src/stm32l4xx_hal_pwr_ex.c ****        CLEAR_BIT(PWR->PUCRD, GPIONumber);
 848              		.loc 1 592 0
 849 0062 9A6B     		ldr	r2, [r3, #56]
 850 0064 22EA0101 		bic	r1, r2, r1
 851              	.LVL83:
 852 0068 9963     		str	r1, [r3, #56]
 570:../../core/ST/STM32L4xx_HAL_Driver/Src/stm32l4xx_hal_pwr_ex.c **** 
 853              		.loc 1 570 0
 854 006a 0020     		movs	r0, #0
 855              	.LVL84:
 593:../../core/ST/STM32L4xx_HAL_Driver/Src/stm32l4xx_hal_pwr_ex.c ****        break;
 856              		.loc 1 593 0
 857 006c 7047     		bx	lr
 858              	.LVL85:
 859              	.L77:
 594:../../core/ST/STM32L4xx_HAL_Driver/Src/stm32l4xx_hal_pwr_ex.c **** #endif
 595:../../core/ST/STM32L4xx_HAL_Driver/Src/stm32l4xx_hal_pwr_ex.c **** #if defined(GPIOE)
 596:../../core/ST/STM32L4xx_HAL_Driver/Src/stm32l4xx_hal_pwr_ex.c ****     case PWR_GPIO_E:
 597:../../core/ST/STM32L4xx_HAL_Driver/Src/stm32l4xx_hal_pwr_ex.c ****        SET_BIT(PWR->PDCRE, GPIONumber);
 860              		.loc 1 597 0
 861 006e 1D4B     		ldr	r3, .L83
 862 0070 5A6C     		ldr	r2, [r3, #68]
 863 0072 0A43     		orrs	r2, r2, r1
 864 0074 5A64     		str	r2, [r3, #68]
 598:../../core/ST/STM32L4xx_HAL_Driver/Src/stm32l4xx_hal_pwr_ex.c ****        CLEAR_BIT(PWR->PUCRE, GPIONumber);
 865              		.loc 1 598 0
 866 0076 1A6C     		ldr	r2, [r3, #64]
 867 0078 22EA0101 		bic	r1, r2, r1
 868              	.LVL86:
 869 007c 1964     		str	r1, [r3, #64]
 570:../../core/ST/STM32L4xx_HAL_Driver/Src/stm32l4xx_hal_pwr_ex.c **** 
 870              		.loc 1 570 0
 871 007e 0020     		movs	r0, #0
 872              	.LVL87:
 599:../../core/ST/STM32L4xx_HAL_Driver/Src/stm32l4xx_hal_pwr_ex.c ****        break;
 873              		.loc 1 599 0
 874 0080 7047     		bx	lr
 875              	.LVL88:
 876              	.L78:
ARM GAS  /tmp/ccmTrwWQ.s 			page 27


 600:../../core/ST/STM32L4xx_HAL_Driver/Src/stm32l4xx_hal_pwr_ex.c **** #endif
 601:../../core/ST/STM32L4xx_HAL_Driver/Src/stm32l4xx_hal_pwr_ex.c **** #if defined(GPIOF)
 602:../../core/ST/STM32L4xx_HAL_Driver/Src/stm32l4xx_hal_pwr_ex.c ****     case PWR_GPIO_F:
 603:../../core/ST/STM32L4xx_HAL_Driver/Src/stm32l4xx_hal_pwr_ex.c ****        SET_BIT(PWR->PDCRF, GPIONumber);
 877              		.loc 1 603 0
 878 0082 184B     		ldr	r3, .L83
 879 0084 DA6C     		ldr	r2, [r3, #76]
 880 0086 0A43     		orrs	r2, r2, r1
 881 0088 DA64     		str	r2, [r3, #76]
 604:../../core/ST/STM32L4xx_HAL_Driver/Src/stm32l4xx_hal_pwr_ex.c ****        CLEAR_BIT(PWR->PUCRF, GPIONumber);
 882              		.loc 1 604 0
 883 008a 9A6C     		ldr	r2, [r3, #72]
 884 008c 22EA0101 		bic	r1, r2, r1
 885              	.LVL89:
 886 0090 9964     		str	r1, [r3, #72]
 570:../../core/ST/STM32L4xx_HAL_Driver/Src/stm32l4xx_hal_pwr_ex.c **** 
 887              		.loc 1 570 0
 888 0092 0020     		movs	r0, #0
 889              	.LVL90:
 605:../../core/ST/STM32L4xx_HAL_Driver/Src/stm32l4xx_hal_pwr_ex.c ****        break;
 890              		.loc 1 605 0
 891 0094 7047     		bx	lr
 892              	.LVL91:
 893              	.L79:
 606:../../core/ST/STM32L4xx_HAL_Driver/Src/stm32l4xx_hal_pwr_ex.c **** #endif
 607:../../core/ST/STM32L4xx_HAL_Driver/Src/stm32l4xx_hal_pwr_ex.c **** #if defined(GPIOG)
 608:../../core/ST/STM32L4xx_HAL_Driver/Src/stm32l4xx_hal_pwr_ex.c ****     case PWR_GPIO_G:
 609:../../core/ST/STM32L4xx_HAL_Driver/Src/stm32l4xx_hal_pwr_ex.c ****        SET_BIT(PWR->PDCRG, GPIONumber);
 894              		.loc 1 609 0
 895 0096 134B     		ldr	r3, .L83
 896 0098 5A6D     		ldr	r2, [r3, #84]
 897 009a 0A43     		orrs	r2, r2, r1
 898 009c 5A65     		str	r2, [r3, #84]
 610:../../core/ST/STM32L4xx_HAL_Driver/Src/stm32l4xx_hal_pwr_ex.c ****        CLEAR_BIT(PWR->PUCRG, GPIONumber);
 899              		.loc 1 610 0
 900 009e 1A6D     		ldr	r2, [r3, #80]
 901 00a0 22EA0101 		bic	r1, r2, r1
 902              	.LVL92:
 903 00a4 1965     		str	r1, [r3, #80]
 570:../../core/ST/STM32L4xx_HAL_Driver/Src/stm32l4xx_hal_pwr_ex.c **** 
 904              		.loc 1 570 0
 905 00a6 0020     		movs	r0, #0
 906              	.LVL93:
 611:../../core/ST/STM32L4xx_HAL_Driver/Src/stm32l4xx_hal_pwr_ex.c ****        break;
 907              		.loc 1 611 0
 908 00a8 7047     		bx	lr
 909              	.LVL94:
 910              	.L80:
 612:../../core/ST/STM32L4xx_HAL_Driver/Src/stm32l4xx_hal_pwr_ex.c **** #endif
 613:../../core/ST/STM32L4xx_HAL_Driver/Src/stm32l4xx_hal_pwr_ex.c ****     case PWR_GPIO_H:
 614:../../core/ST/STM32L4xx_HAL_Driver/Src/stm32l4xx_hal_pwr_ex.c **** #if defined (STM32L496xx) || defined (STM32L4A6xx)
 615:../../core/ST/STM32L4xx_HAL_Driver/Src/stm32l4xx_hal_pwr_ex.c ****        SET_BIT(PWR->PDCRH, ((GPIONumber & PWR_PORTH_AVAILABLE_PINS) & (~(PWR_GPIO_BIT_3))));
 911              		.loc 1 615 0
 912 00aa 0E4B     		ldr	r3, .L83
 913 00ac DA6D     		ldr	r2, [r3, #92]
 914 00ae 4FF6F770 		movw	r0, #65527
 915              	.LVL95:
ARM GAS  /tmp/ccmTrwWQ.s 			page 28


 916 00b2 0840     		ands	r0, r0, r1
 917 00b4 0243     		orrs	r2, r2, r0
 918 00b6 DA65     		str	r2, [r3, #92]
 616:../../core/ST/STM32L4xx_HAL_Driver/Src/stm32l4xx_hal_pwr_ex.c **** #else
 617:../../core/ST/STM32L4xx_HAL_Driver/Src/stm32l4xx_hal_pwr_ex.c ****        SET_BIT(PWR->PDCRH, (GPIONumber & PWR_PORTH_AVAILABLE_PINS));
 618:../../core/ST/STM32L4xx_HAL_Driver/Src/stm32l4xx_hal_pwr_ex.c **** #endif
 619:../../core/ST/STM32L4xx_HAL_Driver/Src/stm32l4xx_hal_pwr_ex.c ****        CLEAR_BIT(PWR->PUCRH, (GPIONumber & PWR_PORTH_AVAILABLE_PINS));
 919              		.loc 1 619 0
 920 00b8 9A6D     		ldr	r2, [r3, #88]
 921 00ba 89B2     		uxth	r1, r1
 922              	.LVL96:
 923 00bc 22EA0101 		bic	r1, r2, r1
 924 00c0 9965     		str	r1, [r3, #88]
 570:../../core/ST/STM32L4xx_HAL_Driver/Src/stm32l4xx_hal_pwr_ex.c **** 
 925              		.loc 1 570 0
 926 00c2 0020     		movs	r0, #0
 620:../../core/ST/STM32L4xx_HAL_Driver/Src/stm32l4xx_hal_pwr_ex.c ****        break;
 927              		.loc 1 620 0
 928 00c4 7047     		bx	lr
 929              	.LVL97:
 930              	.L81:
 621:../../core/ST/STM32L4xx_HAL_Driver/Src/stm32l4xx_hal_pwr_ex.c **** #if defined(GPIOI)
 622:../../core/ST/STM32L4xx_HAL_Driver/Src/stm32l4xx_hal_pwr_ex.c ****     case PWR_GPIO_I:
 623:../../core/ST/STM32L4xx_HAL_Driver/Src/stm32l4xx_hal_pwr_ex.c ****        SET_BIT(PWR->PDCRI, (GPIONumber & PWR_PORTI_AVAILABLE_PINS));
 931              		.loc 1 623 0
 932 00c6 074B     		ldr	r3, .L83
 933 00c8 5A6E     		ldr	r2, [r3, #100]
 934 00ca C1F30B01 		ubfx	r1, r1, #0, #12
 935              	.LVL98:
 936 00ce 0A43     		orrs	r2, r2, r1
 937 00d0 5A66     		str	r2, [r3, #100]
 624:../../core/ST/STM32L4xx_HAL_Driver/Src/stm32l4xx_hal_pwr_ex.c ****        CLEAR_BIT(PWR->PUCRI, (GPIONumber & PWR_PORTI_AVAILABLE_PINS));
 938              		.loc 1 624 0
 939 00d2 1A6E     		ldr	r2, [r3, #96]
 940 00d4 22EA0101 		bic	r1, r2, r1
 941 00d8 1966     		str	r1, [r3, #96]
 570:../../core/ST/STM32L4xx_HAL_Driver/Src/stm32l4xx_hal_pwr_ex.c **** 
 942              		.loc 1 570 0
 943 00da 0020     		movs	r0, #0
 944              	.LVL99:
 625:../../core/ST/STM32L4xx_HAL_Driver/Src/stm32l4xx_hal_pwr_ex.c ****        break;
 945              		.loc 1 625 0
 946 00dc 7047     		bx	lr
 947              	.LVL100:
 948              	.L82:
 626:../../core/ST/STM32L4xx_HAL_Driver/Src/stm32l4xx_hal_pwr_ex.c **** #endif
 627:../../core/ST/STM32L4xx_HAL_Driver/Src/stm32l4xx_hal_pwr_ex.c ****     default:
 628:../../core/ST/STM32L4xx_HAL_Driver/Src/stm32l4xx_hal_pwr_ex.c ****       status = HAL_ERROR;
 949              		.loc 1 628 0
 950 00de 0120     		movs	r0, #1
 951              	.LVL101:
 629:../../core/ST/STM32L4xx_HAL_Driver/Src/stm32l4xx_hal_pwr_ex.c ****       break;
 630:../../core/ST/STM32L4xx_HAL_Driver/Src/stm32l4xx_hal_pwr_ex.c ****   }
 631:../../core/ST/STM32L4xx_HAL_Driver/Src/stm32l4xx_hal_pwr_ex.c **** 
 632:../../core/ST/STM32L4xx_HAL_Driver/Src/stm32l4xx_hal_pwr_ex.c ****   return status;
 633:../../core/ST/STM32L4xx_HAL_Driver/Src/stm32l4xx_hal_pwr_ex.c **** }
 952              		.loc 1 633 0
ARM GAS  /tmp/ccmTrwWQ.s 			page 29


 953 00e0 7047     		bx	lr
 954              	.L84:
 955 00e2 00BF     		.align	2
 956              	.L83:
 957 00e4 00700040 		.word	1073770496
 958              		.cfi_endproc
 959              	.LFE135:
 961              		.section	.text.HAL_PWREx_DisableGPIOPullDown,"ax",%progbits
 962              		.align	1
 963              		.global	HAL_PWREx_DisableGPIOPullDown
 964              		.syntax unified
 965              		.thumb
 966              		.thumb_func
 967              		.fpu fpv4-sp-d16
 969              	HAL_PWREx_DisableGPIOPullDown:
 970              	.LFB136:
 634:../../core/ST/STM32L4xx_HAL_Driver/Src/stm32l4xx_hal_pwr_ex.c **** 
 635:../../core/ST/STM32L4xx_HAL_Driver/Src/stm32l4xx_hal_pwr_ex.c **** 
 636:../../core/ST/STM32L4xx_HAL_Driver/Src/stm32l4xx_hal_pwr_ex.c **** /**
 637:../../core/ST/STM32L4xx_HAL_Driver/Src/stm32l4xx_hal_pwr_ex.c ****   * @brief Disable GPIO pull-down state in Standby and Shutdown modes.
 638:../../core/ST/STM32L4xx_HAL_Driver/Src/stm32l4xx_hal_pwr_ex.c ****   * @note  Reset the relevant PDy bits of PWR_PDCRx register used to configure the I/O
 639:../../core/ST/STM32L4xx_HAL_Driver/Src/stm32l4xx_hal_pwr_ex.c ****   *        in pull-down state in Standby and Shutdown modes.
 640:../../core/ST/STM32L4xx_HAL_Driver/Src/stm32l4xx_hal_pwr_ex.c ****   * @note  Even if a PDy bit to reset is reserved, the other PDy bits entered as input
 641:../../core/ST/STM32L4xx_HAL_Driver/Src/stm32l4xx_hal_pwr_ex.c ****   *        parameter at the same time are reset.
 642:../../core/ST/STM32L4xx_HAL_Driver/Src/stm32l4xx_hal_pwr_ex.c ****   * @param  GPIO: Specifies the IO port. This parameter can be PWR_GPIO_A..PWR_GPIO_H
 643:../../core/ST/STM32L4xx_HAL_Driver/Src/stm32l4xx_hal_pwr_ex.c ****   *         (or PWR_GPIO_I depending on the devices) to select the GPIO peripheral.
 644:../../core/ST/STM32L4xx_HAL_Driver/Src/stm32l4xx_hal_pwr_ex.c ****   * @param  GPIONumber: Specify the I/O pins numbers.
 645:../../core/ST/STM32L4xx_HAL_Driver/Src/stm32l4xx_hal_pwr_ex.c ****   *         This parameter can be one of the following values:
 646:../../core/ST/STM32L4xx_HAL_Driver/Src/stm32l4xx_hal_pwr_ex.c ****   *         PWR_GPIO_BIT_0, ..., PWR_GPIO_BIT_15 (except for the port where less
 647:../../core/ST/STM32L4xx_HAL_Driver/Src/stm32l4xx_hal_pwr_ex.c ****   *         I/O pins are available) or the logical OR of several of them to reset
 648:../../core/ST/STM32L4xx_HAL_Driver/Src/stm32l4xx_hal_pwr_ex.c ****   *         several bits for a given port in a single API call.
 649:../../core/ST/STM32L4xx_HAL_Driver/Src/stm32l4xx_hal_pwr_ex.c ****   * @retval HAL Status
 650:../../core/ST/STM32L4xx_HAL_Driver/Src/stm32l4xx_hal_pwr_ex.c ****   */
 651:../../core/ST/STM32L4xx_HAL_Driver/Src/stm32l4xx_hal_pwr_ex.c **** HAL_StatusTypeDef HAL_PWREx_DisableGPIOPullDown(uint32_t GPIO, uint32_t GPIONumber)
 652:../../core/ST/STM32L4xx_HAL_Driver/Src/stm32l4xx_hal_pwr_ex.c **** {
 971              		.loc 1 652 0
 972              		.cfi_startproc
 973              		@ args = 0, pretend = 0, frame = 0
 974              		@ frame_needed = 0, uses_anonymous_args = 0
 975              		@ link register save eliminated.
 976              	.LVL102:
 653:../../core/ST/STM32L4xx_HAL_Driver/Src/stm32l4xx_hal_pwr_ex.c ****   HAL_StatusTypeDef status = HAL_OK;
 654:../../core/ST/STM32L4xx_HAL_Driver/Src/stm32l4xx_hal_pwr_ex.c **** 
 655:../../core/ST/STM32L4xx_HAL_Driver/Src/stm32l4xx_hal_pwr_ex.c ****   assert_param(IS_PWR_GPIO(GPIO));
 656:../../core/ST/STM32L4xx_HAL_Driver/Src/stm32l4xx_hal_pwr_ex.c ****   assert_param(IS_PWR_GPIO_BIT_NUMBER(GPIONumber));
 657:../../core/ST/STM32L4xx_HAL_Driver/Src/stm32l4xx_hal_pwr_ex.c **** 
 658:../../core/ST/STM32L4xx_HAL_Driver/Src/stm32l4xx_hal_pwr_ex.c ****   switch (GPIO)
 977              		.loc 1 658 0
 978 0000 0828     		cmp	r0, #8
 979 0002 4FD8     		bhi	.L97
 980 0004 DFE800F0 		tbb	[pc, r0]
 981              	.L88:
 982 0008 05       		.byte	(.L87-.L88)/2
 983 0009 0E       		.byte	(.L89-.L88)/2
 984 000a 17       		.byte	(.L90-.L88)/2
 985 000b 1E       		.byte	(.L91-.L88)/2
 986 000c 25       		.byte	(.L92-.L88)/2
ARM GAS  /tmp/ccmTrwWQ.s 			page 30


 987 000d 2C       		.byte	(.L93-.L88)/2
 988 000e 33       		.byte	(.L94-.L88)/2
 989 000f 3A       		.byte	(.L95-.L88)/2
 990 0010 45       		.byte	(.L96-.L88)/2
 991 0011 00       		.p2align 1
 992              	.L87:
 659:../../core/ST/STM32L4xx_HAL_Driver/Src/stm32l4xx_hal_pwr_ex.c ****   {
 660:../../core/ST/STM32L4xx_HAL_Driver/Src/stm32l4xx_hal_pwr_ex.c ****     case PWR_GPIO_A:
 661:../../core/ST/STM32L4xx_HAL_Driver/Src/stm32l4xx_hal_pwr_ex.c ****        CLEAR_BIT(PWR->PDCRA, (GPIONumber & (~(PWR_GPIO_BIT_13|PWR_GPIO_BIT_15))));
 993              		.loc 1 661 0
 994 0012 254A     		ldr	r2, .L98
 995 0014 536A     		ldr	r3, [r2, #36]
 996 0016 21F42041 		bic	r1, r1, #40960
 997              	.LVL103:
 998 001a 23EA0101 		bic	r1, r3, r1
 999 001e 5162     		str	r1, [r2, #36]
 653:../../core/ST/STM32L4xx_HAL_Driver/Src/stm32l4xx_hal_pwr_ex.c ****   HAL_StatusTypeDef status = HAL_OK;
 1000              		.loc 1 653 0
 1001 0020 0020     		movs	r0, #0
 1002              	.LVL104:
 662:../../core/ST/STM32L4xx_HAL_Driver/Src/stm32l4xx_hal_pwr_ex.c ****        break;
 1003              		.loc 1 662 0
 1004 0022 7047     		bx	lr
 1005              	.LVL105:
 1006              	.L89:
 663:../../core/ST/STM32L4xx_HAL_Driver/Src/stm32l4xx_hal_pwr_ex.c ****     case PWR_GPIO_B:
 664:../../core/ST/STM32L4xx_HAL_Driver/Src/stm32l4xx_hal_pwr_ex.c ****        CLEAR_BIT(PWR->PDCRB, (GPIONumber & (~(PWR_GPIO_BIT_4))));
 1007              		.loc 1 664 0
 1008 0024 204A     		ldr	r2, .L98
 1009 0026 D36A     		ldr	r3, [r2, #44]
 1010 0028 21F01001 		bic	r1, r1, #16
 1011              	.LVL106:
 1012 002c 23EA0101 		bic	r1, r3, r1
 1013 0030 D162     		str	r1, [r2, #44]
 653:../../core/ST/STM32L4xx_HAL_Driver/Src/stm32l4xx_hal_pwr_ex.c **** 
 1014              		.loc 1 653 0
 1015 0032 0020     		movs	r0, #0
 1016              	.LVL107:
 665:../../core/ST/STM32L4xx_HAL_Driver/Src/stm32l4xx_hal_pwr_ex.c ****        break;
 1017              		.loc 1 665 0
 1018 0034 7047     		bx	lr
 1019              	.LVL108:
 1020              	.L90:
 666:../../core/ST/STM32L4xx_HAL_Driver/Src/stm32l4xx_hal_pwr_ex.c ****     case PWR_GPIO_C:
 667:../../core/ST/STM32L4xx_HAL_Driver/Src/stm32l4xx_hal_pwr_ex.c ****        CLEAR_BIT(PWR->PDCRC, GPIONumber);
 1021              		.loc 1 667 0
 1022 0036 1C4A     		ldr	r2, .L98
 1023 0038 536B     		ldr	r3, [r2, #52]
 1024 003a 23EA0101 		bic	r1, r3, r1
 1025              	.LVL109:
 1026 003e 5163     		str	r1, [r2, #52]
 653:../../core/ST/STM32L4xx_HAL_Driver/Src/stm32l4xx_hal_pwr_ex.c **** 
 1027              		.loc 1 653 0
 1028 0040 0020     		movs	r0, #0
 1029              	.LVL110:
 668:../../core/ST/STM32L4xx_HAL_Driver/Src/stm32l4xx_hal_pwr_ex.c ****        break;
 1030              		.loc 1 668 0
ARM GAS  /tmp/ccmTrwWQ.s 			page 31


 1031 0042 7047     		bx	lr
 1032              	.LVL111:
 1033              	.L91:
 669:../../core/ST/STM32L4xx_HAL_Driver/Src/stm32l4xx_hal_pwr_ex.c **** #if defined(GPIOD)
 670:../../core/ST/STM32L4xx_HAL_Driver/Src/stm32l4xx_hal_pwr_ex.c ****     case PWR_GPIO_D:
 671:../../core/ST/STM32L4xx_HAL_Driver/Src/stm32l4xx_hal_pwr_ex.c ****        CLEAR_BIT(PWR->PDCRD, GPIONumber);
 1034              		.loc 1 671 0
 1035 0044 184A     		ldr	r2, .L98
 1036 0046 D36B     		ldr	r3, [r2, #60]
 1037 0048 23EA0101 		bic	r1, r3, r1
 1038              	.LVL112:
 1039 004c D163     		str	r1, [r2, #60]
 653:../../core/ST/STM32L4xx_HAL_Driver/Src/stm32l4xx_hal_pwr_ex.c **** 
 1040              		.loc 1 653 0
 1041 004e 0020     		movs	r0, #0
 1042              	.LVL113:
 672:../../core/ST/STM32L4xx_HAL_Driver/Src/stm32l4xx_hal_pwr_ex.c ****        break;
 1043              		.loc 1 672 0
 1044 0050 7047     		bx	lr
 1045              	.LVL114:
 1046              	.L92:
 673:../../core/ST/STM32L4xx_HAL_Driver/Src/stm32l4xx_hal_pwr_ex.c **** #endif
 674:../../core/ST/STM32L4xx_HAL_Driver/Src/stm32l4xx_hal_pwr_ex.c **** #if defined(GPIOE)
 675:../../core/ST/STM32L4xx_HAL_Driver/Src/stm32l4xx_hal_pwr_ex.c ****     case PWR_GPIO_E:
 676:../../core/ST/STM32L4xx_HAL_Driver/Src/stm32l4xx_hal_pwr_ex.c ****        CLEAR_BIT(PWR->PDCRE, GPIONumber);
 1047              		.loc 1 676 0
 1048 0052 154A     		ldr	r2, .L98
 1049 0054 536C     		ldr	r3, [r2, #68]
 1050 0056 23EA0101 		bic	r1, r3, r1
 1051              	.LVL115:
 1052 005a 5164     		str	r1, [r2, #68]
 653:../../core/ST/STM32L4xx_HAL_Driver/Src/stm32l4xx_hal_pwr_ex.c **** 
 1053              		.loc 1 653 0
 1054 005c 0020     		movs	r0, #0
 1055              	.LVL116:
 677:../../core/ST/STM32L4xx_HAL_Driver/Src/stm32l4xx_hal_pwr_ex.c ****        break;
 1056              		.loc 1 677 0
 1057 005e 7047     		bx	lr
 1058              	.LVL117:
 1059              	.L93:
 678:../../core/ST/STM32L4xx_HAL_Driver/Src/stm32l4xx_hal_pwr_ex.c **** #endif
 679:../../core/ST/STM32L4xx_HAL_Driver/Src/stm32l4xx_hal_pwr_ex.c **** #if defined(GPIOF)
 680:../../core/ST/STM32L4xx_HAL_Driver/Src/stm32l4xx_hal_pwr_ex.c ****     case PWR_GPIO_F:
 681:../../core/ST/STM32L4xx_HAL_Driver/Src/stm32l4xx_hal_pwr_ex.c ****        CLEAR_BIT(PWR->PDCRF, GPIONumber);
 1060              		.loc 1 681 0
 1061 0060 114A     		ldr	r2, .L98
 1062 0062 D36C     		ldr	r3, [r2, #76]
 1063 0064 23EA0101 		bic	r1, r3, r1
 1064              	.LVL118:
 1065 0068 D164     		str	r1, [r2, #76]
 653:../../core/ST/STM32L4xx_HAL_Driver/Src/stm32l4xx_hal_pwr_ex.c **** 
 1066              		.loc 1 653 0
 1067 006a 0020     		movs	r0, #0
 1068              	.LVL119:
 682:../../core/ST/STM32L4xx_HAL_Driver/Src/stm32l4xx_hal_pwr_ex.c ****        break;
 1069              		.loc 1 682 0
 1070 006c 7047     		bx	lr
ARM GAS  /tmp/ccmTrwWQ.s 			page 32


 1071              	.LVL120:
 1072              	.L94:
 683:../../core/ST/STM32L4xx_HAL_Driver/Src/stm32l4xx_hal_pwr_ex.c **** #endif
 684:../../core/ST/STM32L4xx_HAL_Driver/Src/stm32l4xx_hal_pwr_ex.c **** #if defined(GPIOG)
 685:../../core/ST/STM32L4xx_HAL_Driver/Src/stm32l4xx_hal_pwr_ex.c ****     case PWR_GPIO_G:
 686:../../core/ST/STM32L4xx_HAL_Driver/Src/stm32l4xx_hal_pwr_ex.c ****        CLEAR_BIT(PWR->PDCRG, GPIONumber);
 1073              		.loc 1 686 0
 1074 006e 0E4A     		ldr	r2, .L98
 1075 0070 536D     		ldr	r3, [r2, #84]
 1076 0072 23EA0101 		bic	r1, r3, r1
 1077              	.LVL121:
 1078 0076 5165     		str	r1, [r2, #84]
 653:../../core/ST/STM32L4xx_HAL_Driver/Src/stm32l4xx_hal_pwr_ex.c **** 
 1079              		.loc 1 653 0
 1080 0078 0020     		movs	r0, #0
 1081              	.LVL122:
 687:../../core/ST/STM32L4xx_HAL_Driver/Src/stm32l4xx_hal_pwr_ex.c ****        break;
 1082              		.loc 1 687 0
 1083 007a 7047     		bx	lr
 1084              	.LVL123:
 1085              	.L95:
 688:../../core/ST/STM32L4xx_HAL_Driver/Src/stm32l4xx_hal_pwr_ex.c **** #endif
 689:../../core/ST/STM32L4xx_HAL_Driver/Src/stm32l4xx_hal_pwr_ex.c ****     case PWR_GPIO_H:
 690:../../core/ST/STM32L4xx_HAL_Driver/Src/stm32l4xx_hal_pwr_ex.c **** #if defined (STM32L496xx) || defined (STM32L4A6xx)
 691:../../core/ST/STM32L4xx_HAL_Driver/Src/stm32l4xx_hal_pwr_ex.c ****        CLEAR_BIT(PWR->PDCRH, ((GPIONumber & PWR_PORTH_AVAILABLE_PINS) & (~(PWR_GPIO_BIT_3))));
 1086              		.loc 1 691 0
 1087 007c 0A4A     		ldr	r2, .L98
 1088 007e D36D     		ldr	r3, [r2, #92]
 1089 0080 21F00801 		bic	r1, r1, #8
 1090              	.LVL124:
 1091 0084 0904     		lsls	r1, r1, #16
 1092 0086 090C     		lsrs	r1, r1, #16
 1093 0088 23EA0101 		bic	r1, r3, r1
 1094 008c D165     		str	r1, [r2, #92]
 653:../../core/ST/STM32L4xx_HAL_Driver/Src/stm32l4xx_hal_pwr_ex.c **** 
 1095              		.loc 1 653 0
 1096 008e 0020     		movs	r0, #0
 1097              	.LVL125:
 692:../../core/ST/STM32L4xx_HAL_Driver/Src/stm32l4xx_hal_pwr_ex.c **** #else
 693:../../core/ST/STM32L4xx_HAL_Driver/Src/stm32l4xx_hal_pwr_ex.c ****        CLEAR_BIT(PWR->PDCRH, (GPIONumber & PWR_PORTH_AVAILABLE_PINS));
 694:../../core/ST/STM32L4xx_HAL_Driver/Src/stm32l4xx_hal_pwr_ex.c **** #endif
 695:../../core/ST/STM32L4xx_HAL_Driver/Src/stm32l4xx_hal_pwr_ex.c ****        break;
 1098              		.loc 1 695 0
 1099 0090 7047     		bx	lr
 1100              	.LVL126:
 1101              	.L96:
 696:../../core/ST/STM32L4xx_HAL_Driver/Src/stm32l4xx_hal_pwr_ex.c **** #if defined(GPIOI)
 697:../../core/ST/STM32L4xx_HAL_Driver/Src/stm32l4xx_hal_pwr_ex.c ****     case PWR_GPIO_I:
 698:../../core/ST/STM32L4xx_HAL_Driver/Src/stm32l4xx_hal_pwr_ex.c ****        CLEAR_BIT(PWR->PDCRI, (GPIONumber & PWR_PORTI_AVAILABLE_PINS));
 1102              		.loc 1 698 0
 1103 0092 054A     		ldr	r2, .L98
 1104 0094 536E     		ldr	r3, [r2, #100]
 1105 0096 C1F30B01 		ubfx	r1, r1, #0, #12
 1106              	.LVL127:
 1107 009a 23EA0101 		bic	r1, r3, r1
 1108 009e 5166     		str	r1, [r2, #100]
 653:../../core/ST/STM32L4xx_HAL_Driver/Src/stm32l4xx_hal_pwr_ex.c **** 
ARM GAS  /tmp/ccmTrwWQ.s 			page 33


 1109              		.loc 1 653 0
 1110 00a0 0020     		movs	r0, #0
 1111              	.LVL128:
 699:../../core/ST/STM32L4xx_HAL_Driver/Src/stm32l4xx_hal_pwr_ex.c ****        break;
 1112              		.loc 1 699 0
 1113 00a2 7047     		bx	lr
 1114              	.LVL129:
 1115              	.L97:
 700:../../core/ST/STM32L4xx_HAL_Driver/Src/stm32l4xx_hal_pwr_ex.c **** #endif
 701:../../core/ST/STM32L4xx_HAL_Driver/Src/stm32l4xx_hal_pwr_ex.c ****     default:
 702:../../core/ST/STM32L4xx_HAL_Driver/Src/stm32l4xx_hal_pwr_ex.c ****       status = HAL_ERROR;
 1116              		.loc 1 702 0
 1117 00a4 0120     		movs	r0, #1
 1118              	.LVL130:
 703:../../core/ST/STM32L4xx_HAL_Driver/Src/stm32l4xx_hal_pwr_ex.c ****       break;
 704:../../core/ST/STM32L4xx_HAL_Driver/Src/stm32l4xx_hal_pwr_ex.c ****   }
 705:../../core/ST/STM32L4xx_HAL_Driver/Src/stm32l4xx_hal_pwr_ex.c **** 
 706:../../core/ST/STM32L4xx_HAL_Driver/Src/stm32l4xx_hal_pwr_ex.c ****   return status;
 707:../../core/ST/STM32L4xx_HAL_Driver/Src/stm32l4xx_hal_pwr_ex.c **** }
 1119              		.loc 1 707 0
 1120 00a6 7047     		bx	lr
 1121              	.L99:
 1122              		.align	2
 1123              	.L98:
 1124 00a8 00700040 		.word	1073770496
 1125              		.cfi_endproc
 1126              	.LFE136:
 1128              		.section	.text.HAL_PWREx_EnablePullUpPullDownConfig,"ax",%progbits
 1129              		.align	1
 1130              		.global	HAL_PWREx_EnablePullUpPullDownConfig
 1131              		.syntax unified
 1132              		.thumb
 1133              		.thumb_func
 1134              		.fpu fpv4-sp-d16
 1136              	HAL_PWREx_EnablePullUpPullDownConfig:
 1137              	.LFB137:
 708:../../core/ST/STM32L4xx_HAL_Driver/Src/stm32l4xx_hal_pwr_ex.c **** 
 709:../../core/ST/STM32L4xx_HAL_Driver/Src/stm32l4xx_hal_pwr_ex.c **** 
 710:../../core/ST/STM32L4xx_HAL_Driver/Src/stm32l4xx_hal_pwr_ex.c **** 
 711:../../core/ST/STM32L4xx_HAL_Driver/Src/stm32l4xx_hal_pwr_ex.c **** /**
 712:../../core/ST/STM32L4xx_HAL_Driver/Src/stm32l4xx_hal_pwr_ex.c ****   * @brief Enable pull-up and pull-down configuration.
 713:../../core/ST/STM32L4xx_HAL_Driver/Src/stm32l4xx_hal_pwr_ex.c ****   * @note  When APC bit is set, the I/O pull-up and pull-down configurations defined in
 714:../../core/ST/STM32L4xx_HAL_Driver/Src/stm32l4xx_hal_pwr_ex.c ****   *        PWR_PUCRx and PWR_PDCRx registers are applied in Standby and Shutdown modes.
 715:../../core/ST/STM32L4xx_HAL_Driver/Src/stm32l4xx_hal_pwr_ex.c ****   * @note  Pull-up set by PUy bit of PWR_PUCRx register is not activated if the corresponding
 716:../../core/ST/STM32L4xx_HAL_Driver/Src/stm32l4xx_hal_pwr_ex.c ****   *        PDy bit of PWR_PDCRx register is also set (pull-down configuration priority is higher).
 717:../../core/ST/STM32L4xx_HAL_Driver/Src/stm32l4xx_hal_pwr_ex.c ****   *        HAL_PWREx_EnableGPIOPullUp() and HAL_PWREx_EnableGPIOPullDown() API's ensure there
 718:../../core/ST/STM32L4xx_HAL_Driver/Src/stm32l4xx_hal_pwr_ex.c ****   *        is no conflict when setting PUy or PDy bit.
 719:../../core/ST/STM32L4xx_HAL_Driver/Src/stm32l4xx_hal_pwr_ex.c ****   * @retval None
 720:../../core/ST/STM32L4xx_HAL_Driver/Src/stm32l4xx_hal_pwr_ex.c ****   */
 721:../../core/ST/STM32L4xx_HAL_Driver/Src/stm32l4xx_hal_pwr_ex.c **** void HAL_PWREx_EnablePullUpPullDownConfig(void)
 722:../../core/ST/STM32L4xx_HAL_Driver/Src/stm32l4xx_hal_pwr_ex.c **** {
 1138              		.loc 1 722 0
 1139              		.cfi_startproc
 1140              		@ args = 0, pretend = 0, frame = 0
 1141              		@ frame_needed = 0, uses_anonymous_args = 0
 1142              		@ link register save eliminated.
 723:../../core/ST/STM32L4xx_HAL_Driver/Src/stm32l4xx_hal_pwr_ex.c ****   SET_BIT(PWR->CR3, PWR_CR3_APC);
ARM GAS  /tmp/ccmTrwWQ.s 			page 34


 1143              		.loc 1 723 0
 1144 0000 024A     		ldr	r2, .L101
 1145 0002 9368     		ldr	r3, [r2, #8]
 1146 0004 43F48063 		orr	r3, r3, #1024
 1147 0008 9360     		str	r3, [r2, #8]
 1148 000a 7047     		bx	lr
 1149              	.L102:
 1150              		.align	2
 1151              	.L101:
 1152 000c 00700040 		.word	1073770496
 1153              		.cfi_endproc
 1154              	.LFE137:
 1156              		.section	.text.HAL_PWREx_DisablePullUpPullDownConfig,"ax",%progbits
 1157              		.align	1
 1158              		.global	HAL_PWREx_DisablePullUpPullDownConfig
 1159              		.syntax unified
 1160              		.thumb
 1161              		.thumb_func
 1162              		.fpu fpv4-sp-d16
 1164              	HAL_PWREx_DisablePullUpPullDownConfig:
 1165              	.LFB138:
 724:../../core/ST/STM32L4xx_HAL_Driver/Src/stm32l4xx_hal_pwr_ex.c **** }
 725:../../core/ST/STM32L4xx_HAL_Driver/Src/stm32l4xx_hal_pwr_ex.c **** 
 726:../../core/ST/STM32L4xx_HAL_Driver/Src/stm32l4xx_hal_pwr_ex.c **** 
 727:../../core/ST/STM32L4xx_HAL_Driver/Src/stm32l4xx_hal_pwr_ex.c **** /**
 728:../../core/ST/STM32L4xx_HAL_Driver/Src/stm32l4xx_hal_pwr_ex.c ****   * @brief Disable pull-up and pull-down configuration.
 729:../../core/ST/STM32L4xx_HAL_Driver/Src/stm32l4xx_hal_pwr_ex.c ****   * @note  When APC bit is cleared, the I/O pull-up and pull-down configurations defined in
 730:../../core/ST/STM32L4xx_HAL_Driver/Src/stm32l4xx_hal_pwr_ex.c ****   *        PWR_PUCRx and PWR_PDCRx registers are not applied in Standby and Shutdown modes.
 731:../../core/ST/STM32L4xx_HAL_Driver/Src/stm32l4xx_hal_pwr_ex.c ****   * @retval None
 732:../../core/ST/STM32L4xx_HAL_Driver/Src/stm32l4xx_hal_pwr_ex.c ****   */
 733:../../core/ST/STM32L4xx_HAL_Driver/Src/stm32l4xx_hal_pwr_ex.c **** void HAL_PWREx_DisablePullUpPullDownConfig(void)
 734:../../core/ST/STM32L4xx_HAL_Driver/Src/stm32l4xx_hal_pwr_ex.c **** {
 1166              		.loc 1 734 0
 1167              		.cfi_startproc
 1168              		@ args = 0, pretend = 0, frame = 0
 1169              		@ frame_needed = 0, uses_anonymous_args = 0
 1170              		@ link register save eliminated.
 735:../../core/ST/STM32L4xx_HAL_Driver/Src/stm32l4xx_hal_pwr_ex.c ****   CLEAR_BIT(PWR->CR3, PWR_CR3_APC);
 1171              		.loc 1 735 0
 1172 0000 024A     		ldr	r2, .L104
 1173 0002 9368     		ldr	r3, [r2, #8]
 1174 0004 23F48063 		bic	r3, r3, #1024
 1175 0008 9360     		str	r3, [r2, #8]
 1176 000a 7047     		bx	lr
 1177              	.L105:
 1178              		.align	2
 1179              	.L104:
 1180 000c 00700040 		.word	1073770496
 1181              		.cfi_endproc
 1182              	.LFE138:
 1184              		.section	.text.HAL_PWREx_EnableSRAM2ContentRetention,"ax",%progbits
 1185              		.align	1
 1186              		.global	HAL_PWREx_EnableSRAM2ContentRetention
 1187              		.syntax unified
 1188              		.thumb
 1189              		.thumb_func
 1190              		.fpu fpv4-sp-d16
ARM GAS  /tmp/ccmTrwWQ.s 			page 35


 1192              	HAL_PWREx_EnableSRAM2ContentRetention:
 1193              	.LFB139:
 736:../../core/ST/STM32L4xx_HAL_Driver/Src/stm32l4xx_hal_pwr_ex.c **** }
 737:../../core/ST/STM32L4xx_HAL_Driver/Src/stm32l4xx_hal_pwr_ex.c **** 
 738:../../core/ST/STM32L4xx_HAL_Driver/Src/stm32l4xx_hal_pwr_ex.c **** 
 739:../../core/ST/STM32L4xx_HAL_Driver/Src/stm32l4xx_hal_pwr_ex.c **** 
 740:../../core/ST/STM32L4xx_HAL_Driver/Src/stm32l4xx_hal_pwr_ex.c **** /**
 741:../../core/ST/STM32L4xx_HAL_Driver/Src/stm32l4xx_hal_pwr_ex.c ****   * @brief Enable SRAM2 content retention in Standby mode.
 742:../../core/ST/STM32L4xx_HAL_Driver/Src/stm32l4xx_hal_pwr_ex.c ****   * @note  When RRS bit is set, SRAM2 is powered by the low-power regulator in
 743:../../core/ST/STM32L4xx_HAL_Driver/Src/stm32l4xx_hal_pwr_ex.c ****   *         Standby mode and its content is kept.
 744:../../core/ST/STM32L4xx_HAL_Driver/Src/stm32l4xx_hal_pwr_ex.c ****   * @retval None
 745:../../core/ST/STM32L4xx_HAL_Driver/Src/stm32l4xx_hal_pwr_ex.c ****   */
 746:../../core/ST/STM32L4xx_HAL_Driver/Src/stm32l4xx_hal_pwr_ex.c **** void HAL_PWREx_EnableSRAM2ContentRetention(void)
 747:../../core/ST/STM32L4xx_HAL_Driver/Src/stm32l4xx_hal_pwr_ex.c **** {
 1194              		.loc 1 747 0
 1195              		.cfi_startproc
 1196              		@ args = 0, pretend = 0, frame = 0
 1197              		@ frame_needed = 0, uses_anonymous_args = 0
 1198              		@ link register save eliminated.
 748:../../core/ST/STM32L4xx_HAL_Driver/Src/stm32l4xx_hal_pwr_ex.c ****   SET_BIT(PWR->CR3, PWR_CR3_RRS);
 1199              		.loc 1 748 0
 1200 0000 024A     		ldr	r2, .L107
 1201 0002 9368     		ldr	r3, [r2, #8]
 1202 0004 43F48073 		orr	r3, r3, #256
 1203 0008 9360     		str	r3, [r2, #8]
 1204 000a 7047     		bx	lr
 1205              	.L108:
 1206              		.align	2
 1207              	.L107:
 1208 000c 00700040 		.word	1073770496
 1209              		.cfi_endproc
 1210              	.LFE139:
 1212              		.section	.text.HAL_PWREx_DisableSRAM2ContentRetention,"ax",%progbits
 1213              		.align	1
 1214              		.global	HAL_PWREx_DisableSRAM2ContentRetention
 1215              		.syntax unified
 1216              		.thumb
 1217              		.thumb_func
 1218              		.fpu fpv4-sp-d16
 1220              	HAL_PWREx_DisableSRAM2ContentRetention:
 1221              	.LFB140:
 749:../../core/ST/STM32L4xx_HAL_Driver/Src/stm32l4xx_hal_pwr_ex.c **** }
 750:../../core/ST/STM32L4xx_HAL_Driver/Src/stm32l4xx_hal_pwr_ex.c **** 
 751:../../core/ST/STM32L4xx_HAL_Driver/Src/stm32l4xx_hal_pwr_ex.c **** 
 752:../../core/ST/STM32L4xx_HAL_Driver/Src/stm32l4xx_hal_pwr_ex.c **** /**
 753:../../core/ST/STM32L4xx_HAL_Driver/Src/stm32l4xx_hal_pwr_ex.c ****   * @brief Disable SRAM2 content retention in Standby mode.
 754:../../core/ST/STM32L4xx_HAL_Driver/Src/stm32l4xx_hal_pwr_ex.c ****   * @note  When RRS bit is reset, SRAM2 is powered off in Standby mode
 755:../../core/ST/STM32L4xx_HAL_Driver/Src/stm32l4xx_hal_pwr_ex.c ****   *        and its content is lost.
 756:../../core/ST/STM32L4xx_HAL_Driver/Src/stm32l4xx_hal_pwr_ex.c ****   * @retval None
 757:../../core/ST/STM32L4xx_HAL_Driver/Src/stm32l4xx_hal_pwr_ex.c ****   */
 758:../../core/ST/STM32L4xx_HAL_Driver/Src/stm32l4xx_hal_pwr_ex.c **** void HAL_PWREx_DisableSRAM2ContentRetention(void)
 759:../../core/ST/STM32L4xx_HAL_Driver/Src/stm32l4xx_hal_pwr_ex.c **** {
 1222              		.loc 1 759 0
 1223              		.cfi_startproc
 1224              		@ args = 0, pretend = 0, frame = 0
 1225              		@ frame_needed = 0, uses_anonymous_args = 0
 1226              		@ link register save eliminated.
ARM GAS  /tmp/ccmTrwWQ.s 			page 36


 760:../../core/ST/STM32L4xx_HAL_Driver/Src/stm32l4xx_hal_pwr_ex.c ****   CLEAR_BIT(PWR->CR3, PWR_CR3_RRS);
 1227              		.loc 1 760 0
 1228 0000 024A     		ldr	r2, .L110
 1229 0002 9368     		ldr	r3, [r2, #8]
 1230 0004 23F48073 		bic	r3, r3, #256
 1231 0008 9360     		str	r3, [r2, #8]
 1232 000a 7047     		bx	lr
 1233              	.L111:
 1234              		.align	2
 1235              	.L110:
 1236 000c 00700040 		.word	1073770496
 1237              		.cfi_endproc
 1238              	.LFE140:
 1240              		.section	.text.HAL_PWREx_EnablePVM1,"ax",%progbits
 1241              		.align	1
 1242              		.global	HAL_PWREx_EnablePVM1
 1243              		.syntax unified
 1244              		.thumb
 1245              		.thumb_func
 1246              		.fpu fpv4-sp-d16
 1248              	HAL_PWREx_EnablePVM1:
 1249              	.LFB141:
 761:../../core/ST/STM32L4xx_HAL_Driver/Src/stm32l4xx_hal_pwr_ex.c **** }
 762:../../core/ST/STM32L4xx_HAL_Driver/Src/stm32l4xx_hal_pwr_ex.c **** 
 763:../../core/ST/STM32L4xx_HAL_Driver/Src/stm32l4xx_hal_pwr_ex.c **** 
 764:../../core/ST/STM32L4xx_HAL_Driver/Src/stm32l4xx_hal_pwr_ex.c **** #if defined(PWR_CR3_EN_ULP)
 765:../../core/ST/STM32L4xx_HAL_Driver/Src/stm32l4xx_hal_pwr_ex.c **** /**
 766:../../core/ST/STM32L4xx_HAL_Driver/Src/stm32l4xx_hal_pwr_ex.c ****   * @brief Enable Ultra Low Power BORL, BORH and PVD for STOP2 and Standby modes.
 767:../../core/ST/STM32L4xx_HAL_Driver/Src/stm32l4xx_hal_pwr_ex.c ****   * @note  All the other modes are not affected by this bit.
 768:../../core/ST/STM32L4xx_HAL_Driver/Src/stm32l4xx_hal_pwr_ex.c ****   * @retval None
 769:../../core/ST/STM32L4xx_HAL_Driver/Src/stm32l4xx_hal_pwr_ex.c ****   */
 770:../../core/ST/STM32L4xx_HAL_Driver/Src/stm32l4xx_hal_pwr_ex.c **** void HAL_PWREx_EnableBORPVD_ULP(void)
 771:../../core/ST/STM32L4xx_HAL_Driver/Src/stm32l4xx_hal_pwr_ex.c **** {
 772:../../core/ST/STM32L4xx_HAL_Driver/Src/stm32l4xx_hal_pwr_ex.c ****   SET_BIT(PWR->CR3, PWR_CR3_EN_ULP);
 773:../../core/ST/STM32L4xx_HAL_Driver/Src/stm32l4xx_hal_pwr_ex.c **** }
 774:../../core/ST/STM32L4xx_HAL_Driver/Src/stm32l4xx_hal_pwr_ex.c **** 
 775:../../core/ST/STM32L4xx_HAL_Driver/Src/stm32l4xx_hal_pwr_ex.c **** 
 776:../../core/ST/STM32L4xx_HAL_Driver/Src/stm32l4xx_hal_pwr_ex.c **** /**
 777:../../core/ST/STM32L4xx_HAL_Driver/Src/stm32l4xx_hal_pwr_ex.c ****   * @brief Disable Ultra Low Power BORL, BORH and PVD for STOP2 and Standby modes.
 778:../../core/ST/STM32L4xx_HAL_Driver/Src/stm32l4xx_hal_pwr_ex.c ****   * @note  All the other modes are not affected by this bit
 779:../../core/ST/STM32L4xx_HAL_Driver/Src/stm32l4xx_hal_pwr_ex.c ****   * @retval None
 780:../../core/ST/STM32L4xx_HAL_Driver/Src/stm32l4xx_hal_pwr_ex.c ****   */
 781:../../core/ST/STM32L4xx_HAL_Driver/Src/stm32l4xx_hal_pwr_ex.c **** void HAL_PWREx_DisableBORPVD_ULP(void)
 782:../../core/ST/STM32L4xx_HAL_Driver/Src/stm32l4xx_hal_pwr_ex.c **** {
 783:../../core/ST/STM32L4xx_HAL_Driver/Src/stm32l4xx_hal_pwr_ex.c ****   CLEAR_BIT(PWR->CR3, PWR_CR3_EN_ULP);
 784:../../core/ST/STM32L4xx_HAL_Driver/Src/stm32l4xx_hal_pwr_ex.c **** }
 785:../../core/ST/STM32L4xx_HAL_Driver/Src/stm32l4xx_hal_pwr_ex.c **** #endif /* PWR_CR3_EN_ULP */
 786:../../core/ST/STM32L4xx_HAL_Driver/Src/stm32l4xx_hal_pwr_ex.c **** 
 787:../../core/ST/STM32L4xx_HAL_Driver/Src/stm32l4xx_hal_pwr_ex.c **** 
 788:../../core/ST/STM32L4xx_HAL_Driver/Src/stm32l4xx_hal_pwr_ex.c **** #if defined(PWR_CR4_EXT_SMPS_ON)
 789:../../core/ST/STM32L4xx_HAL_Driver/Src/stm32l4xx_hal_pwr_ex.c **** /**
 790:../../core/ST/STM32L4xx_HAL_Driver/Src/stm32l4xx_hal_pwr_ex.c ****   * @brief Enable the CFLDO working @ 0.95V.
 791:../../core/ST/STM32L4xx_HAL_Driver/Src/stm32l4xx_hal_pwr_ex.c ****   * @note  When external SMPS is used & CFLDO operating in Range 2, the regulated voltage of the
 792:../../core/ST/STM32L4xx_HAL_Driver/Src/stm32l4xx_hal_pwr_ex.c ****   *        internal CFLDO can be reduced to 0.95V.
 793:../../core/ST/STM32L4xx_HAL_Driver/Src/stm32l4xx_hal_pwr_ex.c ****   * @retval None
 794:../../core/ST/STM32L4xx_HAL_Driver/Src/stm32l4xx_hal_pwr_ex.c ****   */
 795:../../core/ST/STM32L4xx_HAL_Driver/Src/stm32l4xx_hal_pwr_ex.c **** void HAL_PWREx_EnableExtSMPS_0V95(void)
ARM GAS  /tmp/ccmTrwWQ.s 			page 37


 796:../../core/ST/STM32L4xx_HAL_Driver/Src/stm32l4xx_hal_pwr_ex.c **** {
 797:../../core/ST/STM32L4xx_HAL_Driver/Src/stm32l4xx_hal_pwr_ex.c ****   SET_BIT(PWR->CR4, PWR_CR4_EXT_SMPS_ON);
 798:../../core/ST/STM32L4xx_HAL_Driver/Src/stm32l4xx_hal_pwr_ex.c **** }
 799:../../core/ST/STM32L4xx_HAL_Driver/Src/stm32l4xx_hal_pwr_ex.c **** 
 800:../../core/ST/STM32L4xx_HAL_Driver/Src/stm32l4xx_hal_pwr_ex.c **** /**
 801:../../core/ST/STM32L4xx_HAL_Driver/Src/stm32l4xx_hal_pwr_ex.c ****   * @brief Disable the CFLDO working @ 0.95V
 802:../../core/ST/STM32L4xx_HAL_Driver/Src/stm32l4xx_hal_pwr_ex.c ****   * @note  Before SMPS is switched off, the regulated voltage of the
 803:../../core/ST/STM32L4xx_HAL_Driver/Src/stm32l4xx_hal_pwr_ex.c ****   *        internal CFLDO shall be set to 1.00V.
 804:../../core/ST/STM32L4xx_HAL_Driver/Src/stm32l4xx_hal_pwr_ex.c ****   *        1.00V. is also default operating Range 2 voltage.
 805:../../core/ST/STM32L4xx_HAL_Driver/Src/stm32l4xx_hal_pwr_ex.c ****   * @retval None
 806:../../core/ST/STM32L4xx_HAL_Driver/Src/stm32l4xx_hal_pwr_ex.c ****   */
 807:../../core/ST/STM32L4xx_HAL_Driver/Src/stm32l4xx_hal_pwr_ex.c **** void HAL_PWREx_DisableExtSMPS_0V95(void)
 808:../../core/ST/STM32L4xx_HAL_Driver/Src/stm32l4xx_hal_pwr_ex.c **** {
 809:../../core/ST/STM32L4xx_HAL_Driver/Src/stm32l4xx_hal_pwr_ex.c ****   CLEAR_BIT(PWR->CR4, PWR_CR4_EXT_SMPS_ON);
 810:../../core/ST/STM32L4xx_HAL_Driver/Src/stm32l4xx_hal_pwr_ex.c **** }
 811:../../core/ST/STM32L4xx_HAL_Driver/Src/stm32l4xx_hal_pwr_ex.c **** #endif /* PWR_CR4_EXT_SMPS_ON */
 812:../../core/ST/STM32L4xx_HAL_Driver/Src/stm32l4xx_hal_pwr_ex.c **** 
 813:../../core/ST/STM32L4xx_HAL_Driver/Src/stm32l4xx_hal_pwr_ex.c **** 
 814:../../core/ST/STM32L4xx_HAL_Driver/Src/stm32l4xx_hal_pwr_ex.c **** #if defined(PWR_CR1_RRSTP)
 815:../../core/ST/STM32L4xx_HAL_Driver/Src/stm32l4xx_hal_pwr_ex.c **** /**
 816:../../core/ST/STM32L4xx_HAL_Driver/Src/stm32l4xx_hal_pwr_ex.c ****   * @brief Enable SRAM3 content retention in Stop 2 mode.
 817:../../core/ST/STM32L4xx_HAL_Driver/Src/stm32l4xx_hal_pwr_ex.c ****   * @note  When RRSTP bit is set, SRAM3 is powered by the low-power regulator in
 818:../../core/ST/STM32L4xx_HAL_Driver/Src/stm32l4xx_hal_pwr_ex.c ****   *        Stop 2 mode and its content is kept.
 819:../../core/ST/STM32L4xx_HAL_Driver/Src/stm32l4xx_hal_pwr_ex.c ****   * @retval None
 820:../../core/ST/STM32L4xx_HAL_Driver/Src/stm32l4xx_hal_pwr_ex.c ****   */
 821:../../core/ST/STM32L4xx_HAL_Driver/Src/stm32l4xx_hal_pwr_ex.c **** void HAL_PWREx_EnableSRAM3ContentRetention(void)
 822:../../core/ST/STM32L4xx_HAL_Driver/Src/stm32l4xx_hal_pwr_ex.c **** {
 823:../../core/ST/STM32L4xx_HAL_Driver/Src/stm32l4xx_hal_pwr_ex.c ****   SET_BIT(PWR->CR1, PWR_CR1_RRSTP);
 824:../../core/ST/STM32L4xx_HAL_Driver/Src/stm32l4xx_hal_pwr_ex.c **** }
 825:../../core/ST/STM32L4xx_HAL_Driver/Src/stm32l4xx_hal_pwr_ex.c **** 
 826:../../core/ST/STM32L4xx_HAL_Driver/Src/stm32l4xx_hal_pwr_ex.c **** 
 827:../../core/ST/STM32L4xx_HAL_Driver/Src/stm32l4xx_hal_pwr_ex.c **** /**
 828:../../core/ST/STM32L4xx_HAL_Driver/Src/stm32l4xx_hal_pwr_ex.c ****   * @brief Disable SRAM3 content retention in Stop 2 mode.
 829:../../core/ST/STM32L4xx_HAL_Driver/Src/stm32l4xx_hal_pwr_ex.c ****   * @note  When RRSTP bit is reset, SRAM3 is powered off in Stop 2 mode
 830:../../core/ST/STM32L4xx_HAL_Driver/Src/stm32l4xx_hal_pwr_ex.c ****   *        and its content is lost.
 831:../../core/ST/STM32L4xx_HAL_Driver/Src/stm32l4xx_hal_pwr_ex.c ****   * @retval None
 832:../../core/ST/STM32L4xx_HAL_Driver/Src/stm32l4xx_hal_pwr_ex.c ****   */
 833:../../core/ST/STM32L4xx_HAL_Driver/Src/stm32l4xx_hal_pwr_ex.c **** void HAL_PWREx_DisableSRAM3ContentRetention(void)
 834:../../core/ST/STM32L4xx_HAL_Driver/Src/stm32l4xx_hal_pwr_ex.c **** {
 835:../../core/ST/STM32L4xx_HAL_Driver/Src/stm32l4xx_hal_pwr_ex.c ****   CLEAR_BIT(PWR->CR1, PWR_CR1_RRSTP);
 836:../../core/ST/STM32L4xx_HAL_Driver/Src/stm32l4xx_hal_pwr_ex.c **** }
 837:../../core/ST/STM32L4xx_HAL_Driver/Src/stm32l4xx_hal_pwr_ex.c **** #endif /* PWR_CR1_RRSTP */
 838:../../core/ST/STM32L4xx_HAL_Driver/Src/stm32l4xx_hal_pwr_ex.c **** 
 839:../../core/ST/STM32L4xx_HAL_Driver/Src/stm32l4xx_hal_pwr_ex.c **** #if defined(PWR_CR3_DSIPDEN)
 840:../../core/ST/STM32L4xx_HAL_Driver/Src/stm32l4xx_hal_pwr_ex.c **** /**
 841:../../core/ST/STM32L4xx_HAL_Driver/Src/stm32l4xx_hal_pwr_ex.c ****   * @brief Enable pull-down activation on DSI pins.
 842:../../core/ST/STM32L4xx_HAL_Driver/Src/stm32l4xx_hal_pwr_ex.c ****   * @retval None
 843:../../core/ST/STM32L4xx_HAL_Driver/Src/stm32l4xx_hal_pwr_ex.c ****   */
 844:../../core/ST/STM32L4xx_HAL_Driver/Src/stm32l4xx_hal_pwr_ex.c **** void HAL_PWREx_EnableDSIPinsPDActivation(void)
 845:../../core/ST/STM32L4xx_HAL_Driver/Src/stm32l4xx_hal_pwr_ex.c **** {
 846:../../core/ST/STM32L4xx_HAL_Driver/Src/stm32l4xx_hal_pwr_ex.c ****   SET_BIT(PWR->CR3, PWR_CR3_DSIPDEN);
 847:../../core/ST/STM32L4xx_HAL_Driver/Src/stm32l4xx_hal_pwr_ex.c **** }
 848:../../core/ST/STM32L4xx_HAL_Driver/Src/stm32l4xx_hal_pwr_ex.c **** 
 849:../../core/ST/STM32L4xx_HAL_Driver/Src/stm32l4xx_hal_pwr_ex.c **** 
 850:../../core/ST/STM32L4xx_HAL_Driver/Src/stm32l4xx_hal_pwr_ex.c **** /**
 851:../../core/ST/STM32L4xx_HAL_Driver/Src/stm32l4xx_hal_pwr_ex.c ****   * @brief Disable pull-down activation on DSI pins.
 852:../../core/ST/STM32L4xx_HAL_Driver/Src/stm32l4xx_hal_pwr_ex.c ****   * @retval None
ARM GAS  /tmp/ccmTrwWQ.s 			page 38


 853:../../core/ST/STM32L4xx_HAL_Driver/Src/stm32l4xx_hal_pwr_ex.c ****   */
 854:../../core/ST/STM32L4xx_HAL_Driver/Src/stm32l4xx_hal_pwr_ex.c **** void HAL_PWREx_DisableDSIPinsPDActivation(void)
 855:../../core/ST/STM32L4xx_HAL_Driver/Src/stm32l4xx_hal_pwr_ex.c **** {
 856:../../core/ST/STM32L4xx_HAL_Driver/Src/stm32l4xx_hal_pwr_ex.c ****   CLEAR_BIT(PWR->CR3, PWR_CR3_DSIPDEN);
 857:../../core/ST/STM32L4xx_HAL_Driver/Src/stm32l4xx_hal_pwr_ex.c **** }
 858:../../core/ST/STM32L4xx_HAL_Driver/Src/stm32l4xx_hal_pwr_ex.c **** #endif /* PWR_CR3_DSIPDEN */
 859:../../core/ST/STM32L4xx_HAL_Driver/Src/stm32l4xx_hal_pwr_ex.c **** 
 860:../../core/ST/STM32L4xx_HAL_Driver/Src/stm32l4xx_hal_pwr_ex.c **** #if defined(PWR_CR2_PVME1)
 861:../../core/ST/STM32L4xx_HAL_Driver/Src/stm32l4xx_hal_pwr_ex.c **** /**
 862:../../core/ST/STM32L4xx_HAL_Driver/Src/stm32l4xx_hal_pwr_ex.c ****   * @brief Enable the Power Voltage Monitoring 1: VDDUSB versus 1.2V.
 863:../../core/ST/STM32L4xx_HAL_Driver/Src/stm32l4xx_hal_pwr_ex.c ****   * @retval None
 864:../../core/ST/STM32L4xx_HAL_Driver/Src/stm32l4xx_hal_pwr_ex.c ****   */
 865:../../core/ST/STM32L4xx_HAL_Driver/Src/stm32l4xx_hal_pwr_ex.c **** void HAL_PWREx_EnablePVM1(void)
 866:../../core/ST/STM32L4xx_HAL_Driver/Src/stm32l4xx_hal_pwr_ex.c **** {
 1250              		.loc 1 866 0
 1251              		.cfi_startproc
 1252              		@ args = 0, pretend = 0, frame = 0
 1253              		@ frame_needed = 0, uses_anonymous_args = 0
 1254              		@ link register save eliminated.
 867:../../core/ST/STM32L4xx_HAL_Driver/Src/stm32l4xx_hal_pwr_ex.c ****   SET_BIT(PWR->CR2, PWR_PVM_1);
 1255              		.loc 1 867 0
 1256 0000 024A     		ldr	r2, .L113
 1257 0002 5368     		ldr	r3, [r2, #4]
 1258 0004 43F01003 		orr	r3, r3, #16
 1259 0008 5360     		str	r3, [r2, #4]
 1260 000a 7047     		bx	lr
 1261              	.L114:
 1262              		.align	2
 1263              	.L113:
 1264 000c 00700040 		.word	1073770496
 1265              		.cfi_endproc
 1266              	.LFE141:
 1268              		.section	.text.HAL_PWREx_DisablePVM1,"ax",%progbits
 1269              		.align	1
 1270              		.global	HAL_PWREx_DisablePVM1
 1271              		.syntax unified
 1272              		.thumb
 1273              		.thumb_func
 1274              		.fpu fpv4-sp-d16
 1276              	HAL_PWREx_DisablePVM1:
 1277              	.LFB142:
 868:../../core/ST/STM32L4xx_HAL_Driver/Src/stm32l4xx_hal_pwr_ex.c **** }
 869:../../core/ST/STM32L4xx_HAL_Driver/Src/stm32l4xx_hal_pwr_ex.c **** 
 870:../../core/ST/STM32L4xx_HAL_Driver/Src/stm32l4xx_hal_pwr_ex.c **** /**
 871:../../core/ST/STM32L4xx_HAL_Driver/Src/stm32l4xx_hal_pwr_ex.c ****   * @brief Disable the Power Voltage Monitoring 1: VDDUSB versus 1.2V.
 872:../../core/ST/STM32L4xx_HAL_Driver/Src/stm32l4xx_hal_pwr_ex.c ****   * @retval None
 873:../../core/ST/STM32L4xx_HAL_Driver/Src/stm32l4xx_hal_pwr_ex.c ****   */
 874:../../core/ST/STM32L4xx_HAL_Driver/Src/stm32l4xx_hal_pwr_ex.c **** void HAL_PWREx_DisablePVM1(void)
 875:../../core/ST/STM32L4xx_HAL_Driver/Src/stm32l4xx_hal_pwr_ex.c **** {
 1278              		.loc 1 875 0
 1279              		.cfi_startproc
 1280              		@ args = 0, pretend = 0, frame = 0
 1281              		@ frame_needed = 0, uses_anonymous_args = 0
 1282              		@ link register save eliminated.
 876:../../core/ST/STM32L4xx_HAL_Driver/Src/stm32l4xx_hal_pwr_ex.c ****   CLEAR_BIT(PWR->CR2, PWR_PVM_1);
 1283              		.loc 1 876 0
 1284 0000 024A     		ldr	r2, .L116
ARM GAS  /tmp/ccmTrwWQ.s 			page 39


 1285 0002 5368     		ldr	r3, [r2, #4]
 1286 0004 23F01003 		bic	r3, r3, #16
 1287 0008 5360     		str	r3, [r2, #4]
 1288 000a 7047     		bx	lr
 1289              	.L117:
 1290              		.align	2
 1291              	.L116:
 1292 000c 00700040 		.word	1073770496
 1293              		.cfi_endproc
 1294              	.LFE142:
 1296              		.section	.text.HAL_PWREx_EnablePVM2,"ax",%progbits
 1297              		.align	1
 1298              		.global	HAL_PWREx_EnablePVM2
 1299              		.syntax unified
 1300              		.thumb
 1301              		.thumb_func
 1302              		.fpu fpv4-sp-d16
 1304              	HAL_PWREx_EnablePVM2:
 1305              	.LFB143:
 877:../../core/ST/STM32L4xx_HAL_Driver/Src/stm32l4xx_hal_pwr_ex.c **** }
 878:../../core/ST/STM32L4xx_HAL_Driver/Src/stm32l4xx_hal_pwr_ex.c **** #endif /* PWR_CR2_PVME1 */
 879:../../core/ST/STM32L4xx_HAL_Driver/Src/stm32l4xx_hal_pwr_ex.c **** 
 880:../../core/ST/STM32L4xx_HAL_Driver/Src/stm32l4xx_hal_pwr_ex.c **** 
 881:../../core/ST/STM32L4xx_HAL_Driver/Src/stm32l4xx_hal_pwr_ex.c **** #if defined(PWR_CR2_PVME2)
 882:../../core/ST/STM32L4xx_HAL_Driver/Src/stm32l4xx_hal_pwr_ex.c **** /**
 883:../../core/ST/STM32L4xx_HAL_Driver/Src/stm32l4xx_hal_pwr_ex.c ****   * @brief Enable the Power Voltage Monitoring 2: VDDIO2 versus 0.9V.
 884:../../core/ST/STM32L4xx_HAL_Driver/Src/stm32l4xx_hal_pwr_ex.c ****   * @retval None
 885:../../core/ST/STM32L4xx_HAL_Driver/Src/stm32l4xx_hal_pwr_ex.c ****   */
 886:../../core/ST/STM32L4xx_HAL_Driver/Src/stm32l4xx_hal_pwr_ex.c **** void HAL_PWREx_EnablePVM2(void)
 887:../../core/ST/STM32L4xx_HAL_Driver/Src/stm32l4xx_hal_pwr_ex.c **** {
 1306              		.loc 1 887 0
 1307              		.cfi_startproc
 1308              		@ args = 0, pretend = 0, frame = 0
 1309              		@ frame_needed = 0, uses_anonymous_args = 0
 1310              		@ link register save eliminated.
 888:../../core/ST/STM32L4xx_HAL_Driver/Src/stm32l4xx_hal_pwr_ex.c ****   SET_BIT(PWR->CR2, PWR_PVM_2);
 1311              		.loc 1 888 0
 1312 0000 024A     		ldr	r2, .L119
 1313 0002 5368     		ldr	r3, [r2, #4]
 1314 0004 43F02003 		orr	r3, r3, #32
 1315 0008 5360     		str	r3, [r2, #4]
 1316 000a 7047     		bx	lr
 1317              	.L120:
 1318              		.align	2
 1319              	.L119:
 1320 000c 00700040 		.word	1073770496
 1321              		.cfi_endproc
 1322              	.LFE143:
 1324              		.section	.text.HAL_PWREx_DisablePVM2,"ax",%progbits
 1325              		.align	1
 1326              		.global	HAL_PWREx_DisablePVM2
 1327              		.syntax unified
 1328              		.thumb
 1329              		.thumb_func
 1330              		.fpu fpv4-sp-d16
 1332              	HAL_PWREx_DisablePVM2:
 1333              	.LFB144:
ARM GAS  /tmp/ccmTrwWQ.s 			page 40


 889:../../core/ST/STM32L4xx_HAL_Driver/Src/stm32l4xx_hal_pwr_ex.c **** }
 890:../../core/ST/STM32L4xx_HAL_Driver/Src/stm32l4xx_hal_pwr_ex.c **** 
 891:../../core/ST/STM32L4xx_HAL_Driver/Src/stm32l4xx_hal_pwr_ex.c **** /**
 892:../../core/ST/STM32L4xx_HAL_Driver/Src/stm32l4xx_hal_pwr_ex.c ****   * @brief Disable the Power Voltage Monitoring 2: VDDIO2 versus 0.9V.
 893:../../core/ST/STM32L4xx_HAL_Driver/Src/stm32l4xx_hal_pwr_ex.c ****   * @retval None
 894:../../core/ST/STM32L4xx_HAL_Driver/Src/stm32l4xx_hal_pwr_ex.c ****   */
 895:../../core/ST/STM32L4xx_HAL_Driver/Src/stm32l4xx_hal_pwr_ex.c **** void HAL_PWREx_DisablePVM2(void)
 896:../../core/ST/STM32L4xx_HAL_Driver/Src/stm32l4xx_hal_pwr_ex.c **** {
 1334              		.loc 1 896 0
 1335              		.cfi_startproc
 1336              		@ args = 0, pretend = 0, frame = 0
 1337              		@ frame_needed = 0, uses_anonymous_args = 0
 1338              		@ link register save eliminated.
 897:../../core/ST/STM32L4xx_HAL_Driver/Src/stm32l4xx_hal_pwr_ex.c ****   CLEAR_BIT(PWR->CR2, PWR_PVM_2);
 1339              		.loc 1 897 0
 1340 0000 024A     		ldr	r2, .L122
 1341 0002 5368     		ldr	r3, [r2, #4]
 1342 0004 23F02003 		bic	r3, r3, #32
 1343 0008 5360     		str	r3, [r2, #4]
 1344 000a 7047     		bx	lr
 1345              	.L123:
 1346              		.align	2
 1347              	.L122:
 1348 000c 00700040 		.word	1073770496
 1349              		.cfi_endproc
 1350              	.LFE144:
 1352              		.section	.text.HAL_PWREx_EnablePVM3,"ax",%progbits
 1353              		.align	1
 1354              		.global	HAL_PWREx_EnablePVM3
 1355              		.syntax unified
 1356              		.thumb
 1357              		.thumb_func
 1358              		.fpu fpv4-sp-d16
 1360              	HAL_PWREx_EnablePVM3:
 1361              	.LFB145:
 898:../../core/ST/STM32L4xx_HAL_Driver/Src/stm32l4xx_hal_pwr_ex.c **** }
 899:../../core/ST/STM32L4xx_HAL_Driver/Src/stm32l4xx_hal_pwr_ex.c **** #endif /* PWR_CR2_PVME2 */
 900:../../core/ST/STM32L4xx_HAL_Driver/Src/stm32l4xx_hal_pwr_ex.c **** 
 901:../../core/ST/STM32L4xx_HAL_Driver/Src/stm32l4xx_hal_pwr_ex.c **** 
 902:../../core/ST/STM32L4xx_HAL_Driver/Src/stm32l4xx_hal_pwr_ex.c **** /**
 903:../../core/ST/STM32L4xx_HAL_Driver/Src/stm32l4xx_hal_pwr_ex.c ****   * @brief Enable the Power Voltage Monitoring 3: VDDA versus 1.62V.
 904:../../core/ST/STM32L4xx_HAL_Driver/Src/stm32l4xx_hal_pwr_ex.c ****   * @retval None
 905:../../core/ST/STM32L4xx_HAL_Driver/Src/stm32l4xx_hal_pwr_ex.c ****   */
 906:../../core/ST/STM32L4xx_HAL_Driver/Src/stm32l4xx_hal_pwr_ex.c **** void HAL_PWREx_EnablePVM3(void)
 907:../../core/ST/STM32L4xx_HAL_Driver/Src/stm32l4xx_hal_pwr_ex.c **** {
 1362              		.loc 1 907 0
 1363              		.cfi_startproc
 1364              		@ args = 0, pretend = 0, frame = 0
 1365              		@ frame_needed = 0, uses_anonymous_args = 0
 1366              		@ link register save eliminated.
 908:../../core/ST/STM32L4xx_HAL_Driver/Src/stm32l4xx_hal_pwr_ex.c ****   SET_BIT(PWR->CR2, PWR_PVM_3);
 1367              		.loc 1 908 0
 1368 0000 024A     		ldr	r2, .L125
 1369 0002 5368     		ldr	r3, [r2, #4]
 1370 0004 43F04003 		orr	r3, r3, #64
 1371 0008 5360     		str	r3, [r2, #4]
 1372 000a 7047     		bx	lr
ARM GAS  /tmp/ccmTrwWQ.s 			page 41


 1373              	.L126:
 1374              		.align	2
 1375              	.L125:
 1376 000c 00700040 		.word	1073770496
 1377              		.cfi_endproc
 1378              	.LFE145:
 1380              		.section	.text.HAL_PWREx_DisablePVM3,"ax",%progbits
 1381              		.align	1
 1382              		.global	HAL_PWREx_DisablePVM3
 1383              		.syntax unified
 1384              		.thumb
 1385              		.thumb_func
 1386              		.fpu fpv4-sp-d16
 1388              	HAL_PWREx_DisablePVM3:
 1389              	.LFB146:
 909:../../core/ST/STM32L4xx_HAL_Driver/Src/stm32l4xx_hal_pwr_ex.c **** }
 910:../../core/ST/STM32L4xx_HAL_Driver/Src/stm32l4xx_hal_pwr_ex.c **** 
 911:../../core/ST/STM32L4xx_HAL_Driver/Src/stm32l4xx_hal_pwr_ex.c **** /**
 912:../../core/ST/STM32L4xx_HAL_Driver/Src/stm32l4xx_hal_pwr_ex.c ****   * @brief Disable the Power Voltage Monitoring 3: VDDA versus 1.62V.
 913:../../core/ST/STM32L4xx_HAL_Driver/Src/stm32l4xx_hal_pwr_ex.c ****   * @retval None
 914:../../core/ST/STM32L4xx_HAL_Driver/Src/stm32l4xx_hal_pwr_ex.c ****   */
 915:../../core/ST/STM32L4xx_HAL_Driver/Src/stm32l4xx_hal_pwr_ex.c **** void HAL_PWREx_DisablePVM3(void)
 916:../../core/ST/STM32L4xx_HAL_Driver/Src/stm32l4xx_hal_pwr_ex.c **** {
 1390              		.loc 1 916 0
 1391              		.cfi_startproc
 1392              		@ args = 0, pretend = 0, frame = 0
 1393              		@ frame_needed = 0, uses_anonymous_args = 0
 1394              		@ link register save eliminated.
 917:../../core/ST/STM32L4xx_HAL_Driver/Src/stm32l4xx_hal_pwr_ex.c ****   CLEAR_BIT(PWR->CR2, PWR_PVM_3);
 1395              		.loc 1 917 0
 1396 0000 024A     		ldr	r2, .L128
 1397 0002 5368     		ldr	r3, [r2, #4]
 1398 0004 23F04003 		bic	r3, r3, #64
 1399 0008 5360     		str	r3, [r2, #4]
 1400 000a 7047     		bx	lr
 1401              	.L129:
 1402              		.align	2
 1403              	.L128:
 1404 000c 00700040 		.word	1073770496
 1405              		.cfi_endproc
 1406              	.LFE146:
 1408              		.section	.text.HAL_PWREx_EnablePVM4,"ax",%progbits
 1409              		.align	1
 1410              		.global	HAL_PWREx_EnablePVM4
 1411              		.syntax unified
 1412              		.thumb
 1413              		.thumb_func
 1414              		.fpu fpv4-sp-d16
 1416              	HAL_PWREx_EnablePVM4:
 1417              	.LFB147:
 918:../../core/ST/STM32L4xx_HAL_Driver/Src/stm32l4xx_hal_pwr_ex.c **** }
 919:../../core/ST/STM32L4xx_HAL_Driver/Src/stm32l4xx_hal_pwr_ex.c **** 
 920:../../core/ST/STM32L4xx_HAL_Driver/Src/stm32l4xx_hal_pwr_ex.c **** 
 921:../../core/ST/STM32L4xx_HAL_Driver/Src/stm32l4xx_hal_pwr_ex.c **** /**
 922:../../core/ST/STM32L4xx_HAL_Driver/Src/stm32l4xx_hal_pwr_ex.c ****   * @brief Enable the Power Voltage Monitoring 4:  VDDA versus 2.2V.
 923:../../core/ST/STM32L4xx_HAL_Driver/Src/stm32l4xx_hal_pwr_ex.c ****   * @retval None
 924:../../core/ST/STM32L4xx_HAL_Driver/Src/stm32l4xx_hal_pwr_ex.c ****   */
ARM GAS  /tmp/ccmTrwWQ.s 			page 42


 925:../../core/ST/STM32L4xx_HAL_Driver/Src/stm32l4xx_hal_pwr_ex.c **** void HAL_PWREx_EnablePVM4(void)
 926:../../core/ST/STM32L4xx_HAL_Driver/Src/stm32l4xx_hal_pwr_ex.c **** {
 1418              		.loc 1 926 0
 1419              		.cfi_startproc
 1420              		@ args = 0, pretend = 0, frame = 0
 1421              		@ frame_needed = 0, uses_anonymous_args = 0
 1422              		@ link register save eliminated.
 927:../../core/ST/STM32L4xx_HAL_Driver/Src/stm32l4xx_hal_pwr_ex.c ****   SET_BIT(PWR->CR2, PWR_PVM_4);
 1423              		.loc 1 927 0
 1424 0000 024A     		ldr	r2, .L131
 1425 0002 5368     		ldr	r3, [r2, #4]
 1426 0004 43F08003 		orr	r3, r3, #128
 1427 0008 5360     		str	r3, [r2, #4]
 1428 000a 7047     		bx	lr
 1429              	.L132:
 1430              		.align	2
 1431              	.L131:
 1432 000c 00700040 		.word	1073770496
 1433              		.cfi_endproc
 1434              	.LFE147:
 1436              		.section	.text.HAL_PWREx_DisablePVM4,"ax",%progbits
 1437              		.align	1
 1438              		.global	HAL_PWREx_DisablePVM4
 1439              		.syntax unified
 1440              		.thumb
 1441              		.thumb_func
 1442              		.fpu fpv4-sp-d16
 1444              	HAL_PWREx_DisablePVM4:
 1445              	.LFB148:
 928:../../core/ST/STM32L4xx_HAL_Driver/Src/stm32l4xx_hal_pwr_ex.c **** }
 929:../../core/ST/STM32L4xx_HAL_Driver/Src/stm32l4xx_hal_pwr_ex.c **** 
 930:../../core/ST/STM32L4xx_HAL_Driver/Src/stm32l4xx_hal_pwr_ex.c **** /**
 931:../../core/ST/STM32L4xx_HAL_Driver/Src/stm32l4xx_hal_pwr_ex.c ****   * @brief Disable the Power Voltage Monitoring 4:  VDDA versus 2.2V.
 932:../../core/ST/STM32L4xx_HAL_Driver/Src/stm32l4xx_hal_pwr_ex.c ****   * @retval None
 933:../../core/ST/STM32L4xx_HAL_Driver/Src/stm32l4xx_hal_pwr_ex.c ****   */
 934:../../core/ST/STM32L4xx_HAL_Driver/Src/stm32l4xx_hal_pwr_ex.c **** void HAL_PWREx_DisablePVM4(void)
 935:../../core/ST/STM32L4xx_HAL_Driver/Src/stm32l4xx_hal_pwr_ex.c **** {
 1446              		.loc 1 935 0
 1447              		.cfi_startproc
 1448              		@ args = 0, pretend = 0, frame = 0
 1449              		@ frame_needed = 0, uses_anonymous_args = 0
 1450              		@ link register save eliminated.
 936:../../core/ST/STM32L4xx_HAL_Driver/Src/stm32l4xx_hal_pwr_ex.c ****   CLEAR_BIT(PWR->CR2, PWR_PVM_4);
 1451              		.loc 1 936 0
 1452 0000 024A     		ldr	r2, .L134
 1453 0002 5368     		ldr	r3, [r2, #4]
 1454 0004 23F08003 		bic	r3, r3, #128
 1455 0008 5360     		str	r3, [r2, #4]
 1456 000a 7047     		bx	lr
 1457              	.L135:
 1458              		.align	2
 1459              	.L134:
 1460 000c 00700040 		.word	1073770496
 1461              		.cfi_endproc
 1462              	.LFE148:
 1464              		.section	.text.HAL_PWREx_ConfigPVM,"ax",%progbits
 1465              		.align	1
ARM GAS  /tmp/ccmTrwWQ.s 			page 43


 1466              		.global	HAL_PWREx_ConfigPVM
 1467              		.syntax unified
 1468              		.thumb
 1469              		.thumb_func
 1470              		.fpu fpv4-sp-d16
 1472              	HAL_PWREx_ConfigPVM:
 1473              	.LFB149:
 937:../../core/ST/STM32L4xx_HAL_Driver/Src/stm32l4xx_hal_pwr_ex.c **** }
 938:../../core/ST/STM32L4xx_HAL_Driver/Src/stm32l4xx_hal_pwr_ex.c **** 
 939:../../core/ST/STM32L4xx_HAL_Driver/Src/stm32l4xx_hal_pwr_ex.c **** 
 940:../../core/ST/STM32L4xx_HAL_Driver/Src/stm32l4xx_hal_pwr_ex.c **** 
 941:../../core/ST/STM32L4xx_HAL_Driver/Src/stm32l4xx_hal_pwr_ex.c **** 
 942:../../core/ST/STM32L4xx_HAL_Driver/Src/stm32l4xx_hal_pwr_ex.c **** /**
 943:../../core/ST/STM32L4xx_HAL_Driver/Src/stm32l4xx_hal_pwr_ex.c ****   * @brief Configure the Peripheral Voltage Monitoring (PVM).
 944:../../core/ST/STM32L4xx_HAL_Driver/Src/stm32l4xx_hal_pwr_ex.c ****   * @param sConfigPVM: pointer to a PWR_PVMTypeDef structure that contains the
 945:../../core/ST/STM32L4xx_HAL_Driver/Src/stm32l4xx_hal_pwr_ex.c ****   *        PVM configuration information.
 946:../../core/ST/STM32L4xx_HAL_Driver/Src/stm32l4xx_hal_pwr_ex.c ****   * @note The API configures a single PVM according to the information contained
 947:../../core/ST/STM32L4xx_HAL_Driver/Src/stm32l4xx_hal_pwr_ex.c ****   *       in the input structure. To configure several PVMs, the API must be singly
 948:../../core/ST/STM32L4xx_HAL_Driver/Src/stm32l4xx_hal_pwr_ex.c ****   *       called for each PVM used.
 949:../../core/ST/STM32L4xx_HAL_Driver/Src/stm32l4xx_hal_pwr_ex.c ****   * @note Refer to the electrical characteristics of your device datasheet for
 950:../../core/ST/STM32L4xx_HAL_Driver/Src/stm32l4xx_hal_pwr_ex.c ****   *         more details about the voltage thresholds corresponding to each
 951:../../core/ST/STM32L4xx_HAL_Driver/Src/stm32l4xx_hal_pwr_ex.c ****   *         detection level and to each monitored supply.
 952:../../core/ST/STM32L4xx_HAL_Driver/Src/stm32l4xx_hal_pwr_ex.c ****   * @retval HAL status
 953:../../core/ST/STM32L4xx_HAL_Driver/Src/stm32l4xx_hal_pwr_ex.c ****   */
 954:../../core/ST/STM32L4xx_HAL_Driver/Src/stm32l4xx_hal_pwr_ex.c **** HAL_StatusTypeDef HAL_PWREx_ConfigPVM(PWR_PVMTypeDef *sConfigPVM)
 955:../../core/ST/STM32L4xx_HAL_Driver/Src/stm32l4xx_hal_pwr_ex.c **** {
 1474              		.loc 1 955 0
 1475              		.cfi_startproc
 1476              		@ args = 0, pretend = 0, frame = 0
 1477              		@ frame_needed = 0, uses_anonymous_args = 0
 1478              		@ link register save eliminated.
 1479              	.LVL131:
 956:../../core/ST/STM32L4xx_HAL_Driver/Src/stm32l4xx_hal_pwr_ex.c ****   HAL_StatusTypeDef status = HAL_OK;
 957:../../core/ST/STM32L4xx_HAL_Driver/Src/stm32l4xx_hal_pwr_ex.c **** 
 958:../../core/ST/STM32L4xx_HAL_Driver/Src/stm32l4xx_hal_pwr_ex.c ****   /* Check the parameters */
 959:../../core/ST/STM32L4xx_HAL_Driver/Src/stm32l4xx_hal_pwr_ex.c ****   assert_param(IS_PWR_PVM_TYPE(sConfigPVM->PVMType));
 960:../../core/ST/STM32L4xx_HAL_Driver/Src/stm32l4xx_hal_pwr_ex.c ****   assert_param(IS_PWR_PVM_MODE(sConfigPVM->Mode));
 961:../../core/ST/STM32L4xx_HAL_Driver/Src/stm32l4xx_hal_pwr_ex.c **** 
 962:../../core/ST/STM32L4xx_HAL_Driver/Src/stm32l4xx_hal_pwr_ex.c **** 
 963:../../core/ST/STM32L4xx_HAL_Driver/Src/stm32l4xx_hal_pwr_ex.c ****   /* Configure EXTI 35 to 38 interrupts if so required:
 964:../../core/ST/STM32L4xx_HAL_Driver/Src/stm32l4xx_hal_pwr_ex.c ****      scan thru PVMType to detect which PVMx is set and
 965:../../core/ST/STM32L4xx_HAL_Driver/Src/stm32l4xx_hal_pwr_ex.c ****      configure the corresponding EXTI line accordingly. */
 966:../../core/ST/STM32L4xx_HAL_Driver/Src/stm32l4xx_hal_pwr_ex.c ****   switch (sConfigPVM->PVMType)
 1480              		.loc 1 966 0
 1481 0000 0368     		ldr	r3, [r0]
 1482 0002 202B     		cmp	r3, #32
 1483 0004 78D0     		beq	.L138
 1484 0006 3DD9     		bls	.L160
 1485 0008 402B     		cmp	r3, #64
 1486 000a 00F0AC80 		beq	.L141
 1487 000e 802B     		cmp	r3, #128
 1488 0010 40F0E080 		bne	.L155
 967:../../core/ST/STM32L4xx_HAL_Driver/Src/stm32l4xx_hal_pwr_ex.c ****   {
 968:../../core/ST/STM32L4xx_HAL_Driver/Src/stm32l4xx_hal_pwr_ex.c **** #if defined(PWR_CR2_PVME1)
 969:../../core/ST/STM32L4xx_HAL_Driver/Src/stm32l4xx_hal_pwr_ex.c ****     case PWR_PVM_1:
 970:../../core/ST/STM32L4xx_HAL_Driver/Src/stm32l4xx_hal_pwr_ex.c ****       /* Clear any previous config. Keep it clear if no event or IT mode is selected */
 971:../../core/ST/STM32L4xx_HAL_Driver/Src/stm32l4xx_hal_pwr_ex.c ****       __HAL_PWR_PVM1_EXTI_DISABLE_EVENT();
ARM GAS  /tmp/ccmTrwWQ.s 			page 44


 972:../../core/ST/STM32L4xx_HAL_Driver/Src/stm32l4xx_hal_pwr_ex.c ****       __HAL_PWR_PVM1_EXTI_DISABLE_IT();
 973:../../core/ST/STM32L4xx_HAL_Driver/Src/stm32l4xx_hal_pwr_ex.c ****       __HAL_PWR_PVM1_EXTI_DISABLE_FALLING_EDGE();
 974:../../core/ST/STM32L4xx_HAL_Driver/Src/stm32l4xx_hal_pwr_ex.c ****       __HAL_PWR_PVM1_EXTI_DISABLE_RISING_EDGE();
 975:../../core/ST/STM32L4xx_HAL_Driver/Src/stm32l4xx_hal_pwr_ex.c **** 
 976:../../core/ST/STM32L4xx_HAL_Driver/Src/stm32l4xx_hal_pwr_ex.c ****       /* Configure interrupt mode */
 977:../../core/ST/STM32L4xx_HAL_Driver/Src/stm32l4xx_hal_pwr_ex.c ****       if((sConfigPVM->Mode & PVM_MODE_IT) == PVM_MODE_IT)
 978:../../core/ST/STM32L4xx_HAL_Driver/Src/stm32l4xx_hal_pwr_ex.c ****       {
 979:../../core/ST/STM32L4xx_HAL_Driver/Src/stm32l4xx_hal_pwr_ex.c ****         __HAL_PWR_PVM1_EXTI_ENABLE_IT();
 980:../../core/ST/STM32L4xx_HAL_Driver/Src/stm32l4xx_hal_pwr_ex.c ****       }
 981:../../core/ST/STM32L4xx_HAL_Driver/Src/stm32l4xx_hal_pwr_ex.c **** 
 982:../../core/ST/STM32L4xx_HAL_Driver/Src/stm32l4xx_hal_pwr_ex.c ****       /* Configure event mode */
 983:../../core/ST/STM32L4xx_HAL_Driver/Src/stm32l4xx_hal_pwr_ex.c ****       if((sConfigPVM->Mode & PVM_MODE_EVT) == PVM_MODE_EVT)
 984:../../core/ST/STM32L4xx_HAL_Driver/Src/stm32l4xx_hal_pwr_ex.c ****       {
 985:../../core/ST/STM32L4xx_HAL_Driver/Src/stm32l4xx_hal_pwr_ex.c ****         __HAL_PWR_PVM1_EXTI_ENABLE_EVENT();
 986:../../core/ST/STM32L4xx_HAL_Driver/Src/stm32l4xx_hal_pwr_ex.c ****       }
 987:../../core/ST/STM32L4xx_HAL_Driver/Src/stm32l4xx_hal_pwr_ex.c **** 
 988:../../core/ST/STM32L4xx_HAL_Driver/Src/stm32l4xx_hal_pwr_ex.c ****       /* Configure the edge */
 989:../../core/ST/STM32L4xx_HAL_Driver/Src/stm32l4xx_hal_pwr_ex.c ****       if((sConfigPVM->Mode & PVM_RISING_EDGE) == PVM_RISING_EDGE)
 990:../../core/ST/STM32L4xx_HAL_Driver/Src/stm32l4xx_hal_pwr_ex.c ****       {
 991:../../core/ST/STM32L4xx_HAL_Driver/Src/stm32l4xx_hal_pwr_ex.c ****         __HAL_PWR_PVM1_EXTI_ENABLE_RISING_EDGE();
 992:../../core/ST/STM32L4xx_HAL_Driver/Src/stm32l4xx_hal_pwr_ex.c ****       }
 993:../../core/ST/STM32L4xx_HAL_Driver/Src/stm32l4xx_hal_pwr_ex.c **** 
 994:../../core/ST/STM32L4xx_HAL_Driver/Src/stm32l4xx_hal_pwr_ex.c ****       if((sConfigPVM->Mode & PVM_FALLING_EDGE) == PVM_FALLING_EDGE)
 995:../../core/ST/STM32L4xx_HAL_Driver/Src/stm32l4xx_hal_pwr_ex.c ****       {
 996:../../core/ST/STM32L4xx_HAL_Driver/Src/stm32l4xx_hal_pwr_ex.c ****         __HAL_PWR_PVM1_EXTI_ENABLE_FALLING_EDGE();
 997:../../core/ST/STM32L4xx_HAL_Driver/Src/stm32l4xx_hal_pwr_ex.c ****       }
 998:../../core/ST/STM32L4xx_HAL_Driver/Src/stm32l4xx_hal_pwr_ex.c ****       break;
 999:../../core/ST/STM32L4xx_HAL_Driver/Src/stm32l4xx_hal_pwr_ex.c **** #endif /* PWR_CR2_PVME1 */
1000:../../core/ST/STM32L4xx_HAL_Driver/Src/stm32l4xx_hal_pwr_ex.c **** 
1001:../../core/ST/STM32L4xx_HAL_Driver/Src/stm32l4xx_hal_pwr_ex.c **** #if defined(PWR_CR2_PVME2)
1002:../../core/ST/STM32L4xx_HAL_Driver/Src/stm32l4xx_hal_pwr_ex.c ****     case PWR_PVM_2:
1003:../../core/ST/STM32L4xx_HAL_Driver/Src/stm32l4xx_hal_pwr_ex.c ****       /* Clear any previous config. Keep it clear if no event or IT mode is selected */
1004:../../core/ST/STM32L4xx_HAL_Driver/Src/stm32l4xx_hal_pwr_ex.c ****       __HAL_PWR_PVM2_EXTI_DISABLE_EVENT();
1005:../../core/ST/STM32L4xx_HAL_Driver/Src/stm32l4xx_hal_pwr_ex.c ****       __HAL_PWR_PVM2_EXTI_DISABLE_IT();
1006:../../core/ST/STM32L4xx_HAL_Driver/Src/stm32l4xx_hal_pwr_ex.c ****       __HAL_PWR_PVM2_EXTI_DISABLE_FALLING_EDGE();
1007:../../core/ST/STM32L4xx_HAL_Driver/Src/stm32l4xx_hal_pwr_ex.c ****       __HAL_PWR_PVM2_EXTI_DISABLE_RISING_EDGE();
1008:../../core/ST/STM32L4xx_HAL_Driver/Src/stm32l4xx_hal_pwr_ex.c **** 
1009:../../core/ST/STM32L4xx_HAL_Driver/Src/stm32l4xx_hal_pwr_ex.c ****       /* Configure interrupt mode */
1010:../../core/ST/STM32L4xx_HAL_Driver/Src/stm32l4xx_hal_pwr_ex.c ****       if((sConfigPVM->Mode & PVM_MODE_IT) == PVM_MODE_IT)
1011:../../core/ST/STM32L4xx_HAL_Driver/Src/stm32l4xx_hal_pwr_ex.c ****       {
1012:../../core/ST/STM32L4xx_HAL_Driver/Src/stm32l4xx_hal_pwr_ex.c ****         __HAL_PWR_PVM2_EXTI_ENABLE_IT();
1013:../../core/ST/STM32L4xx_HAL_Driver/Src/stm32l4xx_hal_pwr_ex.c ****       }
1014:../../core/ST/STM32L4xx_HAL_Driver/Src/stm32l4xx_hal_pwr_ex.c **** 
1015:../../core/ST/STM32L4xx_HAL_Driver/Src/stm32l4xx_hal_pwr_ex.c ****       /* Configure event mode */
1016:../../core/ST/STM32L4xx_HAL_Driver/Src/stm32l4xx_hal_pwr_ex.c ****       if((sConfigPVM->Mode & PVM_MODE_EVT) == PVM_MODE_EVT)
1017:../../core/ST/STM32L4xx_HAL_Driver/Src/stm32l4xx_hal_pwr_ex.c ****       {
1018:../../core/ST/STM32L4xx_HAL_Driver/Src/stm32l4xx_hal_pwr_ex.c ****         __HAL_PWR_PVM2_EXTI_ENABLE_EVENT();
1019:../../core/ST/STM32L4xx_HAL_Driver/Src/stm32l4xx_hal_pwr_ex.c ****       }
1020:../../core/ST/STM32L4xx_HAL_Driver/Src/stm32l4xx_hal_pwr_ex.c **** 
1021:../../core/ST/STM32L4xx_HAL_Driver/Src/stm32l4xx_hal_pwr_ex.c ****       /* Configure the edge */
1022:../../core/ST/STM32L4xx_HAL_Driver/Src/stm32l4xx_hal_pwr_ex.c ****       if((sConfigPVM->Mode & PVM_RISING_EDGE) == PVM_RISING_EDGE)
1023:../../core/ST/STM32L4xx_HAL_Driver/Src/stm32l4xx_hal_pwr_ex.c ****       {
1024:../../core/ST/STM32L4xx_HAL_Driver/Src/stm32l4xx_hal_pwr_ex.c ****         __HAL_PWR_PVM2_EXTI_ENABLE_RISING_EDGE();
1025:../../core/ST/STM32L4xx_HAL_Driver/Src/stm32l4xx_hal_pwr_ex.c ****       }
1026:../../core/ST/STM32L4xx_HAL_Driver/Src/stm32l4xx_hal_pwr_ex.c **** 
1027:../../core/ST/STM32L4xx_HAL_Driver/Src/stm32l4xx_hal_pwr_ex.c ****       if((sConfigPVM->Mode & PVM_FALLING_EDGE) == PVM_FALLING_EDGE)
1028:../../core/ST/STM32L4xx_HAL_Driver/Src/stm32l4xx_hal_pwr_ex.c ****       {
ARM GAS  /tmp/ccmTrwWQ.s 			page 45


1029:../../core/ST/STM32L4xx_HAL_Driver/Src/stm32l4xx_hal_pwr_ex.c ****         __HAL_PWR_PVM2_EXTI_ENABLE_FALLING_EDGE();
1030:../../core/ST/STM32L4xx_HAL_Driver/Src/stm32l4xx_hal_pwr_ex.c ****       }
1031:../../core/ST/STM32L4xx_HAL_Driver/Src/stm32l4xx_hal_pwr_ex.c ****       break;
1032:../../core/ST/STM32L4xx_HAL_Driver/Src/stm32l4xx_hal_pwr_ex.c **** #endif /* PWR_CR2_PVME2 */
1033:../../core/ST/STM32L4xx_HAL_Driver/Src/stm32l4xx_hal_pwr_ex.c **** 
1034:../../core/ST/STM32L4xx_HAL_Driver/Src/stm32l4xx_hal_pwr_ex.c ****     case PWR_PVM_3:
1035:../../core/ST/STM32L4xx_HAL_Driver/Src/stm32l4xx_hal_pwr_ex.c ****       /* Clear any previous config. Keep it clear if no event or IT mode is selected */
1036:../../core/ST/STM32L4xx_HAL_Driver/Src/stm32l4xx_hal_pwr_ex.c ****       __HAL_PWR_PVM3_EXTI_DISABLE_EVENT();
1037:../../core/ST/STM32L4xx_HAL_Driver/Src/stm32l4xx_hal_pwr_ex.c ****       __HAL_PWR_PVM3_EXTI_DISABLE_IT();
1038:../../core/ST/STM32L4xx_HAL_Driver/Src/stm32l4xx_hal_pwr_ex.c ****       __HAL_PWR_PVM3_EXTI_DISABLE_FALLING_EDGE();
1039:../../core/ST/STM32L4xx_HAL_Driver/Src/stm32l4xx_hal_pwr_ex.c ****       __HAL_PWR_PVM3_EXTI_DISABLE_RISING_EDGE();
1040:../../core/ST/STM32L4xx_HAL_Driver/Src/stm32l4xx_hal_pwr_ex.c **** 
1041:../../core/ST/STM32L4xx_HAL_Driver/Src/stm32l4xx_hal_pwr_ex.c ****       /* Configure interrupt mode */
1042:../../core/ST/STM32L4xx_HAL_Driver/Src/stm32l4xx_hal_pwr_ex.c ****       if((sConfigPVM->Mode & PVM_MODE_IT) == PVM_MODE_IT)
1043:../../core/ST/STM32L4xx_HAL_Driver/Src/stm32l4xx_hal_pwr_ex.c ****       {
1044:../../core/ST/STM32L4xx_HAL_Driver/Src/stm32l4xx_hal_pwr_ex.c ****         __HAL_PWR_PVM3_EXTI_ENABLE_IT();
1045:../../core/ST/STM32L4xx_HAL_Driver/Src/stm32l4xx_hal_pwr_ex.c ****       }
1046:../../core/ST/STM32L4xx_HAL_Driver/Src/stm32l4xx_hal_pwr_ex.c **** 
1047:../../core/ST/STM32L4xx_HAL_Driver/Src/stm32l4xx_hal_pwr_ex.c ****       /* Configure event mode */
1048:../../core/ST/STM32L4xx_HAL_Driver/Src/stm32l4xx_hal_pwr_ex.c ****       if((sConfigPVM->Mode & PVM_MODE_EVT) == PVM_MODE_EVT)
1049:../../core/ST/STM32L4xx_HAL_Driver/Src/stm32l4xx_hal_pwr_ex.c ****       {
1050:../../core/ST/STM32L4xx_HAL_Driver/Src/stm32l4xx_hal_pwr_ex.c ****         __HAL_PWR_PVM3_EXTI_ENABLE_EVENT();
1051:../../core/ST/STM32L4xx_HAL_Driver/Src/stm32l4xx_hal_pwr_ex.c ****       }
1052:../../core/ST/STM32L4xx_HAL_Driver/Src/stm32l4xx_hal_pwr_ex.c **** 
1053:../../core/ST/STM32L4xx_HAL_Driver/Src/stm32l4xx_hal_pwr_ex.c ****       /* Configure the edge */
1054:../../core/ST/STM32L4xx_HAL_Driver/Src/stm32l4xx_hal_pwr_ex.c ****       if((sConfigPVM->Mode & PVM_RISING_EDGE) == PVM_RISING_EDGE)
1055:../../core/ST/STM32L4xx_HAL_Driver/Src/stm32l4xx_hal_pwr_ex.c ****       {
1056:../../core/ST/STM32L4xx_HAL_Driver/Src/stm32l4xx_hal_pwr_ex.c ****         __HAL_PWR_PVM3_EXTI_ENABLE_RISING_EDGE();
1057:../../core/ST/STM32L4xx_HAL_Driver/Src/stm32l4xx_hal_pwr_ex.c ****       }
1058:../../core/ST/STM32L4xx_HAL_Driver/Src/stm32l4xx_hal_pwr_ex.c **** 
1059:../../core/ST/STM32L4xx_HAL_Driver/Src/stm32l4xx_hal_pwr_ex.c ****       if((sConfigPVM->Mode & PVM_FALLING_EDGE) == PVM_FALLING_EDGE)
1060:../../core/ST/STM32L4xx_HAL_Driver/Src/stm32l4xx_hal_pwr_ex.c ****       {
1061:../../core/ST/STM32L4xx_HAL_Driver/Src/stm32l4xx_hal_pwr_ex.c ****         __HAL_PWR_PVM3_EXTI_ENABLE_FALLING_EDGE();
1062:../../core/ST/STM32L4xx_HAL_Driver/Src/stm32l4xx_hal_pwr_ex.c ****       }
1063:../../core/ST/STM32L4xx_HAL_Driver/Src/stm32l4xx_hal_pwr_ex.c ****       break;
1064:../../core/ST/STM32L4xx_HAL_Driver/Src/stm32l4xx_hal_pwr_ex.c **** 
1065:../../core/ST/STM32L4xx_HAL_Driver/Src/stm32l4xx_hal_pwr_ex.c ****     case PWR_PVM_4:
1066:../../core/ST/STM32L4xx_HAL_Driver/Src/stm32l4xx_hal_pwr_ex.c ****       /* Clear any previous config. Keep it clear if no event or IT mode is selected */
1067:../../core/ST/STM32L4xx_HAL_Driver/Src/stm32l4xx_hal_pwr_ex.c ****       __HAL_PWR_PVM4_EXTI_DISABLE_EVENT();
 1489              		.loc 1 1067 0
 1490 0014 744B     		ldr	r3, .L161
 1491 0016 5A6A     		ldr	r2, [r3, #36]
 1492 0018 22F04002 		bic	r2, r2, #64
 1493 001c 5A62     		str	r2, [r3, #36]
1068:../../core/ST/STM32L4xx_HAL_Driver/Src/stm32l4xx_hal_pwr_ex.c ****       __HAL_PWR_PVM4_EXTI_DISABLE_IT();
 1494              		.loc 1 1068 0
 1495 001e 1A6A     		ldr	r2, [r3, #32]
 1496 0020 22F04002 		bic	r2, r2, #64
 1497 0024 1A62     		str	r2, [r3, #32]
1069:../../core/ST/STM32L4xx_HAL_Driver/Src/stm32l4xx_hal_pwr_ex.c ****       __HAL_PWR_PVM4_EXTI_DISABLE_FALLING_EDGE();
 1498              		.loc 1 1069 0
 1499 0026 DA6A     		ldr	r2, [r3, #44]
 1500 0028 22F04002 		bic	r2, r2, #64
 1501 002c DA62     		str	r2, [r3, #44]
1070:../../core/ST/STM32L4xx_HAL_Driver/Src/stm32l4xx_hal_pwr_ex.c ****       __HAL_PWR_PVM4_EXTI_DISABLE_RISING_EDGE();
 1502              		.loc 1 1070 0
 1503 002e 9A6A     		ldr	r2, [r3, #40]
ARM GAS  /tmp/ccmTrwWQ.s 			page 46


 1504 0030 22F04002 		bic	r2, r2, #64
 1505 0034 9A62     		str	r2, [r3, #40]
1071:../../core/ST/STM32L4xx_HAL_Driver/Src/stm32l4xx_hal_pwr_ex.c **** 
1072:../../core/ST/STM32L4xx_HAL_Driver/Src/stm32l4xx_hal_pwr_ex.c ****       /* Configure interrupt mode */
1073:../../core/ST/STM32L4xx_HAL_Driver/Src/stm32l4xx_hal_pwr_ex.c ****       if((sConfigPVM->Mode & PVM_MODE_IT) == PVM_MODE_IT)
 1506              		.loc 1 1073 0
 1507 0036 4368     		ldr	r3, [r0, #4]
 1508 0038 13F4803F 		tst	r3, #65536
 1509 003c 04D0     		beq	.L152
1074:../../core/ST/STM32L4xx_HAL_Driver/Src/stm32l4xx_hal_pwr_ex.c ****       {
1075:../../core/ST/STM32L4xx_HAL_Driver/Src/stm32l4xx_hal_pwr_ex.c ****         __HAL_PWR_PVM4_EXTI_ENABLE_IT();
 1510              		.loc 1 1075 0
 1511 003e 6A4A     		ldr	r2, .L161
 1512 0040 136A     		ldr	r3, [r2, #32]
 1513 0042 43F04003 		orr	r3, r3, #64
 1514 0046 1362     		str	r3, [r2, #32]
 1515              	.L152:
1076:../../core/ST/STM32L4xx_HAL_Driver/Src/stm32l4xx_hal_pwr_ex.c ****       }
1077:../../core/ST/STM32L4xx_HAL_Driver/Src/stm32l4xx_hal_pwr_ex.c **** 
1078:../../core/ST/STM32L4xx_HAL_Driver/Src/stm32l4xx_hal_pwr_ex.c ****       /* Configure event mode */
1079:../../core/ST/STM32L4xx_HAL_Driver/Src/stm32l4xx_hal_pwr_ex.c ****       if((sConfigPVM->Mode & PVM_MODE_EVT) == PVM_MODE_EVT)
 1516              		.loc 1 1079 0
 1517 0048 4368     		ldr	r3, [r0, #4]
 1518 004a 13F4003F 		tst	r3, #131072
 1519 004e 04D0     		beq	.L153
1080:../../core/ST/STM32L4xx_HAL_Driver/Src/stm32l4xx_hal_pwr_ex.c ****       {
1081:../../core/ST/STM32L4xx_HAL_Driver/Src/stm32l4xx_hal_pwr_ex.c ****         __HAL_PWR_PVM4_EXTI_ENABLE_EVENT();
 1520              		.loc 1 1081 0
 1521 0050 654A     		ldr	r2, .L161
 1522 0052 536A     		ldr	r3, [r2, #36]
 1523 0054 43F04003 		orr	r3, r3, #64
 1524 0058 5362     		str	r3, [r2, #36]
 1525              	.L153:
1082:../../core/ST/STM32L4xx_HAL_Driver/Src/stm32l4xx_hal_pwr_ex.c ****       }
1083:../../core/ST/STM32L4xx_HAL_Driver/Src/stm32l4xx_hal_pwr_ex.c **** 
1084:../../core/ST/STM32L4xx_HAL_Driver/Src/stm32l4xx_hal_pwr_ex.c ****       /* Configure the edge */
1085:../../core/ST/STM32L4xx_HAL_Driver/Src/stm32l4xx_hal_pwr_ex.c ****       if((sConfigPVM->Mode & PVM_RISING_EDGE) == PVM_RISING_EDGE)
 1526              		.loc 1 1085 0
 1527 005a 4368     		ldr	r3, [r0, #4]
 1528 005c 13F0010F 		tst	r3, #1
 1529 0060 04D0     		beq	.L154
1086:../../core/ST/STM32L4xx_HAL_Driver/Src/stm32l4xx_hal_pwr_ex.c ****       {
1087:../../core/ST/STM32L4xx_HAL_Driver/Src/stm32l4xx_hal_pwr_ex.c ****         __HAL_PWR_PVM4_EXTI_ENABLE_RISING_EDGE();
 1530              		.loc 1 1087 0
 1531 0062 614A     		ldr	r2, .L161
 1532 0064 936A     		ldr	r3, [r2, #40]
 1533 0066 43F04003 		orr	r3, r3, #64
 1534 006a 9362     		str	r3, [r2, #40]
 1535              	.L154:
1088:../../core/ST/STM32L4xx_HAL_Driver/Src/stm32l4xx_hal_pwr_ex.c ****       }
1089:../../core/ST/STM32L4xx_HAL_Driver/Src/stm32l4xx_hal_pwr_ex.c **** 
1090:../../core/ST/STM32L4xx_HAL_Driver/Src/stm32l4xx_hal_pwr_ex.c ****       if((sConfigPVM->Mode & PVM_FALLING_EDGE) == PVM_FALLING_EDGE)
 1536              		.loc 1 1090 0
 1537 006c 4368     		ldr	r3, [r0, #4]
 1538 006e 13F0020F 		tst	r3, #2
 1539 0072 00F0B780 		beq	.L159
1091:../../core/ST/STM32L4xx_HAL_Driver/Src/stm32l4xx_hal_pwr_ex.c ****       {
ARM GAS  /tmp/ccmTrwWQ.s 			page 47


1092:../../core/ST/STM32L4xx_HAL_Driver/Src/stm32l4xx_hal_pwr_ex.c ****         __HAL_PWR_PVM4_EXTI_ENABLE_FALLING_EDGE();
 1540              		.loc 1 1092 0
 1541 0076 5C4A     		ldr	r2, .L161
 1542 0078 D36A     		ldr	r3, [r2, #44]
 1543 007a 43F04003 		orr	r3, r3, #64
 1544 007e D362     		str	r3, [r2, #44]
 956:../../core/ST/STM32L4xx_HAL_Driver/Src/stm32l4xx_hal_pwr_ex.c **** 
 1545              		.loc 1 956 0
 1546 0080 0020     		movs	r0, #0
 1547              	.LVL132:
 1548 0082 7047     		bx	lr
 1549              	.LVL133:
 1550              	.L160:
 966:../../core/ST/STM32L4xx_HAL_Driver/Src/stm32l4xx_hal_pwr_ex.c ****   {
 1551              		.loc 1 966 0
 1552 0084 102B     		cmp	r3, #16
 1553 0086 40F0A580 		bne	.L155
 971:../../core/ST/STM32L4xx_HAL_Driver/Src/stm32l4xx_hal_pwr_ex.c ****       __HAL_PWR_PVM1_EXTI_DISABLE_IT();
 1554              		.loc 1 971 0
 1555 008a 574B     		ldr	r3, .L161
 1556 008c 5A6A     		ldr	r2, [r3, #36]
 1557 008e 22F00802 		bic	r2, r2, #8
 1558 0092 5A62     		str	r2, [r3, #36]
 972:../../core/ST/STM32L4xx_HAL_Driver/Src/stm32l4xx_hal_pwr_ex.c ****       __HAL_PWR_PVM1_EXTI_DISABLE_FALLING_EDGE();
 1559              		.loc 1 972 0
 1560 0094 1A6A     		ldr	r2, [r3, #32]
 1561 0096 22F00802 		bic	r2, r2, #8
 1562 009a 1A62     		str	r2, [r3, #32]
 973:../../core/ST/STM32L4xx_HAL_Driver/Src/stm32l4xx_hal_pwr_ex.c ****       __HAL_PWR_PVM1_EXTI_DISABLE_RISING_EDGE();
 1563              		.loc 1 973 0
 1564 009c DA6A     		ldr	r2, [r3, #44]
 1565 009e 22F00802 		bic	r2, r2, #8
 1566 00a2 DA62     		str	r2, [r3, #44]
 974:../../core/ST/STM32L4xx_HAL_Driver/Src/stm32l4xx_hal_pwr_ex.c **** 
 1567              		.loc 1 974 0
 1568 00a4 9A6A     		ldr	r2, [r3, #40]
 1569 00a6 22F00802 		bic	r2, r2, #8
 1570 00aa 9A62     		str	r2, [r3, #40]
 977:../../core/ST/STM32L4xx_HAL_Driver/Src/stm32l4xx_hal_pwr_ex.c ****       {
 1571              		.loc 1 977 0
 1572 00ac 4368     		ldr	r3, [r0, #4]
 1573 00ae 13F4803F 		tst	r3, #65536
 1574 00b2 04D0     		beq	.L143
 979:../../core/ST/STM32L4xx_HAL_Driver/Src/stm32l4xx_hal_pwr_ex.c ****       }
 1575              		.loc 1 979 0
 1576 00b4 4C4A     		ldr	r2, .L161
 1577 00b6 136A     		ldr	r3, [r2, #32]
 1578 00b8 43F00803 		orr	r3, r3, #8
 1579 00bc 1362     		str	r3, [r2, #32]
 1580              	.L143:
 983:../../core/ST/STM32L4xx_HAL_Driver/Src/stm32l4xx_hal_pwr_ex.c ****       {
 1581              		.loc 1 983 0
 1582 00be 4368     		ldr	r3, [r0, #4]
 1583 00c0 13F4003F 		tst	r3, #131072
 1584 00c4 04D0     		beq	.L144
 985:../../core/ST/STM32L4xx_HAL_Driver/Src/stm32l4xx_hal_pwr_ex.c ****       }
 1585              		.loc 1 985 0
ARM GAS  /tmp/ccmTrwWQ.s 			page 48


 1586 00c6 484A     		ldr	r2, .L161
 1587 00c8 536A     		ldr	r3, [r2, #36]
 1588 00ca 43F00803 		orr	r3, r3, #8
 1589 00ce 5362     		str	r3, [r2, #36]
 1590              	.L144:
 989:../../core/ST/STM32L4xx_HAL_Driver/Src/stm32l4xx_hal_pwr_ex.c ****       {
 1591              		.loc 1 989 0
 1592 00d0 4368     		ldr	r3, [r0, #4]
 1593 00d2 13F0010F 		tst	r3, #1
 1594 00d6 04D0     		beq	.L145
 991:../../core/ST/STM32L4xx_HAL_Driver/Src/stm32l4xx_hal_pwr_ex.c ****       }
 1595              		.loc 1 991 0
 1596 00d8 434A     		ldr	r2, .L161
 1597 00da 936A     		ldr	r3, [r2, #40]
 1598 00dc 43F00803 		orr	r3, r3, #8
 1599 00e0 9362     		str	r3, [r2, #40]
 1600              	.L145:
 994:../../core/ST/STM32L4xx_HAL_Driver/Src/stm32l4xx_hal_pwr_ex.c ****       {
 1601              		.loc 1 994 0
 1602 00e2 4368     		ldr	r3, [r0, #4]
 1603 00e4 13F0020F 		tst	r3, #2
 1604 00e8 76D0     		beq	.L156
 996:../../core/ST/STM32L4xx_HAL_Driver/Src/stm32l4xx_hal_pwr_ex.c ****       }
 1605              		.loc 1 996 0
 1606 00ea 3F4A     		ldr	r2, .L161
 1607 00ec D36A     		ldr	r3, [r2, #44]
 1608 00ee 43F00803 		orr	r3, r3, #8
 1609 00f2 D362     		str	r3, [r2, #44]
 956:../../core/ST/STM32L4xx_HAL_Driver/Src/stm32l4xx_hal_pwr_ex.c **** 
 1610              		.loc 1 956 0
 1611 00f4 0020     		movs	r0, #0
 1612              	.LVL134:
 1613 00f6 7047     		bx	lr
 1614              	.LVL135:
 1615              	.L138:
1004:../../core/ST/STM32L4xx_HAL_Driver/Src/stm32l4xx_hal_pwr_ex.c ****       __HAL_PWR_PVM2_EXTI_DISABLE_IT();
 1616              		.loc 1 1004 0
 1617 00f8 3B4B     		ldr	r3, .L161
 1618 00fa 5A6A     		ldr	r2, [r3, #36]
 1619 00fc 22F01002 		bic	r2, r2, #16
 1620 0100 5A62     		str	r2, [r3, #36]
1005:../../core/ST/STM32L4xx_HAL_Driver/Src/stm32l4xx_hal_pwr_ex.c ****       __HAL_PWR_PVM2_EXTI_DISABLE_FALLING_EDGE();
 1621              		.loc 1 1005 0
 1622 0102 1A6A     		ldr	r2, [r3, #32]
 1623 0104 22F01002 		bic	r2, r2, #16
 1624 0108 1A62     		str	r2, [r3, #32]
1006:../../core/ST/STM32L4xx_HAL_Driver/Src/stm32l4xx_hal_pwr_ex.c ****       __HAL_PWR_PVM2_EXTI_DISABLE_RISING_EDGE();
 1625              		.loc 1 1006 0
 1626 010a DA6A     		ldr	r2, [r3, #44]
 1627 010c 22F01002 		bic	r2, r2, #16
 1628 0110 DA62     		str	r2, [r3, #44]
1007:../../core/ST/STM32L4xx_HAL_Driver/Src/stm32l4xx_hal_pwr_ex.c **** 
 1629              		.loc 1 1007 0
 1630 0112 9A6A     		ldr	r2, [r3, #40]
 1631 0114 22F01002 		bic	r2, r2, #16
 1632 0118 9A62     		str	r2, [r3, #40]
1010:../../core/ST/STM32L4xx_HAL_Driver/Src/stm32l4xx_hal_pwr_ex.c ****       {
ARM GAS  /tmp/ccmTrwWQ.s 			page 49


 1633              		.loc 1 1010 0
 1634 011a 4368     		ldr	r3, [r0, #4]
 1635 011c 13F4803F 		tst	r3, #65536
 1636 0120 04D0     		beq	.L146
1012:../../core/ST/STM32L4xx_HAL_Driver/Src/stm32l4xx_hal_pwr_ex.c ****       }
 1637              		.loc 1 1012 0
 1638 0122 314A     		ldr	r2, .L161
 1639 0124 136A     		ldr	r3, [r2, #32]
 1640 0126 43F01003 		orr	r3, r3, #16
 1641 012a 1362     		str	r3, [r2, #32]
 1642              	.L146:
1016:../../core/ST/STM32L4xx_HAL_Driver/Src/stm32l4xx_hal_pwr_ex.c ****       {
 1643              		.loc 1 1016 0
 1644 012c 4368     		ldr	r3, [r0, #4]
 1645 012e 13F4003F 		tst	r3, #131072
 1646 0132 04D0     		beq	.L147
1018:../../core/ST/STM32L4xx_HAL_Driver/Src/stm32l4xx_hal_pwr_ex.c ****       }
 1647              		.loc 1 1018 0
 1648 0134 2C4A     		ldr	r2, .L161
 1649 0136 536A     		ldr	r3, [r2, #36]
 1650 0138 43F01003 		orr	r3, r3, #16
 1651 013c 5362     		str	r3, [r2, #36]
 1652              	.L147:
1022:../../core/ST/STM32L4xx_HAL_Driver/Src/stm32l4xx_hal_pwr_ex.c ****       {
 1653              		.loc 1 1022 0
 1654 013e 4368     		ldr	r3, [r0, #4]
 1655 0140 13F0010F 		tst	r3, #1
 1656 0144 04D0     		beq	.L148
1024:../../core/ST/STM32L4xx_HAL_Driver/Src/stm32l4xx_hal_pwr_ex.c ****       }
 1657              		.loc 1 1024 0
 1658 0146 284A     		ldr	r2, .L161
 1659 0148 936A     		ldr	r3, [r2, #40]
 1660 014a 43F01003 		orr	r3, r3, #16
 1661 014e 9362     		str	r3, [r2, #40]
 1662              	.L148:
1027:../../core/ST/STM32L4xx_HAL_Driver/Src/stm32l4xx_hal_pwr_ex.c ****       {
 1663              		.loc 1 1027 0
 1664 0150 4368     		ldr	r3, [r0, #4]
 1665 0152 13F0020F 		tst	r3, #2
 1666 0156 41D0     		beq	.L157
1029:../../core/ST/STM32L4xx_HAL_Driver/Src/stm32l4xx_hal_pwr_ex.c ****       }
 1667              		.loc 1 1029 0
 1668 0158 234A     		ldr	r2, .L161
 1669 015a D36A     		ldr	r3, [r2, #44]
 1670 015c 43F01003 		orr	r3, r3, #16
 1671 0160 D362     		str	r3, [r2, #44]
 956:../../core/ST/STM32L4xx_HAL_Driver/Src/stm32l4xx_hal_pwr_ex.c **** 
 1672              		.loc 1 956 0
 1673 0162 0020     		movs	r0, #0
 1674              	.LVL136:
 1675 0164 7047     		bx	lr
 1676              	.LVL137:
 1677              	.L141:
1036:../../core/ST/STM32L4xx_HAL_Driver/Src/stm32l4xx_hal_pwr_ex.c ****       __HAL_PWR_PVM3_EXTI_DISABLE_IT();
 1678              		.loc 1 1036 0
 1679 0166 204B     		ldr	r3, .L161
 1680 0168 5A6A     		ldr	r2, [r3, #36]
ARM GAS  /tmp/ccmTrwWQ.s 			page 50


 1681 016a 22F02002 		bic	r2, r2, #32
 1682 016e 5A62     		str	r2, [r3, #36]
1037:../../core/ST/STM32L4xx_HAL_Driver/Src/stm32l4xx_hal_pwr_ex.c ****       __HAL_PWR_PVM3_EXTI_DISABLE_FALLING_EDGE();
 1683              		.loc 1 1037 0
 1684 0170 1A6A     		ldr	r2, [r3, #32]
 1685 0172 22F02002 		bic	r2, r2, #32
 1686 0176 1A62     		str	r2, [r3, #32]
1038:../../core/ST/STM32L4xx_HAL_Driver/Src/stm32l4xx_hal_pwr_ex.c ****       __HAL_PWR_PVM3_EXTI_DISABLE_RISING_EDGE();
 1687              		.loc 1 1038 0
 1688 0178 DA6A     		ldr	r2, [r3, #44]
 1689 017a 22F02002 		bic	r2, r2, #32
 1690 017e DA62     		str	r2, [r3, #44]
1039:../../core/ST/STM32L4xx_HAL_Driver/Src/stm32l4xx_hal_pwr_ex.c **** 
 1691              		.loc 1 1039 0
 1692 0180 9A6A     		ldr	r2, [r3, #40]
 1693 0182 22F02002 		bic	r2, r2, #32
 1694 0186 9A62     		str	r2, [r3, #40]
1042:../../core/ST/STM32L4xx_HAL_Driver/Src/stm32l4xx_hal_pwr_ex.c ****       {
 1695              		.loc 1 1042 0
 1696 0188 4368     		ldr	r3, [r0, #4]
 1697 018a 13F4803F 		tst	r3, #65536
 1698 018e 04D0     		beq	.L149
1044:../../core/ST/STM32L4xx_HAL_Driver/Src/stm32l4xx_hal_pwr_ex.c ****       }
 1699              		.loc 1 1044 0
 1700 0190 154A     		ldr	r2, .L161
 1701 0192 136A     		ldr	r3, [r2, #32]
 1702 0194 43F02003 		orr	r3, r3, #32
 1703 0198 1362     		str	r3, [r2, #32]
 1704              	.L149:
1048:../../core/ST/STM32L4xx_HAL_Driver/Src/stm32l4xx_hal_pwr_ex.c ****       {
 1705              		.loc 1 1048 0
 1706 019a 4368     		ldr	r3, [r0, #4]
 1707 019c 13F4003F 		tst	r3, #131072
 1708 01a0 04D0     		beq	.L150
1050:../../core/ST/STM32L4xx_HAL_Driver/Src/stm32l4xx_hal_pwr_ex.c ****       }
 1709              		.loc 1 1050 0
 1710 01a2 114A     		ldr	r2, .L161
 1711 01a4 536A     		ldr	r3, [r2, #36]
 1712 01a6 43F02003 		orr	r3, r3, #32
 1713 01aa 5362     		str	r3, [r2, #36]
 1714              	.L150:
1054:../../core/ST/STM32L4xx_HAL_Driver/Src/stm32l4xx_hal_pwr_ex.c ****       {
 1715              		.loc 1 1054 0
 1716 01ac 4368     		ldr	r3, [r0, #4]
 1717 01ae 13F0010F 		tst	r3, #1
 1718 01b2 04D0     		beq	.L151
1056:../../core/ST/STM32L4xx_HAL_Driver/Src/stm32l4xx_hal_pwr_ex.c ****       }
 1719              		.loc 1 1056 0
 1720 01b4 0C4A     		ldr	r2, .L161
 1721 01b6 936A     		ldr	r3, [r2, #40]
 1722 01b8 43F02003 		orr	r3, r3, #32
 1723 01bc 9362     		str	r3, [r2, #40]
 1724              	.L151:
1059:../../core/ST/STM32L4xx_HAL_Driver/Src/stm32l4xx_hal_pwr_ex.c ****       {
 1725              		.loc 1 1059 0
 1726 01be 4368     		ldr	r3, [r0, #4]
 1727 01c0 13F0020F 		tst	r3, #2
ARM GAS  /tmp/ccmTrwWQ.s 			page 51


 1728 01c4 0CD0     		beq	.L158
1061:../../core/ST/STM32L4xx_HAL_Driver/Src/stm32l4xx_hal_pwr_ex.c ****       }
 1729              		.loc 1 1061 0
 1730 01c6 084A     		ldr	r2, .L161
 1731 01c8 D36A     		ldr	r3, [r2, #44]
 1732 01ca 43F02003 		orr	r3, r3, #32
 1733 01ce D362     		str	r3, [r2, #44]
 956:../../core/ST/STM32L4xx_HAL_Driver/Src/stm32l4xx_hal_pwr_ex.c **** 
 1734              		.loc 1 956 0
 1735 01d0 0020     		movs	r0, #0
 1736              	.LVL138:
 1737 01d2 7047     		bx	lr
 1738              	.LVL139:
 1739              	.L155:
1093:../../core/ST/STM32L4xx_HAL_Driver/Src/stm32l4xx_hal_pwr_ex.c ****       }
1094:../../core/ST/STM32L4xx_HAL_Driver/Src/stm32l4xx_hal_pwr_ex.c ****       break;
1095:../../core/ST/STM32L4xx_HAL_Driver/Src/stm32l4xx_hal_pwr_ex.c **** 
1096:../../core/ST/STM32L4xx_HAL_Driver/Src/stm32l4xx_hal_pwr_ex.c ****     default:
1097:../../core/ST/STM32L4xx_HAL_Driver/Src/stm32l4xx_hal_pwr_ex.c ****       status = HAL_ERROR;
 1740              		.loc 1 1097 0
 1741 01d4 0120     		movs	r0, #1
 1742              	.LVL140:
 1743 01d6 7047     		bx	lr
 1744              	.LVL141:
 1745              	.L156:
 956:../../core/ST/STM32L4xx_HAL_Driver/Src/stm32l4xx_hal_pwr_ex.c **** 
 1746              		.loc 1 956 0
 1747 01d8 0020     		movs	r0, #0
 1748              	.LVL142:
 1749 01da 7047     		bx	lr
 1750              	.LVL143:
 1751              	.L157:
 1752 01dc 0020     		movs	r0, #0
 1753              	.LVL144:
 1754 01de 7047     		bx	lr
 1755              	.LVL145:
 1756              	.L158:
 1757 01e0 0020     		movs	r0, #0
 1758              	.LVL146:
 1759 01e2 7047     		bx	lr
 1760              	.LVL147:
 1761              	.L159:
 1762 01e4 0020     		movs	r0, #0
 1763              	.LVL148:
1098:../../core/ST/STM32L4xx_HAL_Driver/Src/stm32l4xx_hal_pwr_ex.c ****       break;
1099:../../core/ST/STM32L4xx_HAL_Driver/Src/stm32l4xx_hal_pwr_ex.c ****   }
1100:../../core/ST/STM32L4xx_HAL_Driver/Src/stm32l4xx_hal_pwr_ex.c **** 
1101:../../core/ST/STM32L4xx_HAL_Driver/Src/stm32l4xx_hal_pwr_ex.c ****   return status;
1102:../../core/ST/STM32L4xx_HAL_Driver/Src/stm32l4xx_hal_pwr_ex.c **** }
 1764              		.loc 1 1102 0
 1765 01e6 7047     		bx	lr
 1766              	.L162:
 1767              		.align	2
 1768              	.L161:
 1769 01e8 00040140 		.word	1073808384
 1770              		.cfi_endproc
 1771              	.LFE149:
ARM GAS  /tmp/ccmTrwWQ.s 			page 52


 1773              		.section	.text.HAL_PWREx_EnableLowPowerRunMode,"ax",%progbits
 1774              		.align	1
 1775              		.global	HAL_PWREx_EnableLowPowerRunMode
 1776              		.syntax unified
 1777              		.thumb
 1778              		.thumb_func
 1779              		.fpu fpv4-sp-d16
 1781              	HAL_PWREx_EnableLowPowerRunMode:
 1782              	.LFB150:
1103:../../core/ST/STM32L4xx_HAL_Driver/Src/stm32l4xx_hal_pwr_ex.c **** 
1104:../../core/ST/STM32L4xx_HAL_Driver/Src/stm32l4xx_hal_pwr_ex.c **** 
1105:../../core/ST/STM32L4xx_HAL_Driver/Src/stm32l4xx_hal_pwr_ex.c **** 
1106:../../core/ST/STM32L4xx_HAL_Driver/Src/stm32l4xx_hal_pwr_ex.c **** /**
1107:../../core/ST/STM32L4xx_HAL_Driver/Src/stm32l4xx_hal_pwr_ex.c ****   * @brief Enter Low-power Run mode
1108:../../core/ST/STM32L4xx_HAL_Driver/Src/stm32l4xx_hal_pwr_ex.c ****   * @note  In Low-power Run mode, all I/O pins keep the same state as in Run mode.
1109:../../core/ST/STM32L4xx_HAL_Driver/Src/stm32l4xx_hal_pwr_ex.c ****   * @note  When Regulator is set to PWR_LOWPOWERREGULATOR_ON, the user can optionally configure the
1110:../../core/ST/STM32L4xx_HAL_Driver/Src/stm32l4xx_hal_pwr_ex.c ****   *        Flash in power-down monde in setting the RUN_PD bit in FLASH_ACR register.
1111:../../core/ST/STM32L4xx_HAL_Driver/Src/stm32l4xx_hal_pwr_ex.c ****   *        Additionally, the clock frequency must be reduced below 2 MHz.
1112:../../core/ST/STM32L4xx_HAL_Driver/Src/stm32l4xx_hal_pwr_ex.c ****   *        Setting RUN_PD in FLASH_ACR then appropriately reducing the clock frequency must
1113:../../core/ST/STM32L4xx_HAL_Driver/Src/stm32l4xx_hal_pwr_ex.c ****   *        be done before calling HAL_PWREx_EnableLowPowerRunMode() API.
1114:../../core/ST/STM32L4xx_HAL_Driver/Src/stm32l4xx_hal_pwr_ex.c ****   * @retval None
1115:../../core/ST/STM32L4xx_HAL_Driver/Src/stm32l4xx_hal_pwr_ex.c ****   */
1116:../../core/ST/STM32L4xx_HAL_Driver/Src/stm32l4xx_hal_pwr_ex.c **** void HAL_PWREx_EnableLowPowerRunMode(void)
1117:../../core/ST/STM32L4xx_HAL_Driver/Src/stm32l4xx_hal_pwr_ex.c **** {
 1783              		.loc 1 1117 0
 1784              		.cfi_startproc
 1785              		@ args = 0, pretend = 0, frame = 0
 1786              		@ frame_needed = 0, uses_anonymous_args = 0
 1787              		@ link register save eliminated.
1118:../../core/ST/STM32L4xx_HAL_Driver/Src/stm32l4xx_hal_pwr_ex.c ****   /* Set Regulator parameter */
1119:../../core/ST/STM32L4xx_HAL_Driver/Src/stm32l4xx_hal_pwr_ex.c ****   SET_BIT(PWR->CR1, PWR_CR1_LPR);
 1788              		.loc 1 1119 0
 1789 0000 024A     		ldr	r2, .L164
 1790 0002 1368     		ldr	r3, [r2]
 1791 0004 43F48043 		orr	r3, r3, #16384
 1792 0008 1360     		str	r3, [r2]
 1793 000a 7047     		bx	lr
 1794              	.L165:
 1795              		.align	2
 1796              	.L164:
 1797 000c 00700040 		.word	1073770496
 1798              		.cfi_endproc
 1799              	.LFE150:
 1801              		.section	.text.HAL_PWREx_DisableLowPowerRunMode,"ax",%progbits
 1802              		.align	1
 1803              		.global	HAL_PWREx_DisableLowPowerRunMode
 1804              		.syntax unified
 1805              		.thumb
 1806              		.thumb_func
 1807              		.fpu fpv4-sp-d16
 1809              	HAL_PWREx_DisableLowPowerRunMode:
 1810              	.LFB151:
1120:../../core/ST/STM32L4xx_HAL_Driver/Src/stm32l4xx_hal_pwr_ex.c **** }
1121:../../core/ST/STM32L4xx_HAL_Driver/Src/stm32l4xx_hal_pwr_ex.c **** 
1122:../../core/ST/STM32L4xx_HAL_Driver/Src/stm32l4xx_hal_pwr_ex.c **** 
1123:../../core/ST/STM32L4xx_HAL_Driver/Src/stm32l4xx_hal_pwr_ex.c **** /**
1124:../../core/ST/STM32L4xx_HAL_Driver/Src/stm32l4xx_hal_pwr_ex.c ****   * @brief Exit Low-power Run mode.
ARM GAS  /tmp/ccmTrwWQ.s 			page 53


1125:../../core/ST/STM32L4xx_HAL_Driver/Src/stm32l4xx_hal_pwr_ex.c ****   * @note  Before HAL_PWREx_DisableLowPowerRunMode() completion, the function checks that
1126:../../core/ST/STM32L4xx_HAL_Driver/Src/stm32l4xx_hal_pwr_ex.c ****   *        REGLPF has been properly reset (otherwise, HAL_PWREx_DisableLowPowerRunMode
1127:../../core/ST/STM32L4xx_HAL_Driver/Src/stm32l4xx_hal_pwr_ex.c ****   *        returns HAL_TIMEOUT status). The system clock frequency can then be
1128:../../core/ST/STM32L4xx_HAL_Driver/Src/stm32l4xx_hal_pwr_ex.c ****   *        increased above 2 MHz.
1129:../../core/ST/STM32L4xx_HAL_Driver/Src/stm32l4xx_hal_pwr_ex.c ****   * @retval HAL Status
1130:../../core/ST/STM32L4xx_HAL_Driver/Src/stm32l4xx_hal_pwr_ex.c ****   */
1131:../../core/ST/STM32L4xx_HAL_Driver/Src/stm32l4xx_hal_pwr_ex.c **** HAL_StatusTypeDef HAL_PWREx_DisableLowPowerRunMode(void)
1132:../../core/ST/STM32L4xx_HAL_Driver/Src/stm32l4xx_hal_pwr_ex.c **** {
 1811              		.loc 1 1132 0
 1812              		.cfi_startproc
 1813              		@ args = 0, pretend = 0, frame = 0
 1814              		@ frame_needed = 0, uses_anonymous_args = 0
 1815              		@ link register save eliminated.
1133:../../core/ST/STM32L4xx_HAL_Driver/Src/stm32l4xx_hal_pwr_ex.c ****   uint32_t wait_loop_index;
1134:../../core/ST/STM32L4xx_HAL_Driver/Src/stm32l4xx_hal_pwr_ex.c **** 
1135:../../core/ST/STM32L4xx_HAL_Driver/Src/stm32l4xx_hal_pwr_ex.c ****   /* Clear LPR bit */
1136:../../core/ST/STM32L4xx_HAL_Driver/Src/stm32l4xx_hal_pwr_ex.c ****   CLEAR_BIT(PWR->CR1, PWR_CR1_LPR);
 1816              		.loc 1 1136 0
 1817 0000 104A     		ldr	r2, .L172
 1818 0002 1368     		ldr	r3, [r2]
 1819 0004 23F48043 		bic	r3, r3, #16384
 1820 0008 1360     		str	r3, [r2]
1137:../../core/ST/STM32L4xx_HAL_Driver/Src/stm32l4xx_hal_pwr_ex.c **** 
1138:../../core/ST/STM32L4xx_HAL_Driver/Src/stm32l4xx_hal_pwr_ex.c ****   /* Wait until REGLPF is reset */
1139:../../core/ST/STM32L4xx_HAL_Driver/Src/stm32l4xx_hal_pwr_ex.c ****   wait_loop_index = ((PWR_FLAG_SETTING_DELAY_US * SystemCoreClock) / 1000000U) + 1U;
 1821              		.loc 1 1139 0
 1822 000a 0F4B     		ldr	r3, .L172+4
 1823 000c 1A68     		ldr	r2, [r3]
 1824 000e 3223     		movs	r3, #50
 1825 0010 03FB02F3 		mul	r3, r3, r2
 1826 0014 0D4A     		ldr	r2, .L172+8
 1827 0016 A2FB0323 		umull	r2, r3, r2, r3
 1828 001a 9B0C     		lsrs	r3, r3, #18
 1829 001c 0133     		adds	r3, r3, #1
 1830              	.LVL149:
1140:../../core/ST/STM32L4xx_HAL_Driver/Src/stm32l4xx_hal_pwr_ex.c ****   while ((HAL_IS_BIT_SET(PWR->SR2, PWR_SR2_REGLPF)) && (wait_loop_index != 0U))
 1831              		.loc 1 1140 0
 1832 001e 00E0     		b	.L167
 1833              	.L169:
1141:../../core/ST/STM32L4xx_HAL_Driver/Src/stm32l4xx_hal_pwr_ex.c ****   {
1142:../../core/ST/STM32L4xx_HAL_Driver/Src/stm32l4xx_hal_pwr_ex.c ****     wait_loop_index--;
 1834              		.loc 1 1142 0
 1835 0020 013B     		subs	r3, r3, #1
 1836              	.LVL150:
 1837              	.L167:
1140:../../core/ST/STM32L4xx_HAL_Driver/Src/stm32l4xx_hal_pwr_ex.c ****   while ((HAL_IS_BIT_SET(PWR->SR2, PWR_SR2_REGLPF)) && (wait_loop_index != 0U))
 1838              		.loc 1 1140 0
 1839 0022 084A     		ldr	r2, .L172
 1840 0024 5269     		ldr	r2, [r2, #20]
 1841 0026 12F4007F 		tst	r2, #512
 1842 002a 01D0     		beq	.L168
1140:../../core/ST/STM32L4xx_HAL_Driver/Src/stm32l4xx_hal_pwr_ex.c ****   while ((HAL_IS_BIT_SET(PWR->SR2, PWR_SR2_REGLPF)) && (wait_loop_index != 0U))
 1843              		.loc 1 1140 0 is_stmt 0 discriminator 1
 1844 002c 002B     		cmp	r3, #0
 1845 002e F7D1     		bne	.L169
 1846              	.L168:
1143:../../core/ST/STM32L4xx_HAL_Driver/Src/stm32l4xx_hal_pwr_ex.c ****   }
ARM GAS  /tmp/ccmTrwWQ.s 			page 54


1144:../../core/ST/STM32L4xx_HAL_Driver/Src/stm32l4xx_hal_pwr_ex.c ****   if (HAL_IS_BIT_SET(PWR->SR2, PWR_SR2_REGLPF))
 1847              		.loc 1 1144 0 is_stmt 1
 1848 0030 044B     		ldr	r3, .L172
 1849              	.LVL151:
 1850 0032 5B69     		ldr	r3, [r3, #20]
 1851 0034 13F4007F 		tst	r3, #512
 1852 0038 01D0     		beq	.L171
1145:../../core/ST/STM32L4xx_HAL_Driver/Src/stm32l4xx_hal_pwr_ex.c ****   {
1146:../../core/ST/STM32L4xx_HAL_Driver/Src/stm32l4xx_hal_pwr_ex.c ****     return HAL_TIMEOUT;
 1853              		.loc 1 1146 0
 1854 003a 0320     		movs	r0, #3
 1855 003c 7047     		bx	lr
 1856              	.L171:
1147:../../core/ST/STM32L4xx_HAL_Driver/Src/stm32l4xx_hal_pwr_ex.c ****   }
1148:../../core/ST/STM32L4xx_HAL_Driver/Src/stm32l4xx_hal_pwr_ex.c **** 
1149:../../core/ST/STM32L4xx_HAL_Driver/Src/stm32l4xx_hal_pwr_ex.c ****   return HAL_OK;
 1857              		.loc 1 1149 0
 1858 003e 0020     		movs	r0, #0
1150:../../core/ST/STM32L4xx_HAL_Driver/Src/stm32l4xx_hal_pwr_ex.c **** }
 1859              		.loc 1 1150 0
 1860 0040 7047     		bx	lr
 1861              	.L173:
 1862 0042 00BF     		.align	2
 1863              	.L172:
 1864 0044 00700040 		.word	1073770496
 1865 0048 00000000 		.word	SystemCoreClock
 1866 004c 83DE1B43 		.word	1125899907
 1867              		.cfi_endproc
 1868              	.LFE151:
 1870              		.section	.text.HAL_PWREx_EnterSTOP0Mode,"ax",%progbits
 1871              		.align	1
 1872              		.global	HAL_PWREx_EnterSTOP0Mode
 1873              		.syntax unified
 1874              		.thumb
 1875              		.thumb_func
 1876              		.fpu fpv4-sp-d16
 1878              	HAL_PWREx_EnterSTOP0Mode:
 1879              	.LFB152:
1151:../../core/ST/STM32L4xx_HAL_Driver/Src/stm32l4xx_hal_pwr_ex.c **** 
1152:../../core/ST/STM32L4xx_HAL_Driver/Src/stm32l4xx_hal_pwr_ex.c **** 
1153:../../core/ST/STM32L4xx_HAL_Driver/Src/stm32l4xx_hal_pwr_ex.c **** /**
1154:../../core/ST/STM32L4xx_HAL_Driver/Src/stm32l4xx_hal_pwr_ex.c ****   * @brief Enter Stop 0 mode.
1155:../../core/ST/STM32L4xx_HAL_Driver/Src/stm32l4xx_hal_pwr_ex.c ****   * @note  In Stop 0 mode, main and low voltage regulators are ON.
1156:../../core/ST/STM32L4xx_HAL_Driver/Src/stm32l4xx_hal_pwr_ex.c ****   * @note  In Stop 0 mode, all I/O pins keep the same state as in Run mode.
1157:../../core/ST/STM32L4xx_HAL_Driver/Src/stm32l4xx_hal_pwr_ex.c ****   * @note  All clocks in the VCORE domain are stopped; the PLL, the MSI,
1158:../../core/ST/STM32L4xx_HAL_Driver/Src/stm32l4xx_hal_pwr_ex.c ****   *        the HSI and the HSE oscillators are disabled. Some peripherals with the wakeup capabilit
1159:../../core/ST/STM32L4xx_HAL_Driver/Src/stm32l4xx_hal_pwr_ex.c ****   *        (I2Cx, USARTx and LPUART) can switch on the HSI to receive a frame, and switch off the H
1160:../../core/ST/STM32L4xx_HAL_Driver/Src/stm32l4xx_hal_pwr_ex.c ****   *        after receiving the frame if it is not a wakeup frame. In this case, the HSI clock is pr
1161:../../core/ST/STM32L4xx_HAL_Driver/Src/stm32l4xx_hal_pwr_ex.c ****   *        only to the peripheral requesting it.
1162:../../core/ST/STM32L4xx_HAL_Driver/Src/stm32l4xx_hal_pwr_ex.c ****   *        SRAM1, SRAM2 and register contents are preserved.
1163:../../core/ST/STM32L4xx_HAL_Driver/Src/stm32l4xx_hal_pwr_ex.c ****   *        The BOR is available.
1164:../../core/ST/STM32L4xx_HAL_Driver/Src/stm32l4xx_hal_pwr_ex.c ****   * @note  When exiting Stop 0 mode by issuing an interrupt or a wakeup event,
1165:../../core/ST/STM32L4xx_HAL_Driver/Src/stm32l4xx_hal_pwr_ex.c ****   *         the HSI RC oscillator is selected as system clock if STOPWUCK bit in RCC_CFGR register
1166:../../core/ST/STM32L4xx_HAL_Driver/Src/stm32l4xx_hal_pwr_ex.c ****   *         is set; the MSI oscillator is selected if STOPWUCK is cleared.
1167:../../core/ST/STM32L4xx_HAL_Driver/Src/stm32l4xx_hal_pwr_ex.c ****   * @note  By keeping the internal regulator ON during Stop 0 mode, the consumption
1168:../../core/ST/STM32L4xx_HAL_Driver/Src/stm32l4xx_hal_pwr_ex.c ****   *         is higher although the startup time is reduced.
1169:../../core/ST/STM32L4xx_HAL_Driver/Src/stm32l4xx_hal_pwr_ex.c ****   * @param STOPEntry  specifies if Stop mode in entered with WFI or WFE instruction.
ARM GAS  /tmp/ccmTrwWQ.s 			page 55


1170:../../core/ST/STM32L4xx_HAL_Driver/Src/stm32l4xx_hal_pwr_ex.c ****   *          This parameter can be one of the following values:
1171:../../core/ST/STM32L4xx_HAL_Driver/Src/stm32l4xx_hal_pwr_ex.c ****   *            @arg @ref PWR_STOPENTRY_WFI  Enter Stop mode with WFI instruction
1172:../../core/ST/STM32L4xx_HAL_Driver/Src/stm32l4xx_hal_pwr_ex.c ****   *            @arg @ref PWR_STOPENTRY_WFE  Enter Stop mode with WFE instruction
1173:../../core/ST/STM32L4xx_HAL_Driver/Src/stm32l4xx_hal_pwr_ex.c ****   * @retval None
1174:../../core/ST/STM32L4xx_HAL_Driver/Src/stm32l4xx_hal_pwr_ex.c ****   */
1175:../../core/ST/STM32L4xx_HAL_Driver/Src/stm32l4xx_hal_pwr_ex.c **** void HAL_PWREx_EnterSTOP0Mode(uint8_t STOPEntry)
1176:../../core/ST/STM32L4xx_HAL_Driver/Src/stm32l4xx_hal_pwr_ex.c **** {
 1880              		.loc 1 1176 0
 1881              		.cfi_startproc
 1882              		@ args = 0, pretend = 0, frame = 0
 1883              		@ frame_needed = 0, uses_anonymous_args = 0
 1884              		@ link register save eliminated.
 1885              	.LVL152:
1177:../../core/ST/STM32L4xx_HAL_Driver/Src/stm32l4xx_hal_pwr_ex.c ****   /* Check the parameters */
1178:../../core/ST/STM32L4xx_HAL_Driver/Src/stm32l4xx_hal_pwr_ex.c ****   assert_param(IS_PWR_STOP_ENTRY(STOPEntry));
1179:../../core/ST/STM32L4xx_HAL_Driver/Src/stm32l4xx_hal_pwr_ex.c **** 
1180:../../core/ST/STM32L4xx_HAL_Driver/Src/stm32l4xx_hal_pwr_ex.c ****   /* Stop 0 mode with Main Regulator */
1181:../../core/ST/STM32L4xx_HAL_Driver/Src/stm32l4xx_hal_pwr_ex.c ****   MODIFY_REG(PWR->CR1, PWR_CR1_LPMS, PWR_CR1_LPMS_STOP0);
 1886              		.loc 1 1181 0
 1887 0000 0B4A     		ldr	r2, .L178
 1888 0002 1368     		ldr	r3, [r2]
 1889 0004 23F00703 		bic	r3, r3, #7
 1890 0008 1360     		str	r3, [r2]
1182:../../core/ST/STM32L4xx_HAL_Driver/Src/stm32l4xx_hal_pwr_ex.c **** 
1183:../../core/ST/STM32L4xx_HAL_Driver/Src/stm32l4xx_hal_pwr_ex.c ****   /* Set SLEEPDEEP bit of Cortex System Control Register */
1184:../../core/ST/STM32L4xx_HAL_Driver/Src/stm32l4xx_hal_pwr_ex.c ****   SET_BIT(SCB->SCR, ((uint32_t)SCB_SCR_SLEEPDEEP_Msk));
 1891              		.loc 1 1184 0
 1892 000a 0A4A     		ldr	r2, .L178+4
 1893 000c 1369     		ldr	r3, [r2, #16]
 1894 000e 43F00403 		orr	r3, r3, #4
 1895 0012 1361     		str	r3, [r2, #16]
1185:../../core/ST/STM32L4xx_HAL_Driver/Src/stm32l4xx_hal_pwr_ex.c **** 
1186:../../core/ST/STM32L4xx_HAL_Driver/Src/stm32l4xx_hal_pwr_ex.c ****   /* Select Stop mode entry --------------------------------------------------*/
1187:../../core/ST/STM32L4xx_HAL_Driver/Src/stm32l4xx_hal_pwr_ex.c ****   if(STOPEntry == PWR_STOPENTRY_WFI)
 1896              		.loc 1 1187 0
 1897 0014 0128     		cmp	r0, #1
 1898 0016 08D0     		beq	.L177
 1899              	.LBB28:
 1900              	.LBB29:
 1901              		.file 2 "../../core/ST/CMSIS/Include/cmsis_gcc.h"
   1:../../core/ST/CMSIS/Include/cmsis_gcc.h **** /**************************************************************************//**
   2:../../core/ST/CMSIS/Include/cmsis_gcc.h ****  * @file     cmsis_gcc.h
   3:../../core/ST/CMSIS/Include/cmsis_gcc.h ****  * @brief    CMSIS Cortex-M Core Function/Instruction Header File
   4:../../core/ST/CMSIS/Include/cmsis_gcc.h ****  * @version  V4.30
   5:../../core/ST/CMSIS/Include/cmsis_gcc.h ****  * @date     20. October 2015
   6:../../core/ST/CMSIS/Include/cmsis_gcc.h ****  ******************************************************************************/
   7:../../core/ST/CMSIS/Include/cmsis_gcc.h **** /* Copyright (c) 2009 - 2015 ARM LIMITED
   8:../../core/ST/CMSIS/Include/cmsis_gcc.h **** 
   9:../../core/ST/CMSIS/Include/cmsis_gcc.h ****    All rights reserved.
  10:../../core/ST/CMSIS/Include/cmsis_gcc.h ****    Redistribution and use in source and binary forms, with or without
  11:../../core/ST/CMSIS/Include/cmsis_gcc.h ****    modification, are permitted provided that the following conditions are met:
  12:../../core/ST/CMSIS/Include/cmsis_gcc.h ****    - Redistributions of source code must retain the above copyright
  13:../../core/ST/CMSIS/Include/cmsis_gcc.h ****      notice, this list of conditions and the following disclaimer.
  14:../../core/ST/CMSIS/Include/cmsis_gcc.h ****    - Redistributions in binary form must reproduce the above copyright
  15:../../core/ST/CMSIS/Include/cmsis_gcc.h ****      notice, this list of conditions and the following disclaimer in the
  16:../../core/ST/CMSIS/Include/cmsis_gcc.h ****      documentation and/or other materials provided with the distribution.
  17:../../core/ST/CMSIS/Include/cmsis_gcc.h ****    - Neither the name of ARM nor the names of its contributors may be used
ARM GAS  /tmp/ccmTrwWQ.s 			page 56


  18:../../core/ST/CMSIS/Include/cmsis_gcc.h ****      to endorse or promote products derived from this software without
  19:../../core/ST/CMSIS/Include/cmsis_gcc.h ****      specific prior written permission.
  20:../../core/ST/CMSIS/Include/cmsis_gcc.h ****    *
  21:../../core/ST/CMSIS/Include/cmsis_gcc.h ****    THIS SOFTWARE IS PROVIDED BY THE COPYRIGHT HOLDERS AND CONTRIBUTORS "AS IS"
  22:../../core/ST/CMSIS/Include/cmsis_gcc.h ****    AND ANY EXPRESS OR IMPLIED WARRANTIES, INCLUDING, BUT NOT LIMITED TO, THE
  23:../../core/ST/CMSIS/Include/cmsis_gcc.h ****    IMPLIED WARRANTIES OF MERCHANTABILITY AND FITNESS FOR A PARTICULAR PURPOSE
  24:../../core/ST/CMSIS/Include/cmsis_gcc.h ****    ARE DISCLAIMED. IN NO EVENT SHALL COPYRIGHT HOLDERS AND CONTRIBUTORS BE
  25:../../core/ST/CMSIS/Include/cmsis_gcc.h ****    LIABLE FOR ANY DIRECT, INDIRECT, INCIDENTAL, SPECIAL, EXEMPLARY, OR
  26:../../core/ST/CMSIS/Include/cmsis_gcc.h ****    CONSEQUENTIAL DAMAGES (INCLUDING, BUT NOT LIMITED TO, PROCUREMENT OF
  27:../../core/ST/CMSIS/Include/cmsis_gcc.h ****    SUBSTITUTE GOODS OR SERVICES; LOSS OF USE, DATA, OR PROFITS; OR BUSINESS
  28:../../core/ST/CMSIS/Include/cmsis_gcc.h ****    INTERRUPTION) HOWEVER CAUSED AND ON ANY THEORY OF LIABILITY, WHETHER IN
  29:../../core/ST/CMSIS/Include/cmsis_gcc.h ****    CONTRACT, STRICT LIABILITY, OR TORT (INCLUDING NEGLIGENCE OR OTHERWISE)
  30:../../core/ST/CMSIS/Include/cmsis_gcc.h ****    ARISING IN ANY WAY OUT OF THE USE OF THIS SOFTWARE, EVEN IF ADVISED OF THE
  31:../../core/ST/CMSIS/Include/cmsis_gcc.h ****    POSSIBILITY OF SUCH DAMAGE.
  32:../../core/ST/CMSIS/Include/cmsis_gcc.h ****    ---------------------------------------------------------------------------*/
  33:../../core/ST/CMSIS/Include/cmsis_gcc.h **** 
  34:../../core/ST/CMSIS/Include/cmsis_gcc.h **** 
  35:../../core/ST/CMSIS/Include/cmsis_gcc.h **** #ifndef __CMSIS_GCC_H
  36:../../core/ST/CMSIS/Include/cmsis_gcc.h **** #define __CMSIS_GCC_H
  37:../../core/ST/CMSIS/Include/cmsis_gcc.h **** 
  38:../../core/ST/CMSIS/Include/cmsis_gcc.h **** /* ignore some GCC warnings */
  39:../../core/ST/CMSIS/Include/cmsis_gcc.h **** #if defined ( __GNUC__ )
  40:../../core/ST/CMSIS/Include/cmsis_gcc.h **** #pragma GCC diagnostic push
  41:../../core/ST/CMSIS/Include/cmsis_gcc.h **** #pragma GCC diagnostic ignored "-Wsign-conversion"
  42:../../core/ST/CMSIS/Include/cmsis_gcc.h **** #pragma GCC diagnostic ignored "-Wconversion"
  43:../../core/ST/CMSIS/Include/cmsis_gcc.h **** #pragma GCC diagnostic ignored "-Wunused-parameter"
  44:../../core/ST/CMSIS/Include/cmsis_gcc.h **** #endif
  45:../../core/ST/CMSIS/Include/cmsis_gcc.h **** 
  46:../../core/ST/CMSIS/Include/cmsis_gcc.h **** 
  47:../../core/ST/CMSIS/Include/cmsis_gcc.h **** /* ###########################  Core Function Access  ########################### */
  48:../../core/ST/CMSIS/Include/cmsis_gcc.h **** /** \ingroup  CMSIS_Core_FunctionInterface
  49:../../core/ST/CMSIS/Include/cmsis_gcc.h ****     \defgroup CMSIS_Core_RegAccFunctions CMSIS Core Register Access Functions
  50:../../core/ST/CMSIS/Include/cmsis_gcc.h ****   @{
  51:../../core/ST/CMSIS/Include/cmsis_gcc.h ****  */
  52:../../core/ST/CMSIS/Include/cmsis_gcc.h **** 
  53:../../core/ST/CMSIS/Include/cmsis_gcc.h **** /**
  54:../../core/ST/CMSIS/Include/cmsis_gcc.h ****   \brief   Enable IRQ Interrupts
  55:../../core/ST/CMSIS/Include/cmsis_gcc.h ****   \details Enables IRQ interrupts by clearing the I-bit in the CPSR.
  56:../../core/ST/CMSIS/Include/cmsis_gcc.h ****            Can only be executed in Privileged modes.
  57:../../core/ST/CMSIS/Include/cmsis_gcc.h ****  */
  58:../../core/ST/CMSIS/Include/cmsis_gcc.h **** __attribute__( ( always_inline ) ) __STATIC_INLINE void __enable_irq(void)
  59:../../core/ST/CMSIS/Include/cmsis_gcc.h **** {
  60:../../core/ST/CMSIS/Include/cmsis_gcc.h ****   __ASM volatile ("cpsie i" : : : "memory");
  61:../../core/ST/CMSIS/Include/cmsis_gcc.h **** }
  62:../../core/ST/CMSIS/Include/cmsis_gcc.h **** 
  63:../../core/ST/CMSIS/Include/cmsis_gcc.h **** 
  64:../../core/ST/CMSIS/Include/cmsis_gcc.h **** /**
  65:../../core/ST/CMSIS/Include/cmsis_gcc.h ****   \brief   Disable IRQ Interrupts
  66:../../core/ST/CMSIS/Include/cmsis_gcc.h ****   \details Disables IRQ interrupts by setting the I-bit in the CPSR.
  67:../../core/ST/CMSIS/Include/cmsis_gcc.h ****   Can only be executed in Privileged modes.
  68:../../core/ST/CMSIS/Include/cmsis_gcc.h ****  */
  69:../../core/ST/CMSIS/Include/cmsis_gcc.h **** __attribute__( ( always_inline ) ) __STATIC_INLINE void __disable_irq(void)
  70:../../core/ST/CMSIS/Include/cmsis_gcc.h **** {
  71:../../core/ST/CMSIS/Include/cmsis_gcc.h ****   __ASM volatile ("cpsid i" : : : "memory");
  72:../../core/ST/CMSIS/Include/cmsis_gcc.h **** }
  73:../../core/ST/CMSIS/Include/cmsis_gcc.h **** 
  74:../../core/ST/CMSIS/Include/cmsis_gcc.h **** 
ARM GAS  /tmp/ccmTrwWQ.s 			page 57


  75:../../core/ST/CMSIS/Include/cmsis_gcc.h **** /**
  76:../../core/ST/CMSIS/Include/cmsis_gcc.h ****   \brief   Get Control Register
  77:../../core/ST/CMSIS/Include/cmsis_gcc.h ****   \details Returns the content of the Control Register.
  78:../../core/ST/CMSIS/Include/cmsis_gcc.h ****   \return               Control Register value
  79:../../core/ST/CMSIS/Include/cmsis_gcc.h ****  */
  80:../../core/ST/CMSIS/Include/cmsis_gcc.h **** __attribute__( ( always_inline ) ) __STATIC_INLINE uint32_t __get_CONTROL(void)
  81:../../core/ST/CMSIS/Include/cmsis_gcc.h **** {
  82:../../core/ST/CMSIS/Include/cmsis_gcc.h ****   uint32_t result;
  83:../../core/ST/CMSIS/Include/cmsis_gcc.h **** 
  84:../../core/ST/CMSIS/Include/cmsis_gcc.h ****   __ASM volatile ("MRS %0, control" : "=r" (result) );
  85:../../core/ST/CMSIS/Include/cmsis_gcc.h ****   return(result);
  86:../../core/ST/CMSIS/Include/cmsis_gcc.h **** }
  87:../../core/ST/CMSIS/Include/cmsis_gcc.h **** 
  88:../../core/ST/CMSIS/Include/cmsis_gcc.h **** 
  89:../../core/ST/CMSIS/Include/cmsis_gcc.h **** /**
  90:../../core/ST/CMSIS/Include/cmsis_gcc.h ****   \brief   Set Control Register
  91:../../core/ST/CMSIS/Include/cmsis_gcc.h ****   \details Writes the given value to the Control Register.
  92:../../core/ST/CMSIS/Include/cmsis_gcc.h ****   \param [in]    control  Control Register value to set
  93:../../core/ST/CMSIS/Include/cmsis_gcc.h ****  */
  94:../../core/ST/CMSIS/Include/cmsis_gcc.h **** __attribute__( ( always_inline ) ) __STATIC_INLINE void __set_CONTROL(uint32_t control)
  95:../../core/ST/CMSIS/Include/cmsis_gcc.h **** {
  96:../../core/ST/CMSIS/Include/cmsis_gcc.h ****   __ASM volatile ("MSR control, %0" : : "r" (control) : "memory");
  97:../../core/ST/CMSIS/Include/cmsis_gcc.h **** }
  98:../../core/ST/CMSIS/Include/cmsis_gcc.h **** 
  99:../../core/ST/CMSIS/Include/cmsis_gcc.h **** 
 100:../../core/ST/CMSIS/Include/cmsis_gcc.h **** /**
 101:../../core/ST/CMSIS/Include/cmsis_gcc.h ****   \brief   Get IPSR Register
 102:../../core/ST/CMSIS/Include/cmsis_gcc.h ****   \details Returns the content of the IPSR Register.
 103:../../core/ST/CMSIS/Include/cmsis_gcc.h ****   \return               IPSR Register value
 104:../../core/ST/CMSIS/Include/cmsis_gcc.h ****  */
 105:../../core/ST/CMSIS/Include/cmsis_gcc.h **** __attribute__( ( always_inline ) ) __STATIC_INLINE uint32_t __get_IPSR(void)
 106:../../core/ST/CMSIS/Include/cmsis_gcc.h **** {
 107:../../core/ST/CMSIS/Include/cmsis_gcc.h ****   uint32_t result;
 108:../../core/ST/CMSIS/Include/cmsis_gcc.h **** 
 109:../../core/ST/CMSIS/Include/cmsis_gcc.h ****   __ASM volatile ("MRS %0, ipsr" : "=r" (result) );
 110:../../core/ST/CMSIS/Include/cmsis_gcc.h ****   return(result);
 111:../../core/ST/CMSIS/Include/cmsis_gcc.h **** }
 112:../../core/ST/CMSIS/Include/cmsis_gcc.h **** 
 113:../../core/ST/CMSIS/Include/cmsis_gcc.h **** 
 114:../../core/ST/CMSIS/Include/cmsis_gcc.h **** /**
 115:../../core/ST/CMSIS/Include/cmsis_gcc.h ****   \brief   Get APSR Register
 116:../../core/ST/CMSIS/Include/cmsis_gcc.h ****   \details Returns the content of the APSR Register.
 117:../../core/ST/CMSIS/Include/cmsis_gcc.h ****   \return               APSR Register value
 118:../../core/ST/CMSIS/Include/cmsis_gcc.h ****  */
 119:../../core/ST/CMSIS/Include/cmsis_gcc.h **** __attribute__( ( always_inline ) ) __STATIC_INLINE uint32_t __get_APSR(void)
 120:../../core/ST/CMSIS/Include/cmsis_gcc.h **** {
 121:../../core/ST/CMSIS/Include/cmsis_gcc.h ****   uint32_t result;
 122:../../core/ST/CMSIS/Include/cmsis_gcc.h **** 
 123:../../core/ST/CMSIS/Include/cmsis_gcc.h ****   __ASM volatile ("MRS %0, apsr" : "=r" (result) );
 124:../../core/ST/CMSIS/Include/cmsis_gcc.h ****   return(result);
 125:../../core/ST/CMSIS/Include/cmsis_gcc.h **** }
 126:../../core/ST/CMSIS/Include/cmsis_gcc.h **** 
 127:../../core/ST/CMSIS/Include/cmsis_gcc.h **** 
 128:../../core/ST/CMSIS/Include/cmsis_gcc.h **** /**
 129:../../core/ST/CMSIS/Include/cmsis_gcc.h ****   \brief   Get xPSR Register
 130:../../core/ST/CMSIS/Include/cmsis_gcc.h ****   \details Returns the content of the xPSR Register.
 131:../../core/ST/CMSIS/Include/cmsis_gcc.h **** 
ARM GAS  /tmp/ccmTrwWQ.s 			page 58


 132:../../core/ST/CMSIS/Include/cmsis_gcc.h ****     \return               xPSR Register value
 133:../../core/ST/CMSIS/Include/cmsis_gcc.h ****  */
 134:../../core/ST/CMSIS/Include/cmsis_gcc.h **** __attribute__( ( always_inline ) ) __STATIC_INLINE uint32_t __get_xPSR(void)
 135:../../core/ST/CMSIS/Include/cmsis_gcc.h **** {
 136:../../core/ST/CMSIS/Include/cmsis_gcc.h ****   uint32_t result;
 137:../../core/ST/CMSIS/Include/cmsis_gcc.h **** 
 138:../../core/ST/CMSIS/Include/cmsis_gcc.h ****   __ASM volatile ("MRS %0, xpsr" : "=r" (result) );
 139:../../core/ST/CMSIS/Include/cmsis_gcc.h ****   return(result);
 140:../../core/ST/CMSIS/Include/cmsis_gcc.h **** }
 141:../../core/ST/CMSIS/Include/cmsis_gcc.h **** 
 142:../../core/ST/CMSIS/Include/cmsis_gcc.h **** 
 143:../../core/ST/CMSIS/Include/cmsis_gcc.h **** /**
 144:../../core/ST/CMSIS/Include/cmsis_gcc.h ****   \brief   Get Process Stack Pointer
 145:../../core/ST/CMSIS/Include/cmsis_gcc.h ****   \details Returns the current value of the Process Stack Pointer (PSP).
 146:../../core/ST/CMSIS/Include/cmsis_gcc.h ****   \return               PSP Register value
 147:../../core/ST/CMSIS/Include/cmsis_gcc.h ****  */
 148:../../core/ST/CMSIS/Include/cmsis_gcc.h **** __attribute__( ( always_inline ) ) __STATIC_INLINE uint32_t __get_PSP(void)
 149:../../core/ST/CMSIS/Include/cmsis_gcc.h **** {
 150:../../core/ST/CMSIS/Include/cmsis_gcc.h ****   register uint32_t result;
 151:../../core/ST/CMSIS/Include/cmsis_gcc.h **** 
 152:../../core/ST/CMSIS/Include/cmsis_gcc.h ****   __ASM volatile ("MRS %0, psp\n"  : "=r" (result) );
 153:../../core/ST/CMSIS/Include/cmsis_gcc.h ****   return(result);
 154:../../core/ST/CMSIS/Include/cmsis_gcc.h **** }
 155:../../core/ST/CMSIS/Include/cmsis_gcc.h **** 
 156:../../core/ST/CMSIS/Include/cmsis_gcc.h **** 
 157:../../core/ST/CMSIS/Include/cmsis_gcc.h **** /**
 158:../../core/ST/CMSIS/Include/cmsis_gcc.h ****   \brief   Set Process Stack Pointer
 159:../../core/ST/CMSIS/Include/cmsis_gcc.h ****   \details Assigns the given value to the Process Stack Pointer (PSP).
 160:../../core/ST/CMSIS/Include/cmsis_gcc.h ****   \param [in]    topOfProcStack  Process Stack Pointer value to set
 161:../../core/ST/CMSIS/Include/cmsis_gcc.h ****  */
 162:../../core/ST/CMSIS/Include/cmsis_gcc.h **** __attribute__( ( always_inline ) ) __STATIC_INLINE void __set_PSP(uint32_t topOfProcStack)
 163:../../core/ST/CMSIS/Include/cmsis_gcc.h **** {
 164:../../core/ST/CMSIS/Include/cmsis_gcc.h ****   __ASM volatile ("MSR psp, %0\n" : : "r" (topOfProcStack) : "sp");
 165:../../core/ST/CMSIS/Include/cmsis_gcc.h **** }
 166:../../core/ST/CMSIS/Include/cmsis_gcc.h **** 
 167:../../core/ST/CMSIS/Include/cmsis_gcc.h **** 
 168:../../core/ST/CMSIS/Include/cmsis_gcc.h **** /**
 169:../../core/ST/CMSIS/Include/cmsis_gcc.h ****   \brief   Get Main Stack Pointer
 170:../../core/ST/CMSIS/Include/cmsis_gcc.h ****   \details Returns the current value of the Main Stack Pointer (MSP).
 171:../../core/ST/CMSIS/Include/cmsis_gcc.h ****   \return               MSP Register value
 172:../../core/ST/CMSIS/Include/cmsis_gcc.h ****  */
 173:../../core/ST/CMSIS/Include/cmsis_gcc.h **** __attribute__( ( always_inline ) ) __STATIC_INLINE uint32_t __get_MSP(void)
 174:../../core/ST/CMSIS/Include/cmsis_gcc.h **** {
 175:../../core/ST/CMSIS/Include/cmsis_gcc.h ****   register uint32_t result;
 176:../../core/ST/CMSIS/Include/cmsis_gcc.h **** 
 177:../../core/ST/CMSIS/Include/cmsis_gcc.h ****   __ASM volatile ("MRS %0, msp\n" : "=r" (result) );
 178:../../core/ST/CMSIS/Include/cmsis_gcc.h ****   return(result);
 179:../../core/ST/CMSIS/Include/cmsis_gcc.h **** }
 180:../../core/ST/CMSIS/Include/cmsis_gcc.h **** 
 181:../../core/ST/CMSIS/Include/cmsis_gcc.h **** 
 182:../../core/ST/CMSIS/Include/cmsis_gcc.h **** /**
 183:../../core/ST/CMSIS/Include/cmsis_gcc.h ****   \brief   Set Main Stack Pointer
 184:../../core/ST/CMSIS/Include/cmsis_gcc.h ****   \details Assigns the given value to the Main Stack Pointer (MSP).
 185:../../core/ST/CMSIS/Include/cmsis_gcc.h **** 
 186:../../core/ST/CMSIS/Include/cmsis_gcc.h ****     \param [in]    topOfMainStack  Main Stack Pointer value to set
 187:../../core/ST/CMSIS/Include/cmsis_gcc.h ****  */
 188:../../core/ST/CMSIS/Include/cmsis_gcc.h **** __attribute__( ( always_inline ) ) __STATIC_INLINE void __set_MSP(uint32_t topOfMainStack)
ARM GAS  /tmp/ccmTrwWQ.s 			page 59


 189:../../core/ST/CMSIS/Include/cmsis_gcc.h **** {
 190:../../core/ST/CMSIS/Include/cmsis_gcc.h ****   __ASM volatile ("MSR msp, %0\n" : : "r" (topOfMainStack) : "sp");
 191:../../core/ST/CMSIS/Include/cmsis_gcc.h **** }
 192:../../core/ST/CMSIS/Include/cmsis_gcc.h **** 
 193:../../core/ST/CMSIS/Include/cmsis_gcc.h **** 
 194:../../core/ST/CMSIS/Include/cmsis_gcc.h **** /**
 195:../../core/ST/CMSIS/Include/cmsis_gcc.h ****   \brief   Get Priority Mask
 196:../../core/ST/CMSIS/Include/cmsis_gcc.h ****   \details Returns the current state of the priority mask bit from the Priority Mask Register.
 197:../../core/ST/CMSIS/Include/cmsis_gcc.h ****   \return               Priority Mask value
 198:../../core/ST/CMSIS/Include/cmsis_gcc.h ****  */
 199:../../core/ST/CMSIS/Include/cmsis_gcc.h **** __attribute__( ( always_inline ) ) __STATIC_INLINE uint32_t __get_PRIMASK(void)
 200:../../core/ST/CMSIS/Include/cmsis_gcc.h **** {
 201:../../core/ST/CMSIS/Include/cmsis_gcc.h ****   uint32_t result;
 202:../../core/ST/CMSIS/Include/cmsis_gcc.h **** 
 203:../../core/ST/CMSIS/Include/cmsis_gcc.h ****   __ASM volatile ("MRS %0, primask" : "=r" (result) );
 204:../../core/ST/CMSIS/Include/cmsis_gcc.h ****   return(result);
 205:../../core/ST/CMSIS/Include/cmsis_gcc.h **** }
 206:../../core/ST/CMSIS/Include/cmsis_gcc.h **** 
 207:../../core/ST/CMSIS/Include/cmsis_gcc.h **** 
 208:../../core/ST/CMSIS/Include/cmsis_gcc.h **** /**
 209:../../core/ST/CMSIS/Include/cmsis_gcc.h ****   \brief   Set Priority Mask
 210:../../core/ST/CMSIS/Include/cmsis_gcc.h ****   \details Assigns the given value to the Priority Mask Register.
 211:../../core/ST/CMSIS/Include/cmsis_gcc.h ****   \param [in]    priMask  Priority Mask
 212:../../core/ST/CMSIS/Include/cmsis_gcc.h ****  */
 213:../../core/ST/CMSIS/Include/cmsis_gcc.h **** __attribute__( ( always_inline ) ) __STATIC_INLINE void __set_PRIMASK(uint32_t priMask)
 214:../../core/ST/CMSIS/Include/cmsis_gcc.h **** {
 215:../../core/ST/CMSIS/Include/cmsis_gcc.h ****   __ASM volatile ("MSR primask, %0" : : "r" (priMask) : "memory");
 216:../../core/ST/CMSIS/Include/cmsis_gcc.h **** }
 217:../../core/ST/CMSIS/Include/cmsis_gcc.h **** 
 218:../../core/ST/CMSIS/Include/cmsis_gcc.h **** 
 219:../../core/ST/CMSIS/Include/cmsis_gcc.h **** #if       (__CORTEX_M >= 0x03U)
 220:../../core/ST/CMSIS/Include/cmsis_gcc.h **** 
 221:../../core/ST/CMSIS/Include/cmsis_gcc.h **** /**
 222:../../core/ST/CMSIS/Include/cmsis_gcc.h ****   \brief   Enable FIQ
 223:../../core/ST/CMSIS/Include/cmsis_gcc.h ****   \details Enables FIQ interrupts by clearing the F-bit in the CPSR.
 224:../../core/ST/CMSIS/Include/cmsis_gcc.h ****            Can only be executed in Privileged modes.
 225:../../core/ST/CMSIS/Include/cmsis_gcc.h ****  */
 226:../../core/ST/CMSIS/Include/cmsis_gcc.h **** __attribute__( ( always_inline ) ) __STATIC_INLINE void __enable_fault_irq(void)
 227:../../core/ST/CMSIS/Include/cmsis_gcc.h **** {
 228:../../core/ST/CMSIS/Include/cmsis_gcc.h ****   __ASM volatile ("cpsie f" : : : "memory");
 229:../../core/ST/CMSIS/Include/cmsis_gcc.h **** }
 230:../../core/ST/CMSIS/Include/cmsis_gcc.h **** 
 231:../../core/ST/CMSIS/Include/cmsis_gcc.h **** 
 232:../../core/ST/CMSIS/Include/cmsis_gcc.h **** /**
 233:../../core/ST/CMSIS/Include/cmsis_gcc.h ****   \brief   Disable FIQ
 234:../../core/ST/CMSIS/Include/cmsis_gcc.h ****   \details Disables FIQ interrupts by setting the F-bit in the CPSR.
 235:../../core/ST/CMSIS/Include/cmsis_gcc.h ****            Can only be executed in Privileged modes.
 236:../../core/ST/CMSIS/Include/cmsis_gcc.h ****  */
 237:../../core/ST/CMSIS/Include/cmsis_gcc.h **** __attribute__( ( always_inline ) ) __STATIC_INLINE void __disable_fault_irq(void)
 238:../../core/ST/CMSIS/Include/cmsis_gcc.h **** {
 239:../../core/ST/CMSIS/Include/cmsis_gcc.h ****   __ASM volatile ("cpsid f" : : : "memory");
 240:../../core/ST/CMSIS/Include/cmsis_gcc.h **** }
 241:../../core/ST/CMSIS/Include/cmsis_gcc.h **** 
 242:../../core/ST/CMSIS/Include/cmsis_gcc.h **** 
 243:../../core/ST/CMSIS/Include/cmsis_gcc.h **** /**
 244:../../core/ST/CMSIS/Include/cmsis_gcc.h ****   \brief   Get Base Priority
 245:../../core/ST/CMSIS/Include/cmsis_gcc.h ****   \details Returns the current value of the Base Priority register.
ARM GAS  /tmp/ccmTrwWQ.s 			page 60


 246:../../core/ST/CMSIS/Include/cmsis_gcc.h ****   \return               Base Priority register value
 247:../../core/ST/CMSIS/Include/cmsis_gcc.h ****  */
 248:../../core/ST/CMSIS/Include/cmsis_gcc.h **** __attribute__( ( always_inline ) ) __STATIC_INLINE uint32_t __get_BASEPRI(void)
 249:../../core/ST/CMSIS/Include/cmsis_gcc.h **** {
 250:../../core/ST/CMSIS/Include/cmsis_gcc.h ****   uint32_t result;
 251:../../core/ST/CMSIS/Include/cmsis_gcc.h **** 
 252:../../core/ST/CMSIS/Include/cmsis_gcc.h ****   __ASM volatile ("MRS %0, basepri" : "=r" (result) );
 253:../../core/ST/CMSIS/Include/cmsis_gcc.h ****   return(result);
 254:../../core/ST/CMSIS/Include/cmsis_gcc.h **** }
 255:../../core/ST/CMSIS/Include/cmsis_gcc.h **** 
 256:../../core/ST/CMSIS/Include/cmsis_gcc.h **** 
 257:../../core/ST/CMSIS/Include/cmsis_gcc.h **** /**
 258:../../core/ST/CMSIS/Include/cmsis_gcc.h ****   \brief   Set Base Priority
 259:../../core/ST/CMSIS/Include/cmsis_gcc.h ****   \details Assigns the given value to the Base Priority register.
 260:../../core/ST/CMSIS/Include/cmsis_gcc.h ****   \param [in]    basePri  Base Priority value to set
 261:../../core/ST/CMSIS/Include/cmsis_gcc.h ****  */
 262:../../core/ST/CMSIS/Include/cmsis_gcc.h **** __attribute__( ( always_inline ) ) __STATIC_INLINE void __set_BASEPRI(uint32_t value)
 263:../../core/ST/CMSIS/Include/cmsis_gcc.h **** {
 264:../../core/ST/CMSIS/Include/cmsis_gcc.h ****   __ASM volatile ("MSR basepri, %0" : : "r" (value) : "memory");
 265:../../core/ST/CMSIS/Include/cmsis_gcc.h **** }
 266:../../core/ST/CMSIS/Include/cmsis_gcc.h **** 
 267:../../core/ST/CMSIS/Include/cmsis_gcc.h **** 
 268:../../core/ST/CMSIS/Include/cmsis_gcc.h **** /**
 269:../../core/ST/CMSIS/Include/cmsis_gcc.h ****   \brief   Set Base Priority with condition
 270:../../core/ST/CMSIS/Include/cmsis_gcc.h ****   \details Assigns the given value to the Base Priority register only if BASEPRI masking is disable
 271:../../core/ST/CMSIS/Include/cmsis_gcc.h ****            or the new value increases the BASEPRI priority level.
 272:../../core/ST/CMSIS/Include/cmsis_gcc.h ****   \param [in]    basePri  Base Priority value to set
 273:../../core/ST/CMSIS/Include/cmsis_gcc.h ****  */
 274:../../core/ST/CMSIS/Include/cmsis_gcc.h **** __attribute__( ( always_inline ) ) __STATIC_INLINE void __set_BASEPRI_MAX(uint32_t value)
 275:../../core/ST/CMSIS/Include/cmsis_gcc.h **** {
 276:../../core/ST/CMSIS/Include/cmsis_gcc.h ****   __ASM volatile ("MSR basepri_max, %0" : : "r" (value) : "memory");
 277:../../core/ST/CMSIS/Include/cmsis_gcc.h **** }
 278:../../core/ST/CMSIS/Include/cmsis_gcc.h **** 
 279:../../core/ST/CMSIS/Include/cmsis_gcc.h **** 
 280:../../core/ST/CMSIS/Include/cmsis_gcc.h **** /**
 281:../../core/ST/CMSIS/Include/cmsis_gcc.h ****   \brief   Get Fault Mask
 282:../../core/ST/CMSIS/Include/cmsis_gcc.h ****   \details Returns the current value of the Fault Mask register.
 283:../../core/ST/CMSIS/Include/cmsis_gcc.h ****   \return               Fault Mask register value
 284:../../core/ST/CMSIS/Include/cmsis_gcc.h ****  */
 285:../../core/ST/CMSIS/Include/cmsis_gcc.h **** __attribute__( ( always_inline ) ) __STATIC_INLINE uint32_t __get_FAULTMASK(void)
 286:../../core/ST/CMSIS/Include/cmsis_gcc.h **** {
 287:../../core/ST/CMSIS/Include/cmsis_gcc.h ****   uint32_t result;
 288:../../core/ST/CMSIS/Include/cmsis_gcc.h **** 
 289:../../core/ST/CMSIS/Include/cmsis_gcc.h ****   __ASM volatile ("MRS %0, faultmask" : "=r" (result) );
 290:../../core/ST/CMSIS/Include/cmsis_gcc.h ****   return(result);
 291:../../core/ST/CMSIS/Include/cmsis_gcc.h **** }
 292:../../core/ST/CMSIS/Include/cmsis_gcc.h **** 
 293:../../core/ST/CMSIS/Include/cmsis_gcc.h **** 
 294:../../core/ST/CMSIS/Include/cmsis_gcc.h **** /**
 295:../../core/ST/CMSIS/Include/cmsis_gcc.h ****   \brief   Set Fault Mask
 296:../../core/ST/CMSIS/Include/cmsis_gcc.h ****   \details Assigns the given value to the Fault Mask register.
 297:../../core/ST/CMSIS/Include/cmsis_gcc.h ****   \param [in]    faultMask  Fault Mask value to set
 298:../../core/ST/CMSIS/Include/cmsis_gcc.h ****  */
 299:../../core/ST/CMSIS/Include/cmsis_gcc.h **** __attribute__( ( always_inline ) ) __STATIC_INLINE void __set_FAULTMASK(uint32_t faultMask)
 300:../../core/ST/CMSIS/Include/cmsis_gcc.h **** {
 301:../../core/ST/CMSIS/Include/cmsis_gcc.h ****   __ASM volatile ("MSR faultmask, %0" : : "r" (faultMask) : "memory");
 302:../../core/ST/CMSIS/Include/cmsis_gcc.h **** }
ARM GAS  /tmp/ccmTrwWQ.s 			page 61


 303:../../core/ST/CMSIS/Include/cmsis_gcc.h **** 
 304:../../core/ST/CMSIS/Include/cmsis_gcc.h **** #endif /* (__CORTEX_M >= 0x03U) */
 305:../../core/ST/CMSIS/Include/cmsis_gcc.h **** 
 306:../../core/ST/CMSIS/Include/cmsis_gcc.h **** 
 307:../../core/ST/CMSIS/Include/cmsis_gcc.h **** #if       (__CORTEX_M == 0x04U) || (__CORTEX_M == 0x07U)
 308:../../core/ST/CMSIS/Include/cmsis_gcc.h **** 
 309:../../core/ST/CMSIS/Include/cmsis_gcc.h **** /**
 310:../../core/ST/CMSIS/Include/cmsis_gcc.h ****   \brief   Get FPSCR
 311:../../core/ST/CMSIS/Include/cmsis_gcc.h ****   \details Returns the current value of the Floating Point Status/Control register.
 312:../../core/ST/CMSIS/Include/cmsis_gcc.h ****   \return               Floating Point Status/Control register value
 313:../../core/ST/CMSIS/Include/cmsis_gcc.h ****  */
 314:../../core/ST/CMSIS/Include/cmsis_gcc.h **** __attribute__( ( always_inline ) ) __STATIC_INLINE uint32_t __get_FPSCR(void)
 315:../../core/ST/CMSIS/Include/cmsis_gcc.h **** {
 316:../../core/ST/CMSIS/Include/cmsis_gcc.h **** #if (__FPU_PRESENT == 1U) && (__FPU_USED == 1U)
 317:../../core/ST/CMSIS/Include/cmsis_gcc.h ****   uint32_t result;
 318:../../core/ST/CMSIS/Include/cmsis_gcc.h **** 
 319:../../core/ST/CMSIS/Include/cmsis_gcc.h ****   /* Empty asm statement works as a scheduling barrier */
 320:../../core/ST/CMSIS/Include/cmsis_gcc.h ****   __ASM volatile ("");
 321:../../core/ST/CMSIS/Include/cmsis_gcc.h ****   __ASM volatile ("VMRS %0, fpscr" : "=r" (result) );
 322:../../core/ST/CMSIS/Include/cmsis_gcc.h ****   __ASM volatile ("");
 323:../../core/ST/CMSIS/Include/cmsis_gcc.h ****   return(result);
 324:../../core/ST/CMSIS/Include/cmsis_gcc.h **** #else
 325:../../core/ST/CMSIS/Include/cmsis_gcc.h ****    return(0);
 326:../../core/ST/CMSIS/Include/cmsis_gcc.h **** #endif
 327:../../core/ST/CMSIS/Include/cmsis_gcc.h **** }
 328:../../core/ST/CMSIS/Include/cmsis_gcc.h **** 
 329:../../core/ST/CMSIS/Include/cmsis_gcc.h **** 
 330:../../core/ST/CMSIS/Include/cmsis_gcc.h **** /**
 331:../../core/ST/CMSIS/Include/cmsis_gcc.h ****   \brief   Set FPSCR
 332:../../core/ST/CMSIS/Include/cmsis_gcc.h ****   \details Assigns the given value to the Floating Point Status/Control register.
 333:../../core/ST/CMSIS/Include/cmsis_gcc.h ****   \param [in]    fpscr  Floating Point Status/Control value to set
 334:../../core/ST/CMSIS/Include/cmsis_gcc.h ****  */
 335:../../core/ST/CMSIS/Include/cmsis_gcc.h **** __attribute__( ( always_inline ) ) __STATIC_INLINE void __set_FPSCR(uint32_t fpscr)
 336:../../core/ST/CMSIS/Include/cmsis_gcc.h **** {
 337:../../core/ST/CMSIS/Include/cmsis_gcc.h **** #if (__FPU_PRESENT == 1U) && (__FPU_USED == 1U)
 338:../../core/ST/CMSIS/Include/cmsis_gcc.h ****   /* Empty asm statement works as a scheduling barrier */
 339:../../core/ST/CMSIS/Include/cmsis_gcc.h ****   __ASM volatile ("");
 340:../../core/ST/CMSIS/Include/cmsis_gcc.h ****   __ASM volatile ("VMSR fpscr, %0" : : "r" (fpscr) : "vfpcc");
 341:../../core/ST/CMSIS/Include/cmsis_gcc.h ****   __ASM volatile ("");
 342:../../core/ST/CMSIS/Include/cmsis_gcc.h **** #endif
 343:../../core/ST/CMSIS/Include/cmsis_gcc.h **** }
 344:../../core/ST/CMSIS/Include/cmsis_gcc.h **** 
 345:../../core/ST/CMSIS/Include/cmsis_gcc.h **** #endif /* (__CORTEX_M == 0x04U) || (__CORTEX_M == 0x07U) */
 346:../../core/ST/CMSIS/Include/cmsis_gcc.h **** 
 347:../../core/ST/CMSIS/Include/cmsis_gcc.h **** 
 348:../../core/ST/CMSIS/Include/cmsis_gcc.h **** 
 349:../../core/ST/CMSIS/Include/cmsis_gcc.h **** /*@} end of CMSIS_Core_RegAccFunctions */
 350:../../core/ST/CMSIS/Include/cmsis_gcc.h **** 
 351:../../core/ST/CMSIS/Include/cmsis_gcc.h **** 
 352:../../core/ST/CMSIS/Include/cmsis_gcc.h **** /* ##########################  Core Instruction Access  ######################### */
 353:../../core/ST/CMSIS/Include/cmsis_gcc.h **** /** \defgroup CMSIS_Core_InstructionInterface CMSIS Core Instruction Interface
 354:../../core/ST/CMSIS/Include/cmsis_gcc.h ****   Access to dedicated instructions
 355:../../core/ST/CMSIS/Include/cmsis_gcc.h ****   @{
 356:../../core/ST/CMSIS/Include/cmsis_gcc.h **** */
 357:../../core/ST/CMSIS/Include/cmsis_gcc.h **** 
 358:../../core/ST/CMSIS/Include/cmsis_gcc.h **** /* Define macros for porting to both thumb1 and thumb2.
 359:../../core/ST/CMSIS/Include/cmsis_gcc.h ****  * For thumb1, use low register (r0-r7), specified by constraint "l"
ARM GAS  /tmp/ccmTrwWQ.s 			page 62


 360:../../core/ST/CMSIS/Include/cmsis_gcc.h ****  * Otherwise, use general registers, specified by constraint "r" */
 361:../../core/ST/CMSIS/Include/cmsis_gcc.h **** #if defined (__thumb__) && !defined (__thumb2__)
 362:../../core/ST/CMSIS/Include/cmsis_gcc.h **** #define __CMSIS_GCC_OUT_REG(r) "=l" (r)
 363:../../core/ST/CMSIS/Include/cmsis_gcc.h **** #define __CMSIS_GCC_USE_REG(r) "l" (r)
 364:../../core/ST/CMSIS/Include/cmsis_gcc.h **** #else
 365:../../core/ST/CMSIS/Include/cmsis_gcc.h **** #define __CMSIS_GCC_OUT_REG(r) "=r" (r)
 366:../../core/ST/CMSIS/Include/cmsis_gcc.h **** #define __CMSIS_GCC_USE_REG(r) "r" (r)
 367:../../core/ST/CMSIS/Include/cmsis_gcc.h **** #endif
 368:../../core/ST/CMSIS/Include/cmsis_gcc.h **** 
 369:../../core/ST/CMSIS/Include/cmsis_gcc.h **** /**
 370:../../core/ST/CMSIS/Include/cmsis_gcc.h ****   \brief   No Operation
 371:../../core/ST/CMSIS/Include/cmsis_gcc.h ****   \details No Operation does nothing. This instruction can be used for code alignment purposes.
 372:../../core/ST/CMSIS/Include/cmsis_gcc.h ****  */
 373:../../core/ST/CMSIS/Include/cmsis_gcc.h **** __attribute__((always_inline)) __STATIC_INLINE void __NOP(void)
 374:../../core/ST/CMSIS/Include/cmsis_gcc.h **** {
 375:../../core/ST/CMSIS/Include/cmsis_gcc.h ****   __ASM volatile ("nop");
 376:../../core/ST/CMSIS/Include/cmsis_gcc.h **** }
 377:../../core/ST/CMSIS/Include/cmsis_gcc.h **** 
 378:../../core/ST/CMSIS/Include/cmsis_gcc.h **** 
 379:../../core/ST/CMSIS/Include/cmsis_gcc.h **** /**
 380:../../core/ST/CMSIS/Include/cmsis_gcc.h ****   \brief   Wait For Interrupt
 381:../../core/ST/CMSIS/Include/cmsis_gcc.h ****   \details Wait For Interrupt is a hint instruction that suspends execution until one of a number o
 382:../../core/ST/CMSIS/Include/cmsis_gcc.h ****  */
 383:../../core/ST/CMSIS/Include/cmsis_gcc.h **** __attribute__((always_inline)) __STATIC_INLINE void __WFI(void)
 384:../../core/ST/CMSIS/Include/cmsis_gcc.h **** {
 385:../../core/ST/CMSIS/Include/cmsis_gcc.h ****   __ASM volatile ("wfi");
 386:../../core/ST/CMSIS/Include/cmsis_gcc.h **** }
 387:../../core/ST/CMSIS/Include/cmsis_gcc.h **** 
 388:../../core/ST/CMSIS/Include/cmsis_gcc.h **** 
 389:../../core/ST/CMSIS/Include/cmsis_gcc.h **** /**
 390:../../core/ST/CMSIS/Include/cmsis_gcc.h ****   \brief   Wait For Event
 391:../../core/ST/CMSIS/Include/cmsis_gcc.h ****   \details Wait For Event is a hint instruction that permits the processor to enter
 392:../../core/ST/CMSIS/Include/cmsis_gcc.h ****     a low-power state until one of a number of events occurs.
 393:../../core/ST/CMSIS/Include/cmsis_gcc.h ****  */
 394:../../core/ST/CMSIS/Include/cmsis_gcc.h **** __attribute__((always_inline)) __STATIC_INLINE void __WFE(void)
 395:../../core/ST/CMSIS/Include/cmsis_gcc.h **** {
 396:../../core/ST/CMSIS/Include/cmsis_gcc.h ****   __ASM volatile ("wfe");
 397:../../core/ST/CMSIS/Include/cmsis_gcc.h **** }
 398:../../core/ST/CMSIS/Include/cmsis_gcc.h **** 
 399:../../core/ST/CMSIS/Include/cmsis_gcc.h **** 
 400:../../core/ST/CMSIS/Include/cmsis_gcc.h **** /**
 401:../../core/ST/CMSIS/Include/cmsis_gcc.h ****   \brief   Send Event
 402:../../core/ST/CMSIS/Include/cmsis_gcc.h ****   \details Send Event is a hint instruction. It causes an event to be signaled to the CPU.
 403:../../core/ST/CMSIS/Include/cmsis_gcc.h ****  */
 404:../../core/ST/CMSIS/Include/cmsis_gcc.h **** __attribute__((always_inline)) __STATIC_INLINE void __SEV(void)
 405:../../core/ST/CMSIS/Include/cmsis_gcc.h **** {
 406:../../core/ST/CMSIS/Include/cmsis_gcc.h ****   __ASM volatile ("sev");
 1902              		.loc 2 406 0
 1903              		.syntax unified
 1904              	@ 406 "../../core/ST/CMSIS/Include/cmsis_gcc.h" 1
 1905 0018 40BF     		sev
 1906              	@ 0 "" 2
 1907              		.thumb
 1908              		.syntax unified
 1909              	.LBE29:
 1910              	.LBE28:
 1911              	.LBB30:
ARM GAS  /tmp/ccmTrwWQ.s 			page 63


 1912              	.LBB31:
 396:../../core/ST/CMSIS/Include/cmsis_gcc.h **** }
 1913              		.loc 2 396 0
 1914              		.syntax unified
 1915              	@ 396 "../../core/ST/CMSIS/Include/cmsis_gcc.h" 1
 1916 001a 20BF     		wfe
 1917              	@ 0 "" 2
 1918              		.thumb
 1919              		.syntax unified
 1920              	.LBE31:
 1921              	.LBE30:
 1922              	.LBB32:
 1923              	.LBB33:
 1924              		.syntax unified
 1925              	@ 396 "../../core/ST/CMSIS/Include/cmsis_gcc.h" 1
 1926 001c 20BF     		wfe
 1927              	@ 0 "" 2
 1928              		.thumb
 1929              		.syntax unified
 1930              	.L176:
 1931              	.LBE33:
 1932              	.LBE32:
1188:../../core/ST/STM32L4xx_HAL_Driver/Src/stm32l4xx_hal_pwr_ex.c ****   {
1189:../../core/ST/STM32L4xx_HAL_Driver/Src/stm32l4xx_hal_pwr_ex.c ****     /* Request Wait For Interrupt */
1190:../../core/ST/STM32L4xx_HAL_Driver/Src/stm32l4xx_hal_pwr_ex.c ****     __WFI();
1191:../../core/ST/STM32L4xx_HAL_Driver/Src/stm32l4xx_hal_pwr_ex.c ****   }
1192:../../core/ST/STM32L4xx_HAL_Driver/Src/stm32l4xx_hal_pwr_ex.c ****   else
1193:../../core/ST/STM32L4xx_HAL_Driver/Src/stm32l4xx_hal_pwr_ex.c ****   {
1194:../../core/ST/STM32L4xx_HAL_Driver/Src/stm32l4xx_hal_pwr_ex.c ****     /* Request Wait For Event */
1195:../../core/ST/STM32L4xx_HAL_Driver/Src/stm32l4xx_hal_pwr_ex.c ****     __SEV();
1196:../../core/ST/STM32L4xx_HAL_Driver/Src/stm32l4xx_hal_pwr_ex.c ****     __WFE();
1197:../../core/ST/STM32L4xx_HAL_Driver/Src/stm32l4xx_hal_pwr_ex.c ****     __WFE();
1198:../../core/ST/STM32L4xx_HAL_Driver/Src/stm32l4xx_hal_pwr_ex.c ****   }
1199:../../core/ST/STM32L4xx_HAL_Driver/Src/stm32l4xx_hal_pwr_ex.c **** 
1200:../../core/ST/STM32L4xx_HAL_Driver/Src/stm32l4xx_hal_pwr_ex.c ****   /* Reset SLEEPDEEP bit of Cortex System Control Register */
1201:../../core/ST/STM32L4xx_HAL_Driver/Src/stm32l4xx_hal_pwr_ex.c ****   CLEAR_BIT(SCB->SCR, ((uint32_t)SCB_SCR_SLEEPDEEP_Msk));
 1933              		.loc 1 1201 0
 1934 001e 054A     		ldr	r2, .L178+4
 1935 0020 1369     		ldr	r3, [r2, #16]
 1936 0022 23F00403 		bic	r3, r3, #4
 1937 0026 1361     		str	r3, [r2, #16]
 1938 0028 7047     		bx	lr
 1939              	.L177:
 1940              	.LBB34:
 1941              	.LBB35:
 385:../../core/ST/CMSIS/Include/cmsis_gcc.h **** }
 1942              		.loc 2 385 0
 1943              		.syntax unified
 1944              	@ 385 "../../core/ST/CMSIS/Include/cmsis_gcc.h" 1
 1945 002a 30BF     		wfi
 1946              	@ 0 "" 2
 1947              		.thumb
 1948              		.syntax unified
 1949 002c F7E7     		b	.L176
 1950              	.L179:
 1951 002e 00BF     		.align	2
 1952              	.L178:
ARM GAS  /tmp/ccmTrwWQ.s 			page 64


 1953 0030 00700040 		.word	1073770496
 1954 0034 00ED00E0 		.word	-536810240
 1955              	.LBE35:
 1956              	.LBE34:
 1957              		.cfi_endproc
 1958              	.LFE152:
 1960              		.section	.text.HAL_PWREx_EnterSTOP1Mode,"ax",%progbits
 1961              		.align	1
 1962              		.global	HAL_PWREx_EnterSTOP1Mode
 1963              		.syntax unified
 1964              		.thumb
 1965              		.thumb_func
 1966              		.fpu fpv4-sp-d16
 1968              	HAL_PWREx_EnterSTOP1Mode:
 1969              	.LFB153:
1202:../../core/ST/STM32L4xx_HAL_Driver/Src/stm32l4xx_hal_pwr_ex.c **** }
1203:../../core/ST/STM32L4xx_HAL_Driver/Src/stm32l4xx_hal_pwr_ex.c **** 
1204:../../core/ST/STM32L4xx_HAL_Driver/Src/stm32l4xx_hal_pwr_ex.c **** 
1205:../../core/ST/STM32L4xx_HAL_Driver/Src/stm32l4xx_hal_pwr_ex.c **** /**
1206:../../core/ST/STM32L4xx_HAL_Driver/Src/stm32l4xx_hal_pwr_ex.c ****   * @brief Enter Stop 1 mode.
1207:../../core/ST/STM32L4xx_HAL_Driver/Src/stm32l4xx_hal_pwr_ex.c ****   * @note  In Stop 1 mode, only low power voltage regulator is ON.
1208:../../core/ST/STM32L4xx_HAL_Driver/Src/stm32l4xx_hal_pwr_ex.c ****   * @note  In Stop 1 mode, all I/O pins keep the same state as in Run mode.
1209:../../core/ST/STM32L4xx_HAL_Driver/Src/stm32l4xx_hal_pwr_ex.c ****   * @note  All clocks in the VCORE domain are stopped; the PLL, the MSI,
1210:../../core/ST/STM32L4xx_HAL_Driver/Src/stm32l4xx_hal_pwr_ex.c ****   *        the HSI and the HSE oscillators are disabled. Some peripherals with the wakeup capabilit
1211:../../core/ST/STM32L4xx_HAL_Driver/Src/stm32l4xx_hal_pwr_ex.c ****   *        (I2Cx, USARTx and LPUART) can switch on the HSI to receive a frame, and switch off the H
1212:../../core/ST/STM32L4xx_HAL_Driver/Src/stm32l4xx_hal_pwr_ex.c ****   *        after receiving the frame if it is not a wakeup frame. In this case, the HSI clock is pr
1213:../../core/ST/STM32L4xx_HAL_Driver/Src/stm32l4xx_hal_pwr_ex.c ****   *        only to the peripheral requesting it.
1214:../../core/ST/STM32L4xx_HAL_Driver/Src/stm32l4xx_hal_pwr_ex.c ****   *        SRAM1, SRAM2 and register contents are preserved.
1215:../../core/ST/STM32L4xx_HAL_Driver/Src/stm32l4xx_hal_pwr_ex.c ****   *        The BOR is available.
1216:../../core/ST/STM32L4xx_HAL_Driver/Src/stm32l4xx_hal_pwr_ex.c ****   * @note  When exiting Stop 1 mode by issuing an interrupt or a wakeup event,
1217:../../core/ST/STM32L4xx_HAL_Driver/Src/stm32l4xx_hal_pwr_ex.c ****   *         the HSI RC oscillator is selected as system clock if STOPWUCK bit in RCC_CFGR register
1218:../../core/ST/STM32L4xx_HAL_Driver/Src/stm32l4xx_hal_pwr_ex.c ****   *         is set; the MSI oscillator is selected if STOPWUCK is cleared.
1219:../../core/ST/STM32L4xx_HAL_Driver/Src/stm32l4xx_hal_pwr_ex.c ****   * @note  Due to low power mode, an additional startup delay is incurred when waking up from Stop 
1220:../../core/ST/STM32L4xx_HAL_Driver/Src/stm32l4xx_hal_pwr_ex.c ****   * @param STOPEntry  specifies if Stop mode in entered with WFI or WFE instruction.
1221:../../core/ST/STM32L4xx_HAL_Driver/Src/stm32l4xx_hal_pwr_ex.c ****   *          This parameter can be one of the following values:
1222:../../core/ST/STM32L4xx_HAL_Driver/Src/stm32l4xx_hal_pwr_ex.c ****   *            @arg @ref PWR_STOPENTRY_WFI  Enter Stop mode with WFI instruction
1223:../../core/ST/STM32L4xx_HAL_Driver/Src/stm32l4xx_hal_pwr_ex.c ****   *            @arg @ref PWR_STOPENTRY_WFE  Enter Stop mode with WFE instruction
1224:../../core/ST/STM32L4xx_HAL_Driver/Src/stm32l4xx_hal_pwr_ex.c ****   * @retval None
1225:../../core/ST/STM32L4xx_HAL_Driver/Src/stm32l4xx_hal_pwr_ex.c ****   */
1226:../../core/ST/STM32L4xx_HAL_Driver/Src/stm32l4xx_hal_pwr_ex.c **** void HAL_PWREx_EnterSTOP1Mode(uint8_t STOPEntry)
1227:../../core/ST/STM32L4xx_HAL_Driver/Src/stm32l4xx_hal_pwr_ex.c **** {
 1970              		.loc 1 1227 0
 1971              		.cfi_startproc
 1972              		@ args = 0, pretend = 0, frame = 0
 1973              		@ frame_needed = 0, uses_anonymous_args = 0
 1974              		@ link register save eliminated.
 1975              	.LVL153:
1228:../../core/ST/STM32L4xx_HAL_Driver/Src/stm32l4xx_hal_pwr_ex.c ****   /* Check the parameters */
1229:../../core/ST/STM32L4xx_HAL_Driver/Src/stm32l4xx_hal_pwr_ex.c ****   assert_param(IS_PWR_STOP_ENTRY(STOPEntry));
1230:../../core/ST/STM32L4xx_HAL_Driver/Src/stm32l4xx_hal_pwr_ex.c **** 
1231:../../core/ST/STM32L4xx_HAL_Driver/Src/stm32l4xx_hal_pwr_ex.c ****   /* Stop 1 mode with Low-Power Regulator */
1232:../../core/ST/STM32L4xx_HAL_Driver/Src/stm32l4xx_hal_pwr_ex.c ****   MODIFY_REG(PWR->CR1, PWR_CR1_LPMS, PWR_CR1_LPMS_STOP1);
 1976              		.loc 1 1232 0
 1977 0000 0C4A     		ldr	r2, .L184
 1978 0002 1368     		ldr	r3, [r2]
 1979 0004 23F00703 		bic	r3, r3, #7
 1980 0008 43F00103 		orr	r3, r3, #1
ARM GAS  /tmp/ccmTrwWQ.s 			page 65


 1981 000c 1360     		str	r3, [r2]
1233:../../core/ST/STM32L4xx_HAL_Driver/Src/stm32l4xx_hal_pwr_ex.c **** 
1234:../../core/ST/STM32L4xx_HAL_Driver/Src/stm32l4xx_hal_pwr_ex.c ****   /* Set SLEEPDEEP bit of Cortex System Control Register */
1235:../../core/ST/STM32L4xx_HAL_Driver/Src/stm32l4xx_hal_pwr_ex.c ****   SET_BIT(SCB->SCR, ((uint32_t)SCB_SCR_SLEEPDEEP_Msk));
 1982              		.loc 1 1235 0
 1983 000e 0A4A     		ldr	r2, .L184+4
 1984 0010 1369     		ldr	r3, [r2, #16]
 1985 0012 43F00403 		orr	r3, r3, #4
 1986 0016 1361     		str	r3, [r2, #16]
1236:../../core/ST/STM32L4xx_HAL_Driver/Src/stm32l4xx_hal_pwr_ex.c **** 
1237:../../core/ST/STM32L4xx_HAL_Driver/Src/stm32l4xx_hal_pwr_ex.c ****   /* Select Stop mode entry --------------------------------------------------*/
1238:../../core/ST/STM32L4xx_HAL_Driver/Src/stm32l4xx_hal_pwr_ex.c ****   if(STOPEntry == PWR_STOPENTRY_WFI)
 1987              		.loc 1 1238 0
 1988 0018 0128     		cmp	r0, #1
 1989 001a 08D0     		beq	.L183
 1990              	.LBB36:
 1991              	.LBB37:
 1992              		.loc 2 406 0
 1993              		.syntax unified
 1994              	@ 406 "../../core/ST/CMSIS/Include/cmsis_gcc.h" 1
 1995 001c 40BF     		sev
 1996              	@ 0 "" 2
 1997              		.thumb
 1998              		.syntax unified
 1999              	.LBE37:
 2000              	.LBE36:
 2001              	.LBB38:
 2002              	.LBB39:
 396:../../core/ST/CMSIS/Include/cmsis_gcc.h **** }
 2003              		.loc 2 396 0
 2004              		.syntax unified
 2005              	@ 396 "../../core/ST/CMSIS/Include/cmsis_gcc.h" 1
 2006 001e 20BF     		wfe
 2007              	@ 0 "" 2
 2008              		.thumb
 2009              		.syntax unified
 2010              	.LBE39:
 2011              	.LBE38:
 2012              	.LBB40:
 2013              	.LBB41:
 2014              		.syntax unified
 2015              	@ 396 "../../core/ST/CMSIS/Include/cmsis_gcc.h" 1
 2016 0020 20BF     		wfe
 2017              	@ 0 "" 2
 2018              		.thumb
 2019              		.syntax unified
 2020              	.L182:
 2021              	.LBE41:
 2022              	.LBE40:
1239:../../core/ST/STM32L4xx_HAL_Driver/Src/stm32l4xx_hal_pwr_ex.c ****   {
1240:../../core/ST/STM32L4xx_HAL_Driver/Src/stm32l4xx_hal_pwr_ex.c ****     /* Request Wait For Interrupt */
1241:../../core/ST/STM32L4xx_HAL_Driver/Src/stm32l4xx_hal_pwr_ex.c ****     __WFI();
1242:../../core/ST/STM32L4xx_HAL_Driver/Src/stm32l4xx_hal_pwr_ex.c ****   }
1243:../../core/ST/STM32L4xx_HAL_Driver/Src/stm32l4xx_hal_pwr_ex.c ****   else
1244:../../core/ST/STM32L4xx_HAL_Driver/Src/stm32l4xx_hal_pwr_ex.c ****   {
1245:../../core/ST/STM32L4xx_HAL_Driver/Src/stm32l4xx_hal_pwr_ex.c ****     /* Request Wait For Event */
1246:../../core/ST/STM32L4xx_HAL_Driver/Src/stm32l4xx_hal_pwr_ex.c ****     __SEV();
ARM GAS  /tmp/ccmTrwWQ.s 			page 66


1247:../../core/ST/STM32L4xx_HAL_Driver/Src/stm32l4xx_hal_pwr_ex.c ****     __WFE();
1248:../../core/ST/STM32L4xx_HAL_Driver/Src/stm32l4xx_hal_pwr_ex.c ****     __WFE();
1249:../../core/ST/STM32L4xx_HAL_Driver/Src/stm32l4xx_hal_pwr_ex.c ****   }
1250:../../core/ST/STM32L4xx_HAL_Driver/Src/stm32l4xx_hal_pwr_ex.c **** 
1251:../../core/ST/STM32L4xx_HAL_Driver/Src/stm32l4xx_hal_pwr_ex.c ****   /* Reset SLEEPDEEP bit of Cortex System Control Register */
1252:../../core/ST/STM32L4xx_HAL_Driver/Src/stm32l4xx_hal_pwr_ex.c ****   CLEAR_BIT(SCB->SCR, ((uint32_t)SCB_SCR_SLEEPDEEP_Msk));
 2023              		.loc 1 1252 0
 2024 0022 054A     		ldr	r2, .L184+4
 2025 0024 1369     		ldr	r3, [r2, #16]
 2026 0026 23F00403 		bic	r3, r3, #4
 2027 002a 1361     		str	r3, [r2, #16]
 2028 002c 7047     		bx	lr
 2029              	.L183:
 2030              	.LBB42:
 2031              	.LBB43:
 385:../../core/ST/CMSIS/Include/cmsis_gcc.h **** }
 2032              		.loc 2 385 0
 2033              		.syntax unified
 2034              	@ 385 "../../core/ST/CMSIS/Include/cmsis_gcc.h" 1
 2035 002e 30BF     		wfi
 2036              	@ 0 "" 2
 2037              		.thumb
 2038              		.syntax unified
 2039 0030 F7E7     		b	.L182
 2040              	.L185:
 2041 0032 00BF     		.align	2
 2042              	.L184:
 2043 0034 00700040 		.word	1073770496
 2044 0038 00ED00E0 		.word	-536810240
 2045              	.LBE43:
 2046              	.LBE42:
 2047              		.cfi_endproc
 2048              	.LFE153:
 2050              		.section	.text.HAL_PWREx_EnterSTOP2Mode,"ax",%progbits
 2051              		.align	1
 2052              		.global	HAL_PWREx_EnterSTOP2Mode
 2053              		.syntax unified
 2054              		.thumb
 2055              		.thumb_func
 2056              		.fpu fpv4-sp-d16
 2058              	HAL_PWREx_EnterSTOP2Mode:
 2059              	.LFB154:
1253:../../core/ST/STM32L4xx_HAL_Driver/Src/stm32l4xx_hal_pwr_ex.c **** }
1254:../../core/ST/STM32L4xx_HAL_Driver/Src/stm32l4xx_hal_pwr_ex.c **** 
1255:../../core/ST/STM32L4xx_HAL_Driver/Src/stm32l4xx_hal_pwr_ex.c **** 
1256:../../core/ST/STM32L4xx_HAL_Driver/Src/stm32l4xx_hal_pwr_ex.c **** /**
1257:../../core/ST/STM32L4xx_HAL_Driver/Src/stm32l4xx_hal_pwr_ex.c ****   * @brief Enter Stop 2 mode.
1258:../../core/ST/STM32L4xx_HAL_Driver/Src/stm32l4xx_hal_pwr_ex.c ****   * @note  In Stop 2 mode, only low power voltage regulator is ON.
1259:../../core/ST/STM32L4xx_HAL_Driver/Src/stm32l4xx_hal_pwr_ex.c ****   * @note  In Stop 2 mode, all I/O pins keep the same state as in Run mode.
1260:../../core/ST/STM32L4xx_HAL_Driver/Src/stm32l4xx_hal_pwr_ex.c ****   * @note  All clocks in the VCORE domain are stopped, the PLL, the MSI,
1261:../../core/ST/STM32L4xx_HAL_Driver/Src/stm32l4xx_hal_pwr_ex.c ****   *        the HSI and the HSE oscillators are disabled. Some peripherals with wakeup capability
1262:../../core/ST/STM32L4xx_HAL_Driver/Src/stm32l4xx_hal_pwr_ex.c ****   *        (LCD, LPTIM1, I2C3 and LPUART) can switch on the HSI to receive a frame, and switch off 
1263:../../core/ST/STM32L4xx_HAL_Driver/Src/stm32l4xx_hal_pwr_ex.c ****   *        receiving the frame if it is not a wakeup frame. In this case the HSI clock is propagate
1264:../../core/ST/STM32L4xx_HAL_Driver/Src/stm32l4xx_hal_pwr_ex.c ****   *        to the peripheral requesting it.
1265:../../core/ST/STM32L4xx_HAL_Driver/Src/stm32l4xx_hal_pwr_ex.c ****   *        SRAM1, SRAM2 and register contents are preserved.
1266:../../core/ST/STM32L4xx_HAL_Driver/Src/stm32l4xx_hal_pwr_ex.c ****   *        The BOR is available.
1267:../../core/ST/STM32L4xx_HAL_Driver/Src/stm32l4xx_hal_pwr_ex.c ****   *        The voltage regulator is set in low-power mode but LPR bit must be cleared to enter stop
ARM GAS  /tmp/ccmTrwWQ.s 			page 67


1268:../../core/ST/STM32L4xx_HAL_Driver/Src/stm32l4xx_hal_pwr_ex.c ****   *        Otherwise, Stop 1 mode is entered.
1269:../../core/ST/STM32L4xx_HAL_Driver/Src/stm32l4xx_hal_pwr_ex.c ****   * @note  When exiting Stop 2 mode by issuing an interrupt or a wakeup event,
1270:../../core/ST/STM32L4xx_HAL_Driver/Src/stm32l4xx_hal_pwr_ex.c ****   *         the HSI RC oscillator is selected as system clock if STOPWUCK bit in RCC_CFGR register
1271:../../core/ST/STM32L4xx_HAL_Driver/Src/stm32l4xx_hal_pwr_ex.c ****   *         is set; the MSI oscillator is selected if STOPWUCK is cleared.
1272:../../core/ST/STM32L4xx_HAL_Driver/Src/stm32l4xx_hal_pwr_ex.c ****   * @param STOPEntry  specifies if Stop mode in entered with WFI or WFE instruction.
1273:../../core/ST/STM32L4xx_HAL_Driver/Src/stm32l4xx_hal_pwr_ex.c ****   *          This parameter can be one of the following values:
1274:../../core/ST/STM32L4xx_HAL_Driver/Src/stm32l4xx_hal_pwr_ex.c ****   *            @arg @ref PWR_STOPENTRY_WFI  Enter Stop mode with WFI instruction
1275:../../core/ST/STM32L4xx_HAL_Driver/Src/stm32l4xx_hal_pwr_ex.c ****   *            @arg @ref PWR_STOPENTRY_WFE  Enter Stop mode with WFE instruction
1276:../../core/ST/STM32L4xx_HAL_Driver/Src/stm32l4xx_hal_pwr_ex.c ****   * @retval None
1277:../../core/ST/STM32L4xx_HAL_Driver/Src/stm32l4xx_hal_pwr_ex.c ****   */
1278:../../core/ST/STM32L4xx_HAL_Driver/Src/stm32l4xx_hal_pwr_ex.c **** void HAL_PWREx_EnterSTOP2Mode(uint8_t STOPEntry)
1279:../../core/ST/STM32L4xx_HAL_Driver/Src/stm32l4xx_hal_pwr_ex.c **** {
 2060              		.loc 1 1279 0
 2061              		.cfi_startproc
 2062              		@ args = 0, pretend = 0, frame = 0
 2063              		@ frame_needed = 0, uses_anonymous_args = 0
 2064              		@ link register save eliminated.
 2065              	.LVL154:
1280:../../core/ST/STM32L4xx_HAL_Driver/Src/stm32l4xx_hal_pwr_ex.c ****   /* Check the parameter */
1281:../../core/ST/STM32L4xx_HAL_Driver/Src/stm32l4xx_hal_pwr_ex.c ****   assert_param(IS_PWR_STOP_ENTRY(STOPEntry));
1282:../../core/ST/STM32L4xx_HAL_Driver/Src/stm32l4xx_hal_pwr_ex.c **** 
1283:../../core/ST/STM32L4xx_HAL_Driver/Src/stm32l4xx_hal_pwr_ex.c ****   /* Set Stop mode 2 */
1284:../../core/ST/STM32L4xx_HAL_Driver/Src/stm32l4xx_hal_pwr_ex.c ****   MODIFY_REG(PWR->CR1, PWR_CR1_LPMS, PWR_CR1_LPMS_STOP2);
 2066              		.loc 1 1284 0
 2067 0000 0C4A     		ldr	r2, .L190
 2068 0002 1368     		ldr	r3, [r2]
 2069 0004 23F00703 		bic	r3, r3, #7
 2070 0008 43F00203 		orr	r3, r3, #2
 2071 000c 1360     		str	r3, [r2]
1285:../../core/ST/STM32L4xx_HAL_Driver/Src/stm32l4xx_hal_pwr_ex.c **** 
1286:../../core/ST/STM32L4xx_HAL_Driver/Src/stm32l4xx_hal_pwr_ex.c ****   /* Set SLEEPDEEP bit of Cortex System Control Register */
1287:../../core/ST/STM32L4xx_HAL_Driver/Src/stm32l4xx_hal_pwr_ex.c ****   SET_BIT(SCB->SCR, ((uint32_t)SCB_SCR_SLEEPDEEP_Msk));
 2072              		.loc 1 1287 0
 2073 000e 0A4A     		ldr	r2, .L190+4
 2074 0010 1369     		ldr	r3, [r2, #16]
 2075 0012 43F00403 		orr	r3, r3, #4
 2076 0016 1361     		str	r3, [r2, #16]
1288:../../core/ST/STM32L4xx_HAL_Driver/Src/stm32l4xx_hal_pwr_ex.c **** 
1289:../../core/ST/STM32L4xx_HAL_Driver/Src/stm32l4xx_hal_pwr_ex.c ****   /* Select Stop mode entry --------------------------------------------------*/
1290:../../core/ST/STM32L4xx_HAL_Driver/Src/stm32l4xx_hal_pwr_ex.c ****   if(STOPEntry == PWR_STOPENTRY_WFI)
 2077              		.loc 1 1290 0
 2078 0018 0128     		cmp	r0, #1
 2079 001a 08D0     		beq	.L189
 2080              	.LBB44:
 2081              	.LBB45:
 2082              		.loc 2 406 0
 2083              		.syntax unified
 2084              	@ 406 "../../core/ST/CMSIS/Include/cmsis_gcc.h" 1
 2085 001c 40BF     		sev
 2086              	@ 0 "" 2
 2087              		.thumb
 2088              		.syntax unified
 2089              	.LBE45:
 2090              	.LBE44:
 2091              	.LBB46:
 2092              	.LBB47:
 396:../../core/ST/CMSIS/Include/cmsis_gcc.h **** }
ARM GAS  /tmp/ccmTrwWQ.s 			page 68


 2093              		.loc 2 396 0
 2094              		.syntax unified
 2095              	@ 396 "../../core/ST/CMSIS/Include/cmsis_gcc.h" 1
 2096 001e 20BF     		wfe
 2097              	@ 0 "" 2
 2098              		.thumb
 2099              		.syntax unified
 2100              	.LBE47:
 2101              	.LBE46:
 2102              	.LBB48:
 2103              	.LBB49:
 2104              		.syntax unified
 2105              	@ 396 "../../core/ST/CMSIS/Include/cmsis_gcc.h" 1
 2106 0020 20BF     		wfe
 2107              	@ 0 "" 2
 2108              		.thumb
 2109              		.syntax unified
 2110              	.L188:
 2111              	.LBE49:
 2112              	.LBE48:
1291:../../core/ST/STM32L4xx_HAL_Driver/Src/stm32l4xx_hal_pwr_ex.c ****   {
1292:../../core/ST/STM32L4xx_HAL_Driver/Src/stm32l4xx_hal_pwr_ex.c ****     /* Request Wait For Interrupt */
1293:../../core/ST/STM32L4xx_HAL_Driver/Src/stm32l4xx_hal_pwr_ex.c ****     __WFI();
1294:../../core/ST/STM32L4xx_HAL_Driver/Src/stm32l4xx_hal_pwr_ex.c ****   }
1295:../../core/ST/STM32L4xx_HAL_Driver/Src/stm32l4xx_hal_pwr_ex.c ****   else
1296:../../core/ST/STM32L4xx_HAL_Driver/Src/stm32l4xx_hal_pwr_ex.c ****   {
1297:../../core/ST/STM32L4xx_HAL_Driver/Src/stm32l4xx_hal_pwr_ex.c ****     /* Request Wait For Event */
1298:../../core/ST/STM32L4xx_HAL_Driver/Src/stm32l4xx_hal_pwr_ex.c ****     __SEV();
1299:../../core/ST/STM32L4xx_HAL_Driver/Src/stm32l4xx_hal_pwr_ex.c ****     __WFE();
1300:../../core/ST/STM32L4xx_HAL_Driver/Src/stm32l4xx_hal_pwr_ex.c ****     __WFE();
1301:../../core/ST/STM32L4xx_HAL_Driver/Src/stm32l4xx_hal_pwr_ex.c ****   }
1302:../../core/ST/STM32L4xx_HAL_Driver/Src/stm32l4xx_hal_pwr_ex.c **** 
1303:../../core/ST/STM32L4xx_HAL_Driver/Src/stm32l4xx_hal_pwr_ex.c ****   /* Reset SLEEPDEEP bit of Cortex System Control Register */
1304:../../core/ST/STM32L4xx_HAL_Driver/Src/stm32l4xx_hal_pwr_ex.c ****   CLEAR_BIT(SCB->SCR, ((uint32_t)SCB_SCR_SLEEPDEEP_Msk));
 2113              		.loc 1 1304 0
 2114 0022 054A     		ldr	r2, .L190+4
 2115 0024 1369     		ldr	r3, [r2, #16]
 2116 0026 23F00403 		bic	r3, r3, #4
 2117 002a 1361     		str	r3, [r2, #16]
 2118 002c 7047     		bx	lr
 2119              	.L189:
 2120              	.LBB50:
 2121              	.LBB51:
 385:../../core/ST/CMSIS/Include/cmsis_gcc.h **** }
 2122              		.loc 2 385 0
 2123              		.syntax unified
 2124              	@ 385 "../../core/ST/CMSIS/Include/cmsis_gcc.h" 1
 2125 002e 30BF     		wfi
 2126              	@ 0 "" 2
 2127              		.thumb
 2128              		.syntax unified
 2129 0030 F7E7     		b	.L188
 2130              	.L191:
 2131 0032 00BF     		.align	2
 2132              	.L190:
 2133 0034 00700040 		.word	1073770496
 2134 0038 00ED00E0 		.word	-536810240
ARM GAS  /tmp/ccmTrwWQ.s 			page 69


 2135              	.LBE51:
 2136              	.LBE50:
 2137              		.cfi_endproc
 2138              	.LFE154:
 2140              		.section	.text.HAL_PWREx_EnterSHUTDOWNMode,"ax",%progbits
 2141              		.align	1
 2142              		.global	HAL_PWREx_EnterSHUTDOWNMode
 2143              		.syntax unified
 2144              		.thumb
 2145              		.thumb_func
 2146              		.fpu fpv4-sp-d16
 2148              	HAL_PWREx_EnterSHUTDOWNMode:
 2149              	.LFB155:
1305:../../core/ST/STM32L4xx_HAL_Driver/Src/stm32l4xx_hal_pwr_ex.c **** }
1306:../../core/ST/STM32L4xx_HAL_Driver/Src/stm32l4xx_hal_pwr_ex.c **** 
1307:../../core/ST/STM32L4xx_HAL_Driver/Src/stm32l4xx_hal_pwr_ex.c **** 
1308:../../core/ST/STM32L4xx_HAL_Driver/Src/stm32l4xx_hal_pwr_ex.c **** 
1309:../../core/ST/STM32L4xx_HAL_Driver/Src/stm32l4xx_hal_pwr_ex.c **** 
1310:../../core/ST/STM32L4xx_HAL_Driver/Src/stm32l4xx_hal_pwr_ex.c **** 
1311:../../core/ST/STM32L4xx_HAL_Driver/Src/stm32l4xx_hal_pwr_ex.c **** /**
1312:../../core/ST/STM32L4xx_HAL_Driver/Src/stm32l4xx_hal_pwr_ex.c ****   * @brief Enter Shutdown mode.
1313:../../core/ST/STM32L4xx_HAL_Driver/Src/stm32l4xx_hal_pwr_ex.c ****   * @note  In Shutdown mode, the PLL, the HSI, the MSI, the LSI and the HSE oscillators are switche
1314:../../core/ST/STM32L4xx_HAL_Driver/Src/stm32l4xx_hal_pwr_ex.c ****   *        off. The voltage regulator is disabled and Vcore domain is powered off.
1315:../../core/ST/STM32L4xx_HAL_Driver/Src/stm32l4xx_hal_pwr_ex.c ****   *        SRAM1, SRAM2 and registers contents are lost except for registers in the Backup domain.
1316:../../core/ST/STM32L4xx_HAL_Driver/Src/stm32l4xx_hal_pwr_ex.c ****   *        The BOR is not available.
1317:../../core/ST/STM32L4xx_HAL_Driver/Src/stm32l4xx_hal_pwr_ex.c ****   * @note  The I/Os can be configured either with a pull-up or pull-down or can be kept in analog s
1318:../../core/ST/STM32L4xx_HAL_Driver/Src/stm32l4xx_hal_pwr_ex.c ****   * @retval None
1319:../../core/ST/STM32L4xx_HAL_Driver/Src/stm32l4xx_hal_pwr_ex.c ****   */
1320:../../core/ST/STM32L4xx_HAL_Driver/Src/stm32l4xx_hal_pwr_ex.c **** void HAL_PWREx_EnterSHUTDOWNMode(void)
1321:../../core/ST/STM32L4xx_HAL_Driver/Src/stm32l4xx_hal_pwr_ex.c **** {
 2150              		.loc 1 1321 0
 2151              		.cfi_startproc
 2152              		@ args = 0, pretend = 0, frame = 0
 2153              		@ frame_needed = 0, uses_anonymous_args = 0
 2154              		@ link register save eliminated.
1322:../../core/ST/STM32L4xx_HAL_Driver/Src/stm32l4xx_hal_pwr_ex.c **** 
1323:../../core/ST/STM32L4xx_HAL_Driver/Src/stm32l4xx_hal_pwr_ex.c ****   /* Set Shutdown mode */
1324:../../core/ST/STM32L4xx_HAL_Driver/Src/stm32l4xx_hal_pwr_ex.c ****   MODIFY_REG(PWR->CR1, PWR_CR1_LPMS, PWR_CR1_LPMS_SHUTDOWN);
 2155              		.loc 1 1324 0
 2156 0000 064A     		ldr	r2, .L193
 2157 0002 1368     		ldr	r3, [r2]
 2158 0004 23F00703 		bic	r3, r3, #7
 2159 0008 43F00403 		orr	r3, r3, #4
 2160 000c 1360     		str	r3, [r2]
1325:../../core/ST/STM32L4xx_HAL_Driver/Src/stm32l4xx_hal_pwr_ex.c **** 
1326:../../core/ST/STM32L4xx_HAL_Driver/Src/stm32l4xx_hal_pwr_ex.c ****   /* Set SLEEPDEEP bit of Cortex System Control Register */
1327:../../core/ST/STM32L4xx_HAL_Driver/Src/stm32l4xx_hal_pwr_ex.c ****   SET_BIT(SCB->SCR, ((uint32_t)SCB_SCR_SLEEPDEEP_Msk));
 2161              		.loc 1 1327 0
 2162 000e 044A     		ldr	r2, .L193+4
 2163 0010 1369     		ldr	r3, [r2, #16]
 2164 0012 43F00403 		orr	r3, r3, #4
 2165 0016 1361     		str	r3, [r2, #16]
 2166              	.LBB52:
 2167              	.LBB53:
 385:../../core/ST/CMSIS/Include/cmsis_gcc.h **** }
 2168              		.loc 2 385 0
 2169              		.syntax unified
ARM GAS  /tmp/ccmTrwWQ.s 			page 70


 2170              	@ 385 "../../core/ST/CMSIS/Include/cmsis_gcc.h" 1
 2171 0018 30BF     		wfi
 2172              	@ 0 "" 2
 2173              		.thumb
 2174              		.syntax unified
 2175 001a 7047     		bx	lr
 2176              	.L194:
 2177              		.align	2
 2178              	.L193:
 2179 001c 00700040 		.word	1073770496
 2180 0020 00ED00E0 		.word	-536810240
 2181              	.LBE53:
 2182              	.LBE52:
 2183              		.cfi_endproc
 2184              	.LFE155:
 2186              		.section	.text.HAL_PWREx_PVM1Callback,"ax",%progbits
 2187              		.align	1
 2188              		.weak	HAL_PWREx_PVM1Callback
 2189              		.syntax unified
 2190              		.thumb
 2191              		.thumb_func
 2192              		.fpu fpv4-sp-d16
 2194              	HAL_PWREx_PVM1Callback:
 2195              	.LFB157:
1328:../../core/ST/STM32L4xx_HAL_Driver/Src/stm32l4xx_hal_pwr_ex.c **** 
1329:../../core/ST/STM32L4xx_HAL_Driver/Src/stm32l4xx_hal_pwr_ex.c **** /* This option is used to ensure that store operations are completed */
1330:../../core/ST/STM32L4xx_HAL_Driver/Src/stm32l4xx_hal_pwr_ex.c **** #if defined ( __CC_ARM)
1331:../../core/ST/STM32L4xx_HAL_Driver/Src/stm32l4xx_hal_pwr_ex.c ****   __force_stores();
1332:../../core/ST/STM32L4xx_HAL_Driver/Src/stm32l4xx_hal_pwr_ex.c **** #endif
1333:../../core/ST/STM32L4xx_HAL_Driver/Src/stm32l4xx_hal_pwr_ex.c ****   /* Request Wait For Interrupt */
1334:../../core/ST/STM32L4xx_HAL_Driver/Src/stm32l4xx_hal_pwr_ex.c ****   __WFI();
1335:../../core/ST/STM32L4xx_HAL_Driver/Src/stm32l4xx_hal_pwr_ex.c **** }
1336:../../core/ST/STM32L4xx_HAL_Driver/Src/stm32l4xx_hal_pwr_ex.c **** 
1337:../../core/ST/STM32L4xx_HAL_Driver/Src/stm32l4xx_hal_pwr_ex.c **** 
1338:../../core/ST/STM32L4xx_HAL_Driver/Src/stm32l4xx_hal_pwr_ex.c **** 
1339:../../core/ST/STM32L4xx_HAL_Driver/Src/stm32l4xx_hal_pwr_ex.c **** 
1340:../../core/ST/STM32L4xx_HAL_Driver/Src/stm32l4xx_hal_pwr_ex.c **** /**
1341:../../core/ST/STM32L4xx_HAL_Driver/Src/stm32l4xx_hal_pwr_ex.c ****   * @brief This function handles the PWR PVD/PVMx interrupt request.
1342:../../core/ST/STM32L4xx_HAL_Driver/Src/stm32l4xx_hal_pwr_ex.c ****   * @note This API should be called under the PVD_PVM_IRQHandler().
1343:../../core/ST/STM32L4xx_HAL_Driver/Src/stm32l4xx_hal_pwr_ex.c ****   * @retval None
1344:../../core/ST/STM32L4xx_HAL_Driver/Src/stm32l4xx_hal_pwr_ex.c ****   */
1345:../../core/ST/STM32L4xx_HAL_Driver/Src/stm32l4xx_hal_pwr_ex.c **** void HAL_PWREx_PVD_PVM_IRQHandler(void)
1346:../../core/ST/STM32L4xx_HAL_Driver/Src/stm32l4xx_hal_pwr_ex.c **** {
1347:../../core/ST/STM32L4xx_HAL_Driver/Src/stm32l4xx_hal_pwr_ex.c ****   /* Check PWR exti flag */
1348:../../core/ST/STM32L4xx_HAL_Driver/Src/stm32l4xx_hal_pwr_ex.c ****   if(__HAL_PWR_PVD_EXTI_GET_FLAG() != 0x0U)
1349:../../core/ST/STM32L4xx_HAL_Driver/Src/stm32l4xx_hal_pwr_ex.c ****   {
1350:../../core/ST/STM32L4xx_HAL_Driver/Src/stm32l4xx_hal_pwr_ex.c ****     /* PWR PVD interrupt user callback */
1351:../../core/ST/STM32L4xx_HAL_Driver/Src/stm32l4xx_hal_pwr_ex.c ****     HAL_PWR_PVDCallback();
1352:../../core/ST/STM32L4xx_HAL_Driver/Src/stm32l4xx_hal_pwr_ex.c **** 
1353:../../core/ST/STM32L4xx_HAL_Driver/Src/stm32l4xx_hal_pwr_ex.c ****     /* Clear PVD exti pending bit */
1354:../../core/ST/STM32L4xx_HAL_Driver/Src/stm32l4xx_hal_pwr_ex.c ****     __HAL_PWR_PVD_EXTI_CLEAR_FLAG();
1355:../../core/ST/STM32L4xx_HAL_Driver/Src/stm32l4xx_hal_pwr_ex.c ****   }
1356:../../core/ST/STM32L4xx_HAL_Driver/Src/stm32l4xx_hal_pwr_ex.c ****   /* Next, successively check PVMx exti flags */
1357:../../core/ST/STM32L4xx_HAL_Driver/Src/stm32l4xx_hal_pwr_ex.c **** #if defined(PWR_CR2_PVME1)
1358:../../core/ST/STM32L4xx_HAL_Driver/Src/stm32l4xx_hal_pwr_ex.c ****   if(__HAL_PWR_PVM1_EXTI_GET_FLAG() != 0x0U)
1359:../../core/ST/STM32L4xx_HAL_Driver/Src/stm32l4xx_hal_pwr_ex.c ****   {
1360:../../core/ST/STM32L4xx_HAL_Driver/Src/stm32l4xx_hal_pwr_ex.c ****     /* PWR PVM1 interrupt user callback */
ARM GAS  /tmp/ccmTrwWQ.s 			page 71


1361:../../core/ST/STM32L4xx_HAL_Driver/Src/stm32l4xx_hal_pwr_ex.c ****     HAL_PWREx_PVM1Callback();
1362:../../core/ST/STM32L4xx_HAL_Driver/Src/stm32l4xx_hal_pwr_ex.c **** 
1363:../../core/ST/STM32L4xx_HAL_Driver/Src/stm32l4xx_hal_pwr_ex.c ****     /* Clear PVM1 exti pending bit */
1364:../../core/ST/STM32L4xx_HAL_Driver/Src/stm32l4xx_hal_pwr_ex.c ****     __HAL_PWR_PVM1_EXTI_CLEAR_FLAG();
1365:../../core/ST/STM32L4xx_HAL_Driver/Src/stm32l4xx_hal_pwr_ex.c ****   }
1366:../../core/ST/STM32L4xx_HAL_Driver/Src/stm32l4xx_hal_pwr_ex.c **** #endif /* PWR_CR2_PVME1 */
1367:../../core/ST/STM32L4xx_HAL_Driver/Src/stm32l4xx_hal_pwr_ex.c **** #if defined(PWR_CR2_PVME2)
1368:../../core/ST/STM32L4xx_HAL_Driver/Src/stm32l4xx_hal_pwr_ex.c ****   if(__HAL_PWR_PVM2_EXTI_GET_FLAG() != 0x0U)
1369:../../core/ST/STM32L4xx_HAL_Driver/Src/stm32l4xx_hal_pwr_ex.c ****   {
1370:../../core/ST/STM32L4xx_HAL_Driver/Src/stm32l4xx_hal_pwr_ex.c ****     /* PWR PVM2 interrupt user callback */
1371:../../core/ST/STM32L4xx_HAL_Driver/Src/stm32l4xx_hal_pwr_ex.c ****     HAL_PWREx_PVM2Callback();
1372:../../core/ST/STM32L4xx_HAL_Driver/Src/stm32l4xx_hal_pwr_ex.c **** 
1373:../../core/ST/STM32L4xx_HAL_Driver/Src/stm32l4xx_hal_pwr_ex.c ****     /* Clear PVM2 exti pending bit */
1374:../../core/ST/STM32L4xx_HAL_Driver/Src/stm32l4xx_hal_pwr_ex.c ****     __HAL_PWR_PVM2_EXTI_CLEAR_FLAG();
1375:../../core/ST/STM32L4xx_HAL_Driver/Src/stm32l4xx_hal_pwr_ex.c ****   }
1376:../../core/ST/STM32L4xx_HAL_Driver/Src/stm32l4xx_hal_pwr_ex.c **** #endif /* PWR_CR2_PVME2 */
1377:../../core/ST/STM32L4xx_HAL_Driver/Src/stm32l4xx_hal_pwr_ex.c ****   if(__HAL_PWR_PVM3_EXTI_GET_FLAG() != 0x0U)
1378:../../core/ST/STM32L4xx_HAL_Driver/Src/stm32l4xx_hal_pwr_ex.c ****   {
1379:../../core/ST/STM32L4xx_HAL_Driver/Src/stm32l4xx_hal_pwr_ex.c ****     /* PWR PVM3 interrupt user callback */
1380:../../core/ST/STM32L4xx_HAL_Driver/Src/stm32l4xx_hal_pwr_ex.c ****     HAL_PWREx_PVM3Callback();
1381:../../core/ST/STM32L4xx_HAL_Driver/Src/stm32l4xx_hal_pwr_ex.c **** 
1382:../../core/ST/STM32L4xx_HAL_Driver/Src/stm32l4xx_hal_pwr_ex.c ****     /* Clear PVM3 exti pending bit */
1383:../../core/ST/STM32L4xx_HAL_Driver/Src/stm32l4xx_hal_pwr_ex.c ****     __HAL_PWR_PVM3_EXTI_CLEAR_FLAG();
1384:../../core/ST/STM32L4xx_HAL_Driver/Src/stm32l4xx_hal_pwr_ex.c ****   }
1385:../../core/ST/STM32L4xx_HAL_Driver/Src/stm32l4xx_hal_pwr_ex.c ****   if(__HAL_PWR_PVM4_EXTI_GET_FLAG() != 0x0U)
1386:../../core/ST/STM32L4xx_HAL_Driver/Src/stm32l4xx_hal_pwr_ex.c ****   {
1387:../../core/ST/STM32L4xx_HAL_Driver/Src/stm32l4xx_hal_pwr_ex.c ****     /* PWR PVM4 interrupt user callback */
1388:../../core/ST/STM32L4xx_HAL_Driver/Src/stm32l4xx_hal_pwr_ex.c ****     HAL_PWREx_PVM4Callback();
1389:../../core/ST/STM32L4xx_HAL_Driver/Src/stm32l4xx_hal_pwr_ex.c **** 
1390:../../core/ST/STM32L4xx_HAL_Driver/Src/stm32l4xx_hal_pwr_ex.c ****     /* Clear PVM4 exti pending bit */
1391:../../core/ST/STM32L4xx_HAL_Driver/Src/stm32l4xx_hal_pwr_ex.c ****     __HAL_PWR_PVM4_EXTI_CLEAR_FLAG();
1392:../../core/ST/STM32L4xx_HAL_Driver/Src/stm32l4xx_hal_pwr_ex.c ****   }
1393:../../core/ST/STM32L4xx_HAL_Driver/Src/stm32l4xx_hal_pwr_ex.c **** }
1394:../../core/ST/STM32L4xx_HAL_Driver/Src/stm32l4xx_hal_pwr_ex.c **** 
1395:../../core/ST/STM32L4xx_HAL_Driver/Src/stm32l4xx_hal_pwr_ex.c **** 
1396:../../core/ST/STM32L4xx_HAL_Driver/Src/stm32l4xx_hal_pwr_ex.c **** #if defined(PWR_CR2_PVME1)
1397:../../core/ST/STM32L4xx_HAL_Driver/Src/stm32l4xx_hal_pwr_ex.c **** /**
1398:../../core/ST/STM32L4xx_HAL_Driver/Src/stm32l4xx_hal_pwr_ex.c ****   * @brief PWR PVM1 interrupt callback
1399:../../core/ST/STM32L4xx_HAL_Driver/Src/stm32l4xx_hal_pwr_ex.c ****   * @retval None
1400:../../core/ST/STM32L4xx_HAL_Driver/Src/stm32l4xx_hal_pwr_ex.c ****   */
1401:../../core/ST/STM32L4xx_HAL_Driver/Src/stm32l4xx_hal_pwr_ex.c **** __weak void HAL_PWREx_PVM1Callback(void)
1402:../../core/ST/STM32L4xx_HAL_Driver/Src/stm32l4xx_hal_pwr_ex.c **** {
 2196              		.loc 1 1402 0
 2197              		.cfi_startproc
 2198              		@ args = 0, pretend = 0, frame = 0
 2199              		@ frame_needed = 0, uses_anonymous_args = 0
 2200              		@ link register save eliminated.
 2201 0000 7047     		bx	lr
 2202              		.cfi_endproc
 2203              	.LFE157:
 2205              		.section	.text.HAL_PWREx_PVM2Callback,"ax",%progbits
 2206              		.align	1
 2207              		.weak	HAL_PWREx_PVM2Callback
 2208              		.syntax unified
 2209              		.thumb
 2210              		.thumb_func
 2211              		.fpu fpv4-sp-d16
ARM GAS  /tmp/ccmTrwWQ.s 			page 72


 2213              	HAL_PWREx_PVM2Callback:
 2214              	.LFB158:
1403:../../core/ST/STM32L4xx_HAL_Driver/Src/stm32l4xx_hal_pwr_ex.c ****   /* NOTE : This function should not be modified; when the callback is needed,
1404:../../core/ST/STM32L4xx_HAL_Driver/Src/stm32l4xx_hal_pwr_ex.c ****             HAL_PWREx_PVM1Callback() API can be implemented in the user file
1405:../../core/ST/STM32L4xx_HAL_Driver/Src/stm32l4xx_hal_pwr_ex.c ****    */
1406:../../core/ST/STM32L4xx_HAL_Driver/Src/stm32l4xx_hal_pwr_ex.c **** }
1407:../../core/ST/STM32L4xx_HAL_Driver/Src/stm32l4xx_hal_pwr_ex.c **** #endif /* PWR_CR2_PVME1 */
1408:../../core/ST/STM32L4xx_HAL_Driver/Src/stm32l4xx_hal_pwr_ex.c **** 
1409:../../core/ST/STM32L4xx_HAL_Driver/Src/stm32l4xx_hal_pwr_ex.c **** #if defined(PWR_CR2_PVME2)
1410:../../core/ST/STM32L4xx_HAL_Driver/Src/stm32l4xx_hal_pwr_ex.c **** /**
1411:../../core/ST/STM32L4xx_HAL_Driver/Src/stm32l4xx_hal_pwr_ex.c ****   * @brief PWR PVM2 interrupt callback
1412:../../core/ST/STM32L4xx_HAL_Driver/Src/stm32l4xx_hal_pwr_ex.c ****   * @retval None
1413:../../core/ST/STM32L4xx_HAL_Driver/Src/stm32l4xx_hal_pwr_ex.c ****   */
1414:../../core/ST/STM32L4xx_HAL_Driver/Src/stm32l4xx_hal_pwr_ex.c **** __weak void HAL_PWREx_PVM2Callback(void)
1415:../../core/ST/STM32L4xx_HAL_Driver/Src/stm32l4xx_hal_pwr_ex.c **** {
 2215              		.loc 1 1415 0
 2216              		.cfi_startproc
 2217              		@ args = 0, pretend = 0, frame = 0
 2218              		@ frame_needed = 0, uses_anonymous_args = 0
 2219              		@ link register save eliminated.
 2220 0000 7047     		bx	lr
 2221              		.cfi_endproc
 2222              	.LFE158:
 2224              		.section	.text.HAL_PWREx_PVM3Callback,"ax",%progbits
 2225              		.align	1
 2226              		.weak	HAL_PWREx_PVM3Callback
 2227              		.syntax unified
 2228              		.thumb
 2229              		.thumb_func
 2230              		.fpu fpv4-sp-d16
 2232              	HAL_PWREx_PVM3Callback:
 2233              	.LFB159:
1416:../../core/ST/STM32L4xx_HAL_Driver/Src/stm32l4xx_hal_pwr_ex.c ****   /* NOTE : This function should not be modified; when the callback is needed,
1417:../../core/ST/STM32L4xx_HAL_Driver/Src/stm32l4xx_hal_pwr_ex.c ****             HAL_PWREx_PVM2Callback() API can be implemented in the user file
1418:../../core/ST/STM32L4xx_HAL_Driver/Src/stm32l4xx_hal_pwr_ex.c ****    */
1419:../../core/ST/STM32L4xx_HAL_Driver/Src/stm32l4xx_hal_pwr_ex.c **** }
1420:../../core/ST/STM32L4xx_HAL_Driver/Src/stm32l4xx_hal_pwr_ex.c **** #endif /* PWR_CR2_PVME2 */
1421:../../core/ST/STM32L4xx_HAL_Driver/Src/stm32l4xx_hal_pwr_ex.c **** 
1422:../../core/ST/STM32L4xx_HAL_Driver/Src/stm32l4xx_hal_pwr_ex.c **** /**
1423:../../core/ST/STM32L4xx_HAL_Driver/Src/stm32l4xx_hal_pwr_ex.c ****   * @brief PWR PVM3 interrupt callback
1424:../../core/ST/STM32L4xx_HAL_Driver/Src/stm32l4xx_hal_pwr_ex.c ****   * @retval None
1425:../../core/ST/STM32L4xx_HAL_Driver/Src/stm32l4xx_hal_pwr_ex.c ****   */
1426:../../core/ST/STM32L4xx_HAL_Driver/Src/stm32l4xx_hal_pwr_ex.c **** __weak void HAL_PWREx_PVM3Callback(void)
1427:../../core/ST/STM32L4xx_HAL_Driver/Src/stm32l4xx_hal_pwr_ex.c **** {
 2234              		.loc 1 1427 0
 2235              		.cfi_startproc
 2236              		@ args = 0, pretend = 0, frame = 0
 2237              		@ frame_needed = 0, uses_anonymous_args = 0
 2238              		@ link register save eliminated.
 2239 0000 7047     		bx	lr
 2240              		.cfi_endproc
 2241              	.LFE159:
 2243              		.section	.text.HAL_PWREx_PVM4Callback,"ax",%progbits
 2244              		.align	1
 2245              		.weak	HAL_PWREx_PVM4Callback
 2246              		.syntax unified
 2247              		.thumb
ARM GAS  /tmp/ccmTrwWQ.s 			page 73


 2248              		.thumb_func
 2249              		.fpu fpv4-sp-d16
 2251              	HAL_PWREx_PVM4Callback:
 2252              	.LFB160:
1428:../../core/ST/STM32L4xx_HAL_Driver/Src/stm32l4xx_hal_pwr_ex.c ****   /* NOTE : This function should not be modified; when the callback is needed,
1429:../../core/ST/STM32L4xx_HAL_Driver/Src/stm32l4xx_hal_pwr_ex.c ****             HAL_PWREx_PVM3Callback() API can be implemented in the user file
1430:../../core/ST/STM32L4xx_HAL_Driver/Src/stm32l4xx_hal_pwr_ex.c ****    */
1431:../../core/ST/STM32L4xx_HAL_Driver/Src/stm32l4xx_hal_pwr_ex.c **** }
1432:../../core/ST/STM32L4xx_HAL_Driver/Src/stm32l4xx_hal_pwr_ex.c **** 
1433:../../core/ST/STM32L4xx_HAL_Driver/Src/stm32l4xx_hal_pwr_ex.c **** /**
1434:../../core/ST/STM32L4xx_HAL_Driver/Src/stm32l4xx_hal_pwr_ex.c ****   * @brief PWR PVM4 interrupt callback
1435:../../core/ST/STM32L4xx_HAL_Driver/Src/stm32l4xx_hal_pwr_ex.c ****   * @retval None
1436:../../core/ST/STM32L4xx_HAL_Driver/Src/stm32l4xx_hal_pwr_ex.c ****   */
1437:../../core/ST/STM32L4xx_HAL_Driver/Src/stm32l4xx_hal_pwr_ex.c **** __weak void HAL_PWREx_PVM4Callback(void)
1438:../../core/ST/STM32L4xx_HAL_Driver/Src/stm32l4xx_hal_pwr_ex.c **** {
 2253              		.loc 1 1438 0
 2254              		.cfi_startproc
 2255              		@ args = 0, pretend = 0, frame = 0
 2256              		@ frame_needed = 0, uses_anonymous_args = 0
 2257              		@ link register save eliminated.
 2258 0000 7047     		bx	lr
 2259              		.cfi_endproc
 2260              	.LFE160:
 2262              		.section	.text.HAL_PWREx_PVD_PVM_IRQHandler,"ax",%progbits
 2263              		.align	1
 2264              		.global	HAL_PWREx_PVD_PVM_IRQHandler
 2265              		.syntax unified
 2266              		.thumb
 2267              		.thumb_func
 2268              		.fpu fpv4-sp-d16
 2270              	HAL_PWREx_PVD_PVM_IRQHandler:
 2271              	.LFB156:
1346:../../core/ST/STM32L4xx_HAL_Driver/Src/stm32l4xx_hal_pwr_ex.c ****   /* Check PWR exti flag */
 2272              		.loc 1 1346 0
 2273              		.cfi_startproc
 2274              		@ args = 0, pretend = 0, frame = 0
 2275              		@ frame_needed = 0, uses_anonymous_args = 0
1346:../../core/ST/STM32L4xx_HAL_Driver/Src/stm32l4xx_hal_pwr_ex.c ****   /* Check PWR exti flag */
 2276              		.loc 1 1346 0
 2277 0000 08B5     		push	{r3, lr}
 2278              	.LCFI0:
 2279              		.cfi_def_cfa_offset 8
 2280              		.cfi_offset 3, -8
 2281              		.cfi_offset 14, -4
1348:../../core/ST/STM32L4xx_HAL_Driver/Src/stm32l4xx_hal_pwr_ex.c ****   {
 2282              		.loc 1 1348 0
 2283 0002 1C4B     		ldr	r3, .L211
 2284 0004 5B69     		ldr	r3, [r3, #20]
 2285 0006 13F4803F 		tst	r3, #65536
 2286 000a 14D1     		bne	.L206
 2287              	.L200:
1358:../../core/ST/STM32L4xx_HAL_Driver/Src/stm32l4xx_hal_pwr_ex.c ****   {
 2288              		.loc 1 1358 0
 2289 000c 194B     		ldr	r3, .L211
 2290 000e 5B6B     		ldr	r3, [r3, #52]
 2291 0010 13F0080F 		tst	r3, #8
 2292 0014 16D1     		bne	.L207
ARM GAS  /tmp/ccmTrwWQ.s 			page 74


 2293              	.L201:
1368:../../core/ST/STM32L4xx_HAL_Driver/Src/stm32l4xx_hal_pwr_ex.c ****   {
 2294              		.loc 1 1368 0
 2295 0016 174B     		ldr	r3, .L211
 2296 0018 5B6B     		ldr	r3, [r3, #52]
 2297 001a 13F0100F 		tst	r3, #16
 2298 001e 17D1     		bne	.L208
 2299              	.L202:
1377:../../core/ST/STM32L4xx_HAL_Driver/Src/stm32l4xx_hal_pwr_ex.c ****   {
 2300              		.loc 1 1377 0
 2301 0020 144B     		ldr	r3, .L211
 2302 0022 5B6B     		ldr	r3, [r3, #52]
 2303 0024 13F0200F 		tst	r3, #32
 2304 0028 18D1     		bne	.L209
 2305              	.L203:
1385:../../core/ST/STM32L4xx_HAL_Driver/Src/stm32l4xx_hal_pwr_ex.c ****   {
 2306              		.loc 1 1385 0
 2307 002a 124B     		ldr	r3, .L211
 2308 002c 5B6B     		ldr	r3, [r3, #52]
 2309 002e 13F0400F 		tst	r3, #64
 2310 0032 19D1     		bne	.L210
 2311              	.L199:
 2312 0034 08BD     		pop	{r3, pc}
 2313              	.L206:
1351:../../core/ST/STM32L4xx_HAL_Driver/Src/stm32l4xx_hal_pwr_ex.c **** 
 2314              		.loc 1 1351 0
 2315 0036 FFF7FEFF 		bl	HAL_PWR_PVDCallback
 2316              	.LVL155:
1354:../../core/ST/STM32L4xx_HAL_Driver/Src/stm32l4xx_hal_pwr_ex.c ****   }
 2317              		.loc 1 1354 0
 2318 003a 4FF48032 		mov	r2, #65536
 2319 003e 0D4B     		ldr	r3, .L211
 2320 0040 5A61     		str	r2, [r3, #20]
 2321 0042 E3E7     		b	.L200
 2322              	.L207:
1361:../../core/ST/STM32L4xx_HAL_Driver/Src/stm32l4xx_hal_pwr_ex.c **** 
 2323              		.loc 1 1361 0
 2324 0044 FFF7FEFF 		bl	HAL_PWREx_PVM1Callback
 2325              	.LVL156:
1364:../../core/ST/STM32L4xx_HAL_Driver/Src/stm32l4xx_hal_pwr_ex.c ****   }
 2326              		.loc 1 1364 0
 2327 0048 0822     		movs	r2, #8
 2328 004a 0A4B     		ldr	r3, .L211
 2329 004c 5A63     		str	r2, [r3, #52]
 2330 004e E2E7     		b	.L201
 2331              	.L208:
1371:../../core/ST/STM32L4xx_HAL_Driver/Src/stm32l4xx_hal_pwr_ex.c **** 
 2332              		.loc 1 1371 0
 2333 0050 FFF7FEFF 		bl	HAL_PWREx_PVM2Callback
 2334              	.LVL157:
1374:../../core/ST/STM32L4xx_HAL_Driver/Src/stm32l4xx_hal_pwr_ex.c ****   }
 2335              		.loc 1 1374 0
 2336 0054 1022     		movs	r2, #16
 2337 0056 074B     		ldr	r3, .L211
 2338 0058 5A63     		str	r2, [r3, #52]
 2339 005a E1E7     		b	.L202
 2340              	.L209:
ARM GAS  /tmp/ccmTrwWQ.s 			page 75


1380:../../core/ST/STM32L4xx_HAL_Driver/Src/stm32l4xx_hal_pwr_ex.c **** 
 2341              		.loc 1 1380 0
 2342 005c FFF7FEFF 		bl	HAL_PWREx_PVM3Callback
 2343              	.LVL158:
1383:../../core/ST/STM32L4xx_HAL_Driver/Src/stm32l4xx_hal_pwr_ex.c ****   }
 2344              		.loc 1 1383 0
 2345 0060 2022     		movs	r2, #32
 2346 0062 044B     		ldr	r3, .L211
 2347 0064 5A63     		str	r2, [r3, #52]
 2348 0066 E0E7     		b	.L203
 2349              	.L210:
1388:../../core/ST/STM32L4xx_HAL_Driver/Src/stm32l4xx_hal_pwr_ex.c **** 
 2350              		.loc 1 1388 0
 2351 0068 FFF7FEFF 		bl	HAL_PWREx_PVM4Callback
 2352              	.LVL159:
1391:../../core/ST/STM32L4xx_HAL_Driver/Src/stm32l4xx_hal_pwr_ex.c ****   }
 2353              		.loc 1 1391 0
 2354 006c 4022     		movs	r2, #64
 2355 006e 014B     		ldr	r3, .L211
 2356 0070 5A63     		str	r2, [r3, #52]
1393:../../core/ST/STM32L4xx_HAL_Driver/Src/stm32l4xx_hal_pwr_ex.c **** 
 2357              		.loc 1 1393 0
 2358 0072 DFE7     		b	.L199
 2359              	.L212:
 2360              		.align	2
 2361              	.L211:
 2362 0074 00040140 		.word	1073808384
 2363              		.cfi_endproc
 2364              	.LFE156:
 2366              		.text
 2367              	.Letext0:
 2368              		.file 3 "/usr/include/newlib/machine/_default_types.h"
 2369              		.file 4 "/usr/include/newlib/sys/_stdint.h"
 2370              		.file 5 "../../core/ST/CMSIS/Include/core_cm4.h"
 2371              		.file 6 "../../core/ST/CMSIS/Device/ST/STM32L4xx/Include/system_stm32l4xx.h"
 2372              		.file 7 "../../core/ST/CMSIS/Device/ST/STM32L4xx/Include/stm32l496xx.h"
 2373              		.file 8 "../../core/ST/STM32L4xx_HAL_Driver/Inc/stm32l4xx_hal_def.h"
 2374              		.file 9 "../../core/ST/STM32L4xx_HAL_Driver/Inc/stm32l4xx_hal_pwr_ex.h"
 2375              		.file 10 "../../core/ST/STM32L4xx_HAL_Driver/Inc/stm32l4xx_hal.h"
 2376              		.file 11 "../../core/ST/STM32L4xx_HAL_Driver/Inc/stm32l4xx_hal_pwr.h"
ARM GAS  /tmp/ccmTrwWQ.s 			page 76


DEFINED SYMBOLS
                            *ABS*:0000000000000000 stm32l4xx_hal_pwr_ex.c
     /tmp/ccmTrwWQ.s:18     .text.HAL_PWREx_GetVoltageRange:0000000000000000 $t
     /tmp/ccmTrwWQ.s:25     .text.HAL_PWREx_GetVoltageRange:0000000000000000 HAL_PWREx_GetVoltageRange
     /tmp/ccmTrwWQ.s:42     .text.HAL_PWREx_GetVoltageRange:000000000000000c $d
     /tmp/ccmTrwWQ.s:47     .text.HAL_PWREx_ControlVoltageScaling:0000000000000000 $t
     /tmp/ccmTrwWQ.s:54     .text.HAL_PWREx_ControlVoltageScaling:0000000000000000 HAL_PWREx_ControlVoltageScaling
     /tmp/ccmTrwWQ.s:151    .text.HAL_PWREx_ControlVoltageScaling:0000000000000084 $d
     /tmp/ccmTrwWQ.s:158    .text.HAL_PWREx_EnableBatteryCharging:0000000000000000 $t
     /tmp/ccmTrwWQ.s:165    .text.HAL_PWREx_EnableBatteryCharging:0000000000000000 HAL_PWREx_EnableBatteryCharging
     /tmp/ccmTrwWQ.s:188    .text.HAL_PWREx_EnableBatteryCharging:0000000000000018 $d
     /tmp/ccmTrwWQ.s:193    .text.HAL_PWREx_DisableBatteryCharging:0000000000000000 $t
     /tmp/ccmTrwWQ.s:200    .text.HAL_PWREx_DisableBatteryCharging:0000000000000000 HAL_PWREx_DisableBatteryCharging
     /tmp/ccmTrwWQ.s:216    .text.HAL_PWREx_DisableBatteryCharging:000000000000000c $d
     /tmp/ccmTrwWQ.s:221    .text.HAL_PWREx_EnableVddUSB:0000000000000000 $t
     /tmp/ccmTrwWQ.s:228    .text.HAL_PWREx_EnableVddUSB:0000000000000000 HAL_PWREx_EnableVddUSB
     /tmp/ccmTrwWQ.s:244    .text.HAL_PWREx_EnableVddUSB:000000000000000c $d
     /tmp/ccmTrwWQ.s:249    .text.HAL_PWREx_DisableVddUSB:0000000000000000 $t
     /tmp/ccmTrwWQ.s:256    .text.HAL_PWREx_DisableVddUSB:0000000000000000 HAL_PWREx_DisableVddUSB
     /tmp/ccmTrwWQ.s:272    .text.HAL_PWREx_DisableVddUSB:000000000000000c $d
     /tmp/ccmTrwWQ.s:277    .text.HAL_PWREx_EnableVddIO2:0000000000000000 $t
     /tmp/ccmTrwWQ.s:284    .text.HAL_PWREx_EnableVddIO2:0000000000000000 HAL_PWREx_EnableVddIO2
     /tmp/ccmTrwWQ.s:300    .text.HAL_PWREx_EnableVddIO2:000000000000000c $d
     /tmp/ccmTrwWQ.s:305    .text.HAL_PWREx_DisableVddIO2:0000000000000000 $t
     /tmp/ccmTrwWQ.s:312    .text.HAL_PWREx_DisableVddIO2:0000000000000000 HAL_PWREx_DisableVddIO2
     /tmp/ccmTrwWQ.s:328    .text.HAL_PWREx_DisableVddIO2:000000000000000c $d
     /tmp/ccmTrwWQ.s:333    .text.HAL_PWREx_EnableInternalWakeUpLine:0000000000000000 $t
     /tmp/ccmTrwWQ.s:340    .text.HAL_PWREx_EnableInternalWakeUpLine:0000000000000000 HAL_PWREx_EnableInternalWakeUpLine
     /tmp/ccmTrwWQ.s:356    .text.HAL_PWREx_EnableInternalWakeUpLine:000000000000000c $d
     /tmp/ccmTrwWQ.s:361    .text.HAL_PWREx_DisableInternalWakeUpLine:0000000000000000 $t
     /tmp/ccmTrwWQ.s:368    .text.HAL_PWREx_DisableInternalWakeUpLine:0000000000000000 HAL_PWREx_DisableInternalWakeUpLine
     /tmp/ccmTrwWQ.s:384    .text.HAL_PWREx_DisableInternalWakeUpLine:000000000000000c $d
     /tmp/ccmTrwWQ.s:389    .text.HAL_PWREx_EnableGPIOPullUp:0000000000000000 $t
     /tmp/ccmTrwWQ.s:396    .text.HAL_PWREx_EnableGPIOPullUp:0000000000000000 HAL_PWREx_EnableGPIOPullUp
     /tmp/ccmTrwWQ.s:409    .text.HAL_PWREx_EnableGPIOPullUp:0000000000000008 $d
     /tmp/ccmTrwWQ.s:589    .text.HAL_PWREx_EnableGPIOPullUp:00000000000000e4 $d
     /tmp/ccmTrwWQ.s:594    .text.HAL_PWREx_DisableGPIOPullUp:0000000000000000 $t
     /tmp/ccmTrwWQ.s:601    .text.HAL_PWREx_DisableGPIOPullUp:0000000000000000 HAL_PWREx_DisableGPIOPullUp
     /tmp/ccmTrwWQ.s:614    .text.HAL_PWREx_DisableGPIOPullUp:0000000000000008 $d
     /tmp/ccmTrwWQ.s:753    .text.HAL_PWREx_DisableGPIOPullUp:00000000000000a0 $d
     /tmp/ccmTrwWQ.s:758    .text.HAL_PWREx_EnableGPIOPullDown:0000000000000000 $t
     /tmp/ccmTrwWQ.s:765    .text.HAL_PWREx_EnableGPIOPullDown:0000000000000000 HAL_PWREx_EnableGPIOPullDown
     /tmp/ccmTrwWQ.s:778    .text.HAL_PWREx_EnableGPIOPullDown:0000000000000008 $d
     /tmp/ccmTrwWQ.s:957    .text.HAL_PWREx_EnableGPIOPullDown:00000000000000e4 $d
     /tmp/ccmTrwWQ.s:962    .text.HAL_PWREx_DisableGPIOPullDown:0000000000000000 $t
     /tmp/ccmTrwWQ.s:969    .text.HAL_PWREx_DisableGPIOPullDown:0000000000000000 HAL_PWREx_DisableGPIOPullDown
     /tmp/ccmTrwWQ.s:982    .text.HAL_PWREx_DisableGPIOPullDown:0000000000000008 $d
     /tmp/ccmTrwWQ.s:1124   .text.HAL_PWREx_DisableGPIOPullDown:00000000000000a8 $d
     /tmp/ccmTrwWQ.s:1129   .text.HAL_PWREx_EnablePullUpPullDownConfig:0000000000000000 $t
     /tmp/ccmTrwWQ.s:1136   .text.HAL_PWREx_EnablePullUpPullDownConfig:0000000000000000 HAL_PWREx_EnablePullUpPullDownConfig
     /tmp/ccmTrwWQ.s:1152   .text.HAL_PWREx_EnablePullUpPullDownConfig:000000000000000c $d
     /tmp/ccmTrwWQ.s:1157   .text.HAL_PWREx_DisablePullUpPullDownConfig:0000000000000000 $t
     /tmp/ccmTrwWQ.s:1164   .text.HAL_PWREx_DisablePullUpPullDownConfig:0000000000000000 HAL_PWREx_DisablePullUpPullDownConfig
     /tmp/ccmTrwWQ.s:1180   .text.HAL_PWREx_DisablePullUpPullDownConfig:000000000000000c $d
     /tmp/ccmTrwWQ.s:1185   .text.HAL_PWREx_EnableSRAM2ContentRetention:0000000000000000 $t
     /tmp/ccmTrwWQ.s:1192   .text.HAL_PWREx_EnableSRAM2ContentRetention:0000000000000000 HAL_PWREx_EnableSRAM2ContentRetention
     /tmp/ccmTrwWQ.s:1208   .text.HAL_PWREx_EnableSRAM2ContentRetention:000000000000000c $d
ARM GAS  /tmp/ccmTrwWQ.s 			page 77


     /tmp/ccmTrwWQ.s:1213   .text.HAL_PWREx_DisableSRAM2ContentRetention:0000000000000000 $t
     /tmp/ccmTrwWQ.s:1220   .text.HAL_PWREx_DisableSRAM2ContentRetention:0000000000000000 HAL_PWREx_DisableSRAM2ContentRetention
     /tmp/ccmTrwWQ.s:1236   .text.HAL_PWREx_DisableSRAM2ContentRetention:000000000000000c $d
     /tmp/ccmTrwWQ.s:1241   .text.HAL_PWREx_EnablePVM1:0000000000000000 $t
     /tmp/ccmTrwWQ.s:1248   .text.HAL_PWREx_EnablePVM1:0000000000000000 HAL_PWREx_EnablePVM1
     /tmp/ccmTrwWQ.s:1264   .text.HAL_PWREx_EnablePVM1:000000000000000c $d
     /tmp/ccmTrwWQ.s:1269   .text.HAL_PWREx_DisablePVM1:0000000000000000 $t
     /tmp/ccmTrwWQ.s:1276   .text.HAL_PWREx_DisablePVM1:0000000000000000 HAL_PWREx_DisablePVM1
     /tmp/ccmTrwWQ.s:1292   .text.HAL_PWREx_DisablePVM1:000000000000000c $d
     /tmp/ccmTrwWQ.s:1297   .text.HAL_PWREx_EnablePVM2:0000000000000000 $t
     /tmp/ccmTrwWQ.s:1304   .text.HAL_PWREx_EnablePVM2:0000000000000000 HAL_PWREx_EnablePVM2
     /tmp/ccmTrwWQ.s:1320   .text.HAL_PWREx_EnablePVM2:000000000000000c $d
     /tmp/ccmTrwWQ.s:1325   .text.HAL_PWREx_DisablePVM2:0000000000000000 $t
     /tmp/ccmTrwWQ.s:1332   .text.HAL_PWREx_DisablePVM2:0000000000000000 HAL_PWREx_DisablePVM2
     /tmp/ccmTrwWQ.s:1348   .text.HAL_PWREx_DisablePVM2:000000000000000c $d
     /tmp/ccmTrwWQ.s:1353   .text.HAL_PWREx_EnablePVM3:0000000000000000 $t
     /tmp/ccmTrwWQ.s:1360   .text.HAL_PWREx_EnablePVM3:0000000000000000 HAL_PWREx_EnablePVM3
     /tmp/ccmTrwWQ.s:1376   .text.HAL_PWREx_EnablePVM3:000000000000000c $d
     /tmp/ccmTrwWQ.s:1381   .text.HAL_PWREx_DisablePVM3:0000000000000000 $t
     /tmp/ccmTrwWQ.s:1388   .text.HAL_PWREx_DisablePVM3:0000000000000000 HAL_PWREx_DisablePVM3
     /tmp/ccmTrwWQ.s:1404   .text.HAL_PWREx_DisablePVM3:000000000000000c $d
     /tmp/ccmTrwWQ.s:1409   .text.HAL_PWREx_EnablePVM4:0000000000000000 $t
     /tmp/ccmTrwWQ.s:1416   .text.HAL_PWREx_EnablePVM4:0000000000000000 HAL_PWREx_EnablePVM4
     /tmp/ccmTrwWQ.s:1432   .text.HAL_PWREx_EnablePVM4:000000000000000c $d
     /tmp/ccmTrwWQ.s:1437   .text.HAL_PWREx_DisablePVM4:0000000000000000 $t
     /tmp/ccmTrwWQ.s:1444   .text.HAL_PWREx_DisablePVM4:0000000000000000 HAL_PWREx_DisablePVM4
     /tmp/ccmTrwWQ.s:1460   .text.HAL_PWREx_DisablePVM4:000000000000000c $d
     /tmp/ccmTrwWQ.s:1465   .text.HAL_PWREx_ConfigPVM:0000000000000000 $t
     /tmp/ccmTrwWQ.s:1472   .text.HAL_PWREx_ConfigPVM:0000000000000000 HAL_PWREx_ConfigPVM
     /tmp/ccmTrwWQ.s:1769   .text.HAL_PWREx_ConfigPVM:00000000000001e8 $d
     /tmp/ccmTrwWQ.s:1774   .text.HAL_PWREx_EnableLowPowerRunMode:0000000000000000 $t
     /tmp/ccmTrwWQ.s:1781   .text.HAL_PWREx_EnableLowPowerRunMode:0000000000000000 HAL_PWREx_EnableLowPowerRunMode
     /tmp/ccmTrwWQ.s:1797   .text.HAL_PWREx_EnableLowPowerRunMode:000000000000000c $d
     /tmp/ccmTrwWQ.s:1802   .text.HAL_PWREx_DisableLowPowerRunMode:0000000000000000 $t
     /tmp/ccmTrwWQ.s:1809   .text.HAL_PWREx_DisableLowPowerRunMode:0000000000000000 HAL_PWREx_DisableLowPowerRunMode
     /tmp/ccmTrwWQ.s:1864   .text.HAL_PWREx_DisableLowPowerRunMode:0000000000000044 $d
     /tmp/ccmTrwWQ.s:1871   .text.HAL_PWREx_EnterSTOP0Mode:0000000000000000 $t
     /tmp/ccmTrwWQ.s:1878   .text.HAL_PWREx_EnterSTOP0Mode:0000000000000000 HAL_PWREx_EnterSTOP0Mode
     /tmp/ccmTrwWQ.s:1953   .text.HAL_PWREx_EnterSTOP0Mode:0000000000000030 $d
     /tmp/ccmTrwWQ.s:1961   .text.HAL_PWREx_EnterSTOP1Mode:0000000000000000 $t
     /tmp/ccmTrwWQ.s:1968   .text.HAL_PWREx_EnterSTOP1Mode:0000000000000000 HAL_PWREx_EnterSTOP1Mode
     /tmp/ccmTrwWQ.s:2043   .text.HAL_PWREx_EnterSTOP1Mode:0000000000000034 $d
     /tmp/ccmTrwWQ.s:2051   .text.HAL_PWREx_EnterSTOP2Mode:0000000000000000 $t
     /tmp/ccmTrwWQ.s:2058   .text.HAL_PWREx_EnterSTOP2Mode:0000000000000000 HAL_PWREx_EnterSTOP2Mode
     /tmp/ccmTrwWQ.s:2133   .text.HAL_PWREx_EnterSTOP2Mode:0000000000000034 $d
     /tmp/ccmTrwWQ.s:2141   .text.HAL_PWREx_EnterSHUTDOWNMode:0000000000000000 $t
     /tmp/ccmTrwWQ.s:2148   .text.HAL_PWREx_EnterSHUTDOWNMode:0000000000000000 HAL_PWREx_EnterSHUTDOWNMode
     /tmp/ccmTrwWQ.s:2179   .text.HAL_PWREx_EnterSHUTDOWNMode:000000000000001c $d
     /tmp/ccmTrwWQ.s:2187   .text.HAL_PWREx_PVM1Callback:0000000000000000 $t
     /tmp/ccmTrwWQ.s:2194   .text.HAL_PWREx_PVM1Callback:0000000000000000 HAL_PWREx_PVM1Callback
     /tmp/ccmTrwWQ.s:2206   .text.HAL_PWREx_PVM2Callback:0000000000000000 $t
     /tmp/ccmTrwWQ.s:2213   .text.HAL_PWREx_PVM2Callback:0000000000000000 HAL_PWREx_PVM2Callback
     /tmp/ccmTrwWQ.s:2225   .text.HAL_PWREx_PVM3Callback:0000000000000000 $t
     /tmp/ccmTrwWQ.s:2232   .text.HAL_PWREx_PVM3Callback:0000000000000000 HAL_PWREx_PVM3Callback
     /tmp/ccmTrwWQ.s:2244   .text.HAL_PWREx_PVM4Callback:0000000000000000 $t
     /tmp/ccmTrwWQ.s:2251   .text.HAL_PWREx_PVM4Callback:0000000000000000 HAL_PWREx_PVM4Callback
     /tmp/ccmTrwWQ.s:2263   .text.HAL_PWREx_PVD_PVM_IRQHandler:0000000000000000 $t
ARM GAS  /tmp/ccmTrwWQ.s 			page 78


     /tmp/ccmTrwWQ.s:2270   .text.HAL_PWREx_PVD_PVM_IRQHandler:0000000000000000 HAL_PWREx_PVD_PVM_IRQHandler
     /tmp/ccmTrwWQ.s:2362   .text.HAL_PWREx_PVD_PVM_IRQHandler:0000000000000074 $d
                     .debug_frame:0000000000000010 $d
     /tmp/ccmTrwWQ.s:418    .text.HAL_PWREx_EnableGPIOPullUp:0000000000000011 $d
     /tmp/ccmTrwWQ.s:418    .text.HAL_PWREx_EnableGPIOPullUp:0000000000000012 $t
     /tmp/ccmTrwWQ.s:623    .text.HAL_PWREx_DisableGPIOPullUp:0000000000000011 $d
     /tmp/ccmTrwWQ.s:623    .text.HAL_PWREx_DisableGPIOPullUp:0000000000000012 $t
     /tmp/ccmTrwWQ.s:787    .text.HAL_PWREx_EnableGPIOPullDown:0000000000000011 $d
     /tmp/ccmTrwWQ.s:787    .text.HAL_PWREx_EnableGPIOPullDown:0000000000000012 $t
     /tmp/ccmTrwWQ.s:991    .text.HAL_PWREx_DisableGPIOPullDown:0000000000000011 $d
     /tmp/ccmTrwWQ.s:991    .text.HAL_PWREx_DisableGPIOPullDown:0000000000000012 $t

UNDEFINED SYMBOLS
SystemCoreClock
HAL_PWR_PVDCallback
