ARM GAS  /tmp/cc0G2d02.s 			page 1


   1              		.cpu cortex-m4
   2              		.eabi_attribute 27, 1
   3              		.eabi_attribute 28, 1
   4              		.eabi_attribute 20, 1
   5              		.eabi_attribute 21, 1
   6              		.eabi_attribute 23, 3
   7              		.eabi_attribute 24, 1
   8              		.eabi_attribute 25, 1
   9              		.eabi_attribute 26, 1
  10              		.eabi_attribute 30, 1
  11              		.eabi_attribute 34, 1
  12              		.eabi_attribute 18, 4
  13              		.file	"sht31.c"
  14              		.text
  15              	.Ltext0:
  16              		.cfi_sections	.debug_frame
  17              		.section	.text.setI2CInterface_SHT31,"ax",%progbits
  18              		.align	1
  19              		.global	setI2CInterface_SHT31
  20              		.syntax unified
  21              		.thumb
  22              		.thumb_func
  23              		.fpu fpv4-sp-d16
  25              	setI2CInterface_SHT31:
  26              	.LFB124:
  27              		.file 1 "../../core/drivers/SHT31/src/sht31.c"
   1:../../core/drivers/SHT31/src/sht31.c **** /*
   2:../../core/drivers/SHT31/src/sht31.c ****  * sht31.c
   3:../../core/drivers/SHT31/src/sht31.c ****  *
   4:../../core/drivers/SHT31/src/sht31.c ****  *  Created on: 7 Mar 2018
   5:../../core/drivers/SHT31/src/sht31.c ****  *      Author: Fifth
   6:../../core/drivers/SHT31/src/sht31.c ****  */
   7:../../core/drivers/SHT31/src/sht31.c **** 
   8:../../core/drivers/SHT31/src/sht31.c **** #include "sht31.h"
   9:../../core/drivers/SHT31/src/sht31.c **** 
  10:../../core/drivers/SHT31/src/sht31.c **** #include <stdio.h>
  11:../../core/drivers/SHT31/src/sht31.c **** #include <math.h>
  12:../../core/drivers/SHT31/src/sht31.c **** #define SHT31_DEFAULT_ADDR    0x44
  13:../../core/drivers/SHT31/src/sht31.c **** 
  14:../../core/drivers/SHT31/src/sht31.c **** void setI2CInterface_SHT31(I2C_HandleTypeDef *hi2c)
  15:../../core/drivers/SHT31/src/sht31.c **** {
  28              		.loc 1 15 0
  29              		.cfi_startproc
  30              		@ args = 0, pretend = 0, frame = 0
  31              		@ frame_needed = 0, uses_anonymous_args = 0
  32              		@ link register save eliminated.
  33              	.LVL0:
  16:../../core/drivers/SHT31/src/sht31.c **** 	SHThi2cLib=hi2c;
  34              		.loc 1 16 0
  35 0000 014B     		ldr	r3, .L2
  36 0002 1860     		str	r0, [r3]
  37 0004 7047     		bx	lr
  38              	.L3:
  39 0006 00BF     		.align	2
  40              	.L2:
  41 0008 00000000 		.word	SHThi2cLib
  42              		.cfi_endproc
ARM GAS  /tmp/cc0G2d02.s 			page 2


  43              	.LFE124:
  45              		.section	.text.WRITE_REGISTER_SHT31,"ax",%progbits
  46              		.align	1
  47              		.global	WRITE_REGISTER_SHT31
  48              		.syntax unified
  49              		.thumb
  50              		.thumb_func
  51              		.fpu fpv4-sp-d16
  53              	WRITE_REGISTER_SHT31:
  54              	.LFB125:
  17:../../core/drivers/SHT31/src/sht31.c **** }
  18:../../core/drivers/SHT31/src/sht31.c **** uint8_t WRITE_REGISTER_SHT31(uint8_t pData[],uint8_t length)
  19:../../core/drivers/SHT31/src/sht31.c **** {
  55              		.loc 1 19 0
  56              		.cfi_startproc
  57              		@ args = 0, pretend = 0, frame = 0
  58              		@ frame_needed = 0, uses_anonymous_args = 0
  59              	.LVL1:
  60 0000 10B5     		push	{r4, lr}
  61              	.LCFI0:
  62              		.cfi_def_cfa_offset 8
  63              		.cfi_offset 4, -8
  64              		.cfi_offset 14, -4
  65 0002 82B0     		sub	sp, sp, #8
  66              	.LCFI1:
  67              		.cfi_def_cfa_offset 16
  20:../../core/drivers/SHT31/src/sht31.c **** 	uint8_t status=HAL_I2C_Master_Transmit(SHThi2cLib, SHT31_DEFAULT_ADDR<<1, pData,length, HAL_MAX_DE
  68              		.loc 1 20 0
  69 0004 064B     		ldr	r3, .L6
  70 0006 1C68     		ldr	r4, [r3]
  71 0008 4FF0FF33 		mov	r3, #-1
  72 000c 0093     		str	r3, [sp]
  73 000e 0B46     		mov	r3, r1
  74 0010 0246     		mov	r2, r0
  75 0012 8821     		movs	r1, #136
  76              	.LVL2:
  77 0014 2046     		mov	r0, r4
  78              	.LVL3:
  79 0016 FFF7FEFF 		bl	HAL_I2C_Master_Transmit
  80              	.LVL4:
  21:../../core/drivers/SHT31/src/sht31.c **** 	return status;
  22:../../core/drivers/SHT31/src/sht31.c **** }
  81              		.loc 1 22 0
  82 001a 02B0     		add	sp, sp, #8
  83              	.LCFI2:
  84              		.cfi_def_cfa_offset 8
  85              		@ sp needed
  86 001c 10BD     		pop	{r4, pc}
  87              	.L7:
  88 001e 00BF     		.align	2
  89              	.L6:
  90 0020 00000000 		.word	SHThi2cLib
  91              		.cfi_endproc
  92              	.LFE125:
  94              		.section	.text.READ_REGISTER_SHT31,"ax",%progbits
  95              		.align	1
  96              		.global	READ_REGISTER_SHT31
ARM GAS  /tmp/cc0G2d02.s 			page 3


  97              		.syntax unified
  98              		.thumb
  99              		.thumb_func
 100              		.fpu fpv4-sp-d16
 102              	READ_REGISTER_SHT31:
 103              	.LFB126:
  23:../../core/drivers/SHT31/src/sht31.c **** uint8_t READ_REGISTER_SHT31(uint8_t buf[],uint16_t reg,uint8_t length)
  24:../../core/drivers/SHT31/src/sht31.c **** {
 104              		.loc 1 24 0
 105              		.cfi_startproc
 106              		@ args = 0, pretend = 0, frame = 0
 107              		@ frame_needed = 0, uses_anonymous_args = 0
 108              	.LVL5:
 109 0000 10B5     		push	{r4, lr}
 110              	.LCFI3:
 111              		.cfi_def_cfa_offset 8
 112              		.cfi_offset 4, -8
 113              		.cfi_offset 14, -4
 114 0002 84B0     		sub	sp, sp, #16
 115              	.LCFI4:
 116              		.cfi_def_cfa_offset 24
  25:../../core/drivers/SHT31/src/sht31.c **** 	uint8_t status = HAL_I2C_Mem_Read(SHThi2cLib, SHT31_DEFAULT_ADDR<<1, reg, I2C_MEMADD_SIZE_8BIT, bu
 117              		.loc 1 25 0
 118 0004 074B     		ldr	r3, .L10
 119 0006 1C68     		ldr	r4, [r3]
 120 0008 4FF0FF33 		mov	r3, #-1
 121 000c 0293     		str	r3, [sp, #8]
 122 000e 0192     		str	r2, [sp, #4]
 123 0010 0090     		str	r0, [sp]
 124 0012 0123     		movs	r3, #1
 125 0014 0A46     		mov	r2, r1
 126              	.LVL6:
 127 0016 8821     		movs	r1, #136
 128              	.LVL7:
 129 0018 2046     		mov	r0, r4
 130              	.LVL8:
 131 001a FFF7FEFF 		bl	HAL_I2C_Mem_Read
 132              	.LVL9:
  26:../../core/drivers/SHT31/src/sht31.c **** 	return status;
  27:../../core/drivers/SHT31/src/sht31.c **** }
 133              		.loc 1 27 0
 134 001e 04B0     		add	sp, sp, #16
 135              	.LCFI5:
 136              		.cfi_def_cfa_offset 8
 137              		@ sp needed
 138 0020 10BD     		pop	{r4, pc}
 139              	.L11:
 140 0022 00BF     		.align	2
 141              	.L10:
 142 0024 00000000 		.word	SHThi2cLib
 143              		.cfi_endproc
 144              	.LFE126:
 146              		.section	.text.READ_REG_SHT31,"ax",%progbits
 147              		.align	1
 148              		.global	READ_REG_SHT31
 149              		.syntax unified
 150              		.thumb
ARM GAS  /tmp/cc0G2d02.s 			page 4


 151              		.thumb_func
 152              		.fpu fpv4-sp-d16
 154              	READ_REG_SHT31:
 155              	.LFB127:
  28:../../core/drivers/SHT31/src/sht31.c **** uint8_t READ_REG_SHT31(uint8_t buf[],uint8_t length)
  29:../../core/drivers/SHT31/src/sht31.c **** {
 156              		.loc 1 29 0
 157              		.cfi_startproc
 158              		@ args = 0, pretend = 0, frame = 0
 159              		@ frame_needed = 0, uses_anonymous_args = 0
 160              	.LVL10:
 161 0000 10B5     		push	{r4, lr}
 162              	.LCFI6:
 163              		.cfi_def_cfa_offset 8
 164              		.cfi_offset 4, -8
 165              		.cfi_offset 14, -4
 166 0002 82B0     		sub	sp, sp, #8
 167              	.LCFI7:
 168              		.cfi_def_cfa_offset 16
  30:../../core/drivers/SHT31/src/sht31.c **** 	uint8_t status= HAL_I2C_Master_Receive(SHThi2cLib, SHT31_DEFAULT_ADDR<<1, buf, length, HAL_MAX_DEL
 169              		.loc 1 30 0
 170 0004 064B     		ldr	r3, .L14
 171 0006 1C68     		ldr	r4, [r3]
 172 0008 4FF0FF33 		mov	r3, #-1
 173 000c 0093     		str	r3, [sp]
 174 000e 0B46     		mov	r3, r1
 175 0010 0246     		mov	r2, r0
 176 0012 8821     		movs	r1, #136
 177              	.LVL11:
 178 0014 2046     		mov	r0, r4
 179              	.LVL12:
 180 0016 FFF7FEFF 		bl	HAL_I2C_Master_Receive
 181              	.LVL13:
  31:../../core/drivers/SHT31/src/sht31.c **** return status;
  32:../../core/drivers/SHT31/src/sht31.c **** }
 182              		.loc 1 32 0
 183 001a 02B0     		add	sp, sp, #8
 184              	.LCFI8:
 185              		.cfi_def_cfa_offset 8
 186              		@ sp needed
 187 001c 10BD     		pop	{r4, pc}
 188              	.L15:
 189 001e 00BF     		.align	2
 190              	.L14:
 191 0020 00000000 		.word	SHThi2cLib
 192              		.cfi_endproc
 193              	.LFE127:
 195              		.section	.text.writeCommand,"ax",%progbits
 196              		.align	1
 197              		.global	writeCommand
 198              		.syntax unified
 199              		.thumb
 200              		.thumb_func
 201              		.fpu fpv4-sp-d16
 203              	writeCommand:
 204              	.LFB130:
  33:../../core/drivers/SHT31/src/sht31.c **** 
ARM GAS  /tmp/cc0G2d02.s 			page 5


  34:../../core/drivers/SHT31/src/sht31.c **** uint8_t  SHT31_begin() {
  35:../../core/drivers/SHT31/src/sht31.c **** 	SHT31_reset();
  36:../../core/drivers/SHT31/src/sht31.c ****   //return (readStatus() == 0x40);
  37:../../core/drivers/SHT31/src/sht31.c ****   return 1;
  38:../../core/drivers/SHT31/src/sht31.c **** }
  39:../../core/drivers/SHT31/src/sht31.c **** void SHT31_get_temp_hum(float* sht31Data)
  40:../../core/drivers/SHT31/src/sht31.c **** {
  41:../../core/drivers/SHT31/src/sht31.c **** 	readTempHum();
  42:../../core/drivers/SHT31/src/sht31.c **** 	sht31Data[1]= humidity;
  43:../../core/drivers/SHT31/src/sht31.c **** 	sht31Data[0]= temp;
  44:../../core/drivers/SHT31/src/sht31.c **** }
  45:../../core/drivers/SHT31/src/sht31.c **** void  writeCommand(uint16_t cmd) {
 205              		.loc 1 45 0
 206              		.cfi_startproc
 207              		@ args = 0, pretend = 0, frame = 8
 208              		@ frame_needed = 0, uses_anonymous_args = 0
 209              	.LVL14:
 210 0000 00B5     		push	{lr}
 211              	.LCFI9:
 212              		.cfi_def_cfa_offset 4
 213              		.cfi_offset 14, -4
 214 0002 83B0     		sub	sp, sp, #12
 215              	.LCFI10:
 216              		.cfi_def_cfa_offset 16
  46:../../core/drivers/SHT31/src/sht31.c **** 	uint8_t pData[2];
  47:../../core/drivers/SHT31/src/sht31.c **** 	pData[0]=cmd >> 8;
 217              		.loc 1 47 0
 218 0004 030A     		lsrs	r3, r0, #8
 219 0006 8DF80430 		strb	r3, [sp, #4]
  48:../../core/drivers/SHT31/src/sht31.c **** 	pData[1]=cmd & 0xFF;
 220              		.loc 1 48 0
 221 000a 8DF80500 		strb	r0, [sp, #5]
  49:../../core/drivers/SHT31/src/sht31.c **** 	WRITE_REGISTER_SHT31(pData,2);
 222              		.loc 1 49 0
 223 000e 0221     		movs	r1, #2
 224 0010 01A8     		add	r0, sp, #4
 225              	.LVL15:
 226 0012 FFF7FEFF 		bl	WRITE_REGISTER_SHT31
 227              	.LVL16:
  50:../../core/drivers/SHT31/src/sht31.c **** 
  51:../../core/drivers/SHT31/src/sht31.c **** }
 228              		.loc 1 51 0
 229 0016 03B0     		add	sp, sp, #12
 230              	.LCFI11:
 231              		.cfi_def_cfa_offset 4
 232              		@ sp needed
 233 0018 5DF804FB 		ldr	pc, [sp], #4
 234              		.cfi_endproc
 235              	.LFE130:
 237              		.section	.text.readStatus,"ax",%progbits
 238              		.align	1
 239              		.global	readStatus
 240              		.syntax unified
 241              		.thumb
 242              		.thumb_func
 243              		.fpu fpv4-sp-d16
 245              	readStatus:
ARM GAS  /tmp/cc0G2d02.s 			page 6


 246              	.LFB131:
  52:../../core/drivers/SHT31/src/sht31.c **** 
  53:../../core/drivers/SHT31/src/sht31.c **** uint16_t  readStatus(void) {
 247              		.loc 1 53 0
 248              		.cfi_startproc
 249              		@ args = 0, pretend = 0, frame = 8
 250              		@ frame_needed = 0, uses_anonymous_args = 0
 251 0000 00B5     		push	{lr}
 252              	.LCFI12:
 253              		.cfi_def_cfa_offset 4
 254              		.cfi_offset 14, -4
 255 0002 83B0     		sub	sp, sp, #12
 256              	.LCFI13:
 257              		.cfi_def_cfa_offset 16
  54:../../core/drivers/SHT31/src/sht31.c **** 	uint8_t stat[2];
  55:../../core/drivers/SHT31/src/sht31.c **** 	writeCommand(0xF32D);
 258              		.loc 1 55 0
 259 0004 4FF22D30 		movw	r0, #62253
 260 0008 FFF7FEFF 		bl	writeCommand
 261              	.LVL17:
  56:../../core/drivers/SHT31/src/sht31.c **** 	HAL_Delay(10);
 262              		.loc 1 56 0
 263 000c 0A20     		movs	r0, #10
 264 000e FFF7FEFF 		bl	HAL_Delay
 265              	.LVL18:
  57:../../core/drivers/SHT31/src/sht31.c **** 	READ_REG_SHT31(stat,3);
 266              		.loc 1 57 0
 267 0012 0321     		movs	r1, #3
 268 0014 01A8     		add	r0, sp, #4
 269 0016 FFF7FEFF 		bl	READ_REG_SHT31
 270              	.LVL19:
  58:../../core/drivers/SHT31/src/sht31.c **** 	uint16_t stat2=(stat[0]<<8)|stat[1];
 271              		.loc 1 58 0
 272 001a 9DF80400 		ldrb	r0, [sp, #4]	@ zero_extendqisi2
 273 001e 9DF80530 		ldrb	r3, [sp, #5]	@ zero_extendqisi2
 274              	.LVL20:
  59:../../core/drivers/SHT31/src/sht31.c **** 	return stat2;
  60:../../core/drivers/SHT31/src/sht31.c **** }
 275              		.loc 1 60 0
 276 0022 43EA0020 		orr	r0, r3, r0, lsl #8
 277              	.LVL21:
 278 0026 03B0     		add	sp, sp, #12
 279              	.LCFI14:
 280              		.cfi_def_cfa_offset 4
 281              		@ sp needed
 282 0028 5DF804FB 		ldr	pc, [sp], #4
 283              		.cfi_endproc
 284              	.LFE131:
 286              		.section	.text.SHT31_reset,"ax",%progbits
 287              		.align	1
 288              		.global	SHT31_reset
 289              		.syntax unified
 290              		.thumb
 291              		.thumb_func
 292              		.fpu fpv4-sp-d16
 294              	SHT31_reset:
 295              	.LFB132:
ARM GAS  /tmp/cc0G2d02.s 			page 7


  61:../../core/drivers/SHT31/src/sht31.c **** 
  62:../../core/drivers/SHT31/src/sht31.c **** void  SHT31_reset(void) {
 296              		.loc 1 62 0
 297              		.cfi_startproc
 298              		@ args = 0, pretend = 0, frame = 0
 299              		@ frame_needed = 0, uses_anonymous_args = 0
 300 0000 08B5     		push	{r3, lr}
 301              	.LCFI15:
 302              		.cfi_def_cfa_offset 8
 303              		.cfi_offset 3, -8
 304              		.cfi_offset 14, -4
  63:../../core/drivers/SHT31/src/sht31.c ****   writeCommand(SHT31_SOFTRESET);
 305              		.loc 1 63 0
 306 0002 43F2A200 		movw	r0, #12450
 307 0006 FFF7FEFF 		bl	writeCommand
 308              	.LVL22:
 309 000a 08BD     		pop	{r3, pc}
 310              		.cfi_endproc
 311              	.LFE132:
 313              		.section	.text.SHT31_begin,"ax",%progbits
 314              		.align	1
 315              		.global	SHT31_begin
 316              		.syntax unified
 317              		.thumb
 318              		.thumb_func
 319              		.fpu fpv4-sp-d16
 321              	SHT31_begin:
 322              	.LFB128:
  34:../../core/drivers/SHT31/src/sht31.c **** 	SHT31_reset();
 323              		.loc 1 34 0
 324              		.cfi_startproc
 325              		@ args = 0, pretend = 0, frame = 0
 326              		@ frame_needed = 0, uses_anonymous_args = 0
 327 0000 08B5     		push	{r3, lr}
 328              	.LCFI16:
 329              		.cfi_def_cfa_offset 8
 330              		.cfi_offset 3, -8
 331              		.cfi_offset 14, -4
  35:../../core/drivers/SHT31/src/sht31.c ****   //return (readStatus() == 0x40);
 332              		.loc 1 35 0
 333 0002 FFF7FEFF 		bl	SHT31_reset
 334              	.LVL23:
  38:../../core/drivers/SHT31/src/sht31.c **** void SHT31_get_temp_hum(float* sht31Data)
 335              		.loc 1 38 0
 336 0006 0120     		movs	r0, #1
 337 0008 08BD     		pop	{r3, pc}
 338              		.cfi_endproc
 339              	.LFE128:
 341              		.section	.text.heater,"ax",%progbits
 342              		.align	1
 343              		.global	heater
 344              		.syntax unified
 345              		.thumb
 346              		.thumb_func
 347              		.fpu fpv4-sp-d16
 349              	heater:
 350              	.LFB133:
ARM GAS  /tmp/cc0G2d02.s 			page 8


  64:../../core/drivers/SHT31/src/sht31.c **** }
  65:../../core/drivers/SHT31/src/sht31.c **** 
  66:../../core/drivers/SHT31/src/sht31.c **** void  heater(uint8_t h) {
 351              		.loc 1 66 0
 352              		.cfi_startproc
 353              		@ args = 0, pretend = 0, frame = 0
 354              		@ frame_needed = 0, uses_anonymous_args = 0
 355              	.LVL24:
 356 0000 08B5     		push	{r3, lr}
 357              	.LCFI17:
 358              		.cfi_def_cfa_offset 8
 359              		.cfi_offset 3, -8
 360              		.cfi_offset 14, -4
  67:../../core/drivers/SHT31/src/sht31.c ****   if (h)
 361              		.loc 1 67 0
 362 0002 20B9     		cbnz	r0, .L28
  68:../../core/drivers/SHT31/src/sht31.c ****     writeCommand(SHT31_HEATEREN);
  69:../../core/drivers/SHT31/src/sht31.c ****   else
  70:../../core/drivers/SHT31/src/sht31.c ****     writeCommand(SHT31_HEATERDIS);
 363              		.loc 1 70 0
 364 0004 43F26600 		movw	r0, #12390
 365              	.LVL25:
 366 0008 FFF7FEFF 		bl	writeCommand
 367              	.LVL26:
 368 000c 08BD     		pop	{r3, pc}
 369              	.LVL27:
 370              	.L28:
  68:../../core/drivers/SHT31/src/sht31.c ****     writeCommand(SHT31_HEATEREN);
 371              		.loc 1 68 0
 372 000e 43F26D00 		movw	r0, #12397
 373              	.LVL28:
 374 0012 FFF7FEFF 		bl	writeCommand
 375              	.LVL29:
 376 0016 08BD     		pop	{r3, pc}
 377              		.cfi_endproc
 378              	.LFE133:
 380              		.global	__aeabi_ui2d
 381              		.global	__aeabi_dmul
 382              		.global	__aeabi_ddiv
 383              		.global	__aeabi_dsub
 384              		.global	__aeabi_d2f
 385              		.section	.text.readTempHum,"ax",%progbits
 386              		.align	1
 387              		.global	readTempHum
 388              		.syntax unified
 389              		.thumb
 390              		.thumb_func
 391              		.fpu fpv4-sp-d16
 393              	readTempHum:
 394              	.LFB136:
  71:../../core/drivers/SHT31/src/sht31.c **** }
  72:../../core/drivers/SHT31/src/sht31.c **** 
  73:../../core/drivers/SHT31/src/sht31.c **** 
  74:../../core/drivers/SHT31/src/sht31.c **** float  readTemperature(void) {
  75:../../core/drivers/SHT31/src/sht31.c ****   if (! readTempHum()) return 0;
  76:../../core/drivers/SHT31/src/sht31.c **** 
  77:../../core/drivers/SHT31/src/sht31.c ****   return temp;
ARM GAS  /tmp/cc0G2d02.s 			page 9


  78:../../core/drivers/SHT31/src/sht31.c **** }
  79:../../core/drivers/SHT31/src/sht31.c **** 
  80:../../core/drivers/SHT31/src/sht31.c **** 
  81:../../core/drivers/SHT31/src/sht31.c **** float  readHumidity(void) {
  82:../../core/drivers/SHT31/src/sht31.c ****   if (! readTempHum()) return 0;
  83:../../core/drivers/SHT31/src/sht31.c **** 
  84:../../core/drivers/SHT31/src/sht31.c ****   return humidity;
  85:../../core/drivers/SHT31/src/sht31.c **** }
  86:../../core/drivers/SHT31/src/sht31.c **** 
  87:../../core/drivers/SHT31/src/sht31.c **** 
  88:../../core/drivers/SHT31/src/sht31.c **** uint8_t  readTempHum(void)
  89:../../core/drivers/SHT31/src/sht31.c **** {
 395              		.loc 1 89 0
 396              		.cfi_startproc
 397              		@ args = 0, pretend = 0, frame = 8
 398              		@ frame_needed = 0, uses_anonymous_args = 0
 399 0000 10B5     		push	{r4, lr}
 400              	.LCFI18:
 401              		.cfi_def_cfa_offset 8
 402              		.cfi_offset 4, -8
 403              		.cfi_offset 14, -4
 404 0002 82B0     		sub	sp, sp, #8
 405              	.LCFI19:
 406              		.cfi_def_cfa_offset 16
  90:../../core/drivers/SHT31/src/sht31.c ****   uint8_t readbuffer[6];
  91:../../core/drivers/SHT31/src/sht31.c **** 
  92:../../core/drivers/SHT31/src/sht31.c ****   writeCommand(SHT31_MEAS_HIGHREP);
 407              		.loc 1 92 0
 408 0004 4FF41050 		mov	r0, #9216
 409 0008 FFF7FEFF 		bl	writeCommand
 410              	.LVL30:
  93:../../core/drivers/SHT31/src/sht31.c ****   HAL_Delay(50);
 411              		.loc 1 93 0
 412 000c 3220     		movs	r0, #50
 413 000e FFF7FEFF 		bl	HAL_Delay
 414              	.LVL31:
  94:../../core/drivers/SHT31/src/sht31.c ****   READ_REG_SHT31(readbuffer,6);
 415              		.loc 1 94 0
 416 0012 0621     		movs	r1, #6
 417 0014 6846     		mov	r0, sp
 418 0016 FFF7FEFF 		bl	READ_REG_SHT31
 419              	.LVL32:
  95:../../core/drivers/SHT31/src/sht31.c **** 
  96:../../core/drivers/SHT31/src/sht31.c **** 
  97:../../core/drivers/SHT31/src/sht31.c ****   uint16_t ST, SRH;
  98:../../core/drivers/SHT31/src/sht31.c ****   ST = readbuffer[0];
 420              		.loc 1 98 0
 421 001a 9DF80000 		ldrb	r0, [sp]	@ zero_extendqisi2
 422              	.LVL33:
  99:../../core/drivers/SHT31/src/sht31.c ****   ST <<= 8;
 100:../../core/drivers/SHT31/src/sht31.c ****   ST |= readbuffer[1];
 423              		.loc 1 100 0
 424 001e 9DF80130 		ldrb	r3, [sp, #1]	@ zero_extendqisi2
 425              	.LVL34:
 101:../../core/drivers/SHT31/src/sht31.c **** 
 102:../../core/drivers/SHT31/src/sht31.c **** 
 103:../../core/drivers/SHT31/src/sht31.c **** 
ARM GAS  /tmp/cc0G2d02.s 			page 10


 104:../../core/drivers/SHT31/src/sht31.c ****   SRH = readbuffer[3];
 426              		.loc 1 104 0
 427 0022 9DF80320 		ldrb	r2, [sp, #3]	@ zero_extendqisi2
 428              	.LVL35:
 105:../../core/drivers/SHT31/src/sht31.c ****   SRH <<= 8;
 106:../../core/drivers/SHT31/src/sht31.c ****   SRH |= readbuffer[4];
 429              		.loc 1 106 0
 430 0026 9DF80440 		ldrb	r4, [sp, #4]	@ zero_extendqisi2
 431 002a 44EA0224 		orr	r4, r4, r2, lsl #8
 432              	.LVL36:
 107:../../core/drivers/SHT31/src/sht31.c **** 
 108:../../core/drivers/SHT31/src/sht31.c **** 
 109:../../core/drivers/SHT31/src/sht31.c **** 
 110:../../core/drivers/SHT31/src/sht31.c ****  // Serial.print("ST = "); Serial.println(ST);
 111:../../core/drivers/SHT31/src/sht31.c ****   double stemp = ST;
 433              		.loc 1 111 0
 434 002e 43EA0020 		orr	r0, r3, r0, lsl #8
 435              	.LVL37:
 436 0032 FFF7FEFF 		bl	__aeabi_ui2d
 437              	.LVL38:
 112:../../core/drivers/SHT31/src/sht31.c ****   stemp *= 175;
 438              		.loc 1 112 0
 439 0036 18A3     		adr	r3, .L31+24
 440 0038 D3E90023 		ldrd	r2, [r3]
 441 003c FFF7FEFF 		bl	__aeabi_dmul
 442              	.LVL39:
 113:../../core/drivers/SHT31/src/sht31.c ****   stemp /= 0xffff;
 443              		.loc 1 113 0
 444 0040 0FA3     		adr	r3, .L31
 445 0042 D3E90023 		ldrd	r2, [r3]
 446 0046 FFF7FEFF 		bl	__aeabi_ddiv
 447              	.LVL40:
 114:../../core/drivers/SHT31/src/sht31.c ****   stemp = -45 + stemp;
 448              		.loc 1 114 0
 449 004a 0022     		movs	r2, #0
 450 004c 0E4B     		ldr	r3, .L31+8
 451 004e FFF7FEFF 		bl	__aeabi_dsub
 452              	.LVL41:
 115:../../core/drivers/SHT31/src/sht31.c ****   temp = stemp;
 453              		.loc 1 115 0
 454 0052 FFF7FEFF 		bl	__aeabi_d2f
 455              	.LVL42:
 456 0056 0D4B     		ldr	r3, .L31+12
 457 0058 1860     		str	r0, [r3]	@ float
 116:../../core/drivers/SHT31/src/sht31.c **** 
 117:../../core/drivers/SHT31/src/sht31.c **** //  Serial.print("SRH = "); Serial.println(SRH);
 118:../../core/drivers/SHT31/src/sht31.c ****   double shum = SRH;
 458              		.loc 1 118 0
 459 005a 2046     		mov	r0, r4
 460 005c FFF7FEFF 		bl	__aeabi_ui2d
 461              	.LVL43:
 119:../../core/drivers/SHT31/src/sht31.c ****   shum *= 100;
 462              		.loc 1 119 0
 463 0060 0022     		movs	r2, #0
 464 0062 0B4B     		ldr	r3, .L31+16
 465 0064 FFF7FEFF 		bl	__aeabi_dmul
 466              	.LVL44:
ARM GAS  /tmp/cc0G2d02.s 			page 11


 120:../../core/drivers/SHT31/src/sht31.c ****   shum /= 0xFFFF;
 467              		.loc 1 120 0
 468 0068 05A3     		adr	r3, .L31
 469 006a D3E90023 		ldrd	r2, [r3]
 470 006e FFF7FEFF 		bl	__aeabi_ddiv
 471              	.LVL45:
 121:../../core/drivers/SHT31/src/sht31.c **** 
 122:../../core/drivers/SHT31/src/sht31.c ****   humidity = shum;
 472              		.loc 1 122 0
 473 0072 FFF7FEFF 		bl	__aeabi_d2f
 474              	.LVL46:
 475 0076 074B     		ldr	r3, .L31+20
 476 0078 1860     		str	r0, [r3]	@ float
 123:../../core/drivers/SHT31/src/sht31.c **** 
 124:../../core/drivers/SHT31/src/sht31.c ****   return 1;
 125:../../core/drivers/SHT31/src/sht31.c **** }
 477              		.loc 1 125 0
 478 007a 0120     		movs	r0, #1
 479 007c 02B0     		add	sp, sp, #8
 480              	.LCFI20:
 481              		.cfi_def_cfa_offset 8
 482              		@ sp needed
 483 007e 10BD     		pop	{r4, pc}
 484              	.LVL47:
 485              	.L32:
 486              		.align	3
 487              	.L31:
 488 0080 00000000 		.word	0
 489 0084 E0FFEF40 		.word	1089470432
 490 0088 00804640 		.word	1078362112
 491 008c 00000000 		.word	temp
 492 0090 00005940 		.word	1079574528
 493 0094 00000000 		.word	humidity
 494 0098 00000000 		.word	0
 495 009c 00E06540 		.word	1080418304
 496              		.cfi_endproc
 497              	.LFE136:
 499              		.section	.text.SHT31_get_temp_hum,"ax",%progbits
 500              		.align	1
 501              		.global	SHT31_get_temp_hum
 502              		.syntax unified
 503              		.thumb
 504              		.thumb_func
 505              		.fpu fpv4-sp-d16
 507              	SHT31_get_temp_hum:
 508              	.LFB129:
  40:../../core/drivers/SHT31/src/sht31.c **** 	readTempHum();
 509              		.loc 1 40 0
 510              		.cfi_startproc
 511              		@ args = 0, pretend = 0, frame = 0
 512              		@ frame_needed = 0, uses_anonymous_args = 0
 513              	.LVL48:
 514 0000 10B5     		push	{r4, lr}
 515              	.LCFI21:
 516              		.cfi_def_cfa_offset 8
 517              		.cfi_offset 4, -8
 518              		.cfi_offset 14, -4
ARM GAS  /tmp/cc0G2d02.s 			page 12


 519 0002 0446     		mov	r4, r0
  41:../../core/drivers/SHT31/src/sht31.c **** 	sht31Data[1]= humidity;
 520              		.loc 1 41 0
 521 0004 FFF7FEFF 		bl	readTempHum
 522              	.LVL49:
  42:../../core/drivers/SHT31/src/sht31.c **** 	sht31Data[0]= temp;
 523              		.loc 1 42 0
 524 0008 034B     		ldr	r3, .L35
 525 000a 1B68     		ldr	r3, [r3]	@ float
 526 000c 6360     		str	r3, [r4, #4]	@ float
  43:../../core/drivers/SHT31/src/sht31.c **** }
 527              		.loc 1 43 0
 528 000e 034B     		ldr	r3, .L35+4
 529 0010 1B68     		ldr	r3, [r3]	@ float
 530 0012 2360     		str	r3, [r4]	@ float
 531 0014 10BD     		pop	{r4, pc}
 532              	.LVL50:
 533              	.L36:
 534 0016 00BF     		.align	2
 535              	.L35:
 536 0018 00000000 		.word	humidity
 537 001c 00000000 		.word	temp
 538              		.cfi_endproc
 539              	.LFE129:
 541              		.section	.text.readTemperature,"ax",%progbits
 542              		.align	1
 543              		.global	readTemperature
 544              		.syntax unified
 545              		.thumb
 546              		.thumb_func
 547              		.fpu fpv4-sp-d16
 549              	readTemperature:
 550              	.LFB134:
  74:../../core/drivers/SHT31/src/sht31.c ****   if (! readTempHum()) return 0;
 551              		.loc 1 74 0
 552              		.cfi_startproc
 553              		@ args = 0, pretend = 0, frame = 0
 554              		@ frame_needed = 0, uses_anonymous_args = 0
 555 0000 08B5     		push	{r3, lr}
 556              	.LCFI22:
 557              		.cfi_def_cfa_offset 8
 558              		.cfi_offset 3, -8
 559              		.cfi_offset 14, -4
  75:../../core/drivers/SHT31/src/sht31.c **** 
 560              		.loc 1 75 0
 561 0002 FFF7FEFF 		bl	readTempHum
 562              	.LVL51:
 563 0006 18B1     		cbz	r0, .L39
  77:../../core/drivers/SHT31/src/sht31.c **** }
 564              		.loc 1 77 0
 565 0008 034B     		ldr	r3, .L41
 566 000a 93ED000A 		vldr.32	s0, [r3]
 567 000e 08BD     		pop	{r3, pc}
 568              	.L39:
  75:../../core/drivers/SHT31/src/sht31.c **** 
 569              		.loc 1 75 0
 570 0010 9FED020A 		vldr.32	s0, .L41+4
ARM GAS  /tmp/cc0G2d02.s 			page 13


  78:../../core/drivers/SHT31/src/sht31.c **** 
 571              		.loc 1 78 0
 572 0014 08BD     		pop	{r3, pc}
 573              	.L42:
 574 0016 00BF     		.align	2
 575              	.L41:
 576 0018 00000000 		.word	temp
 577 001c 00000000 		.word	0
 578              		.cfi_endproc
 579              	.LFE134:
 581              		.section	.text.readHumidity,"ax",%progbits
 582              		.align	1
 583              		.global	readHumidity
 584              		.syntax unified
 585              		.thumb
 586              		.thumb_func
 587              		.fpu fpv4-sp-d16
 589              	readHumidity:
 590              	.LFB135:
  81:../../core/drivers/SHT31/src/sht31.c ****   if (! readTempHum()) return 0;
 591              		.loc 1 81 0
 592              		.cfi_startproc
 593              		@ args = 0, pretend = 0, frame = 0
 594              		@ frame_needed = 0, uses_anonymous_args = 0
 595 0000 08B5     		push	{r3, lr}
 596              	.LCFI23:
 597              		.cfi_def_cfa_offset 8
 598              		.cfi_offset 3, -8
 599              		.cfi_offset 14, -4
  82:../../core/drivers/SHT31/src/sht31.c **** 
 600              		.loc 1 82 0
 601 0002 FFF7FEFF 		bl	readTempHum
 602              	.LVL52:
 603 0006 18B1     		cbz	r0, .L45
  84:../../core/drivers/SHT31/src/sht31.c **** }
 604              		.loc 1 84 0
 605 0008 034B     		ldr	r3, .L47
 606 000a 93ED000A 		vldr.32	s0, [r3]
 607 000e 08BD     		pop	{r3, pc}
 608              	.L45:
  82:../../core/drivers/SHT31/src/sht31.c **** 
 609              		.loc 1 82 0
 610 0010 9FED020A 		vldr.32	s0, .L47+4
  85:../../core/drivers/SHT31/src/sht31.c **** 
 611              		.loc 1 85 0
 612 0014 08BD     		pop	{r3, pc}
 613              	.L48:
 614 0016 00BF     		.align	2
 615              	.L47:
 616 0018 00000000 		.word	humidity
 617 001c 00000000 		.word	0
 618              		.cfi_endproc
 619              	.LFE135:
 621              		.section	.text.readTempHum2,"ax",%progbits
 622              		.align	1
 623              		.global	readTempHum2
 624              		.syntax unified
ARM GAS  /tmp/cc0G2d02.s 			page 14


 625              		.thumb
 626              		.thumb_func
 627              		.fpu fpv4-sp-d16
 629              	readTempHum2:
 630              	.LFB137:
 126:../../core/drivers/SHT31/src/sht31.c **** 
 127:../../core/drivers/SHT31/src/sht31.c **** uint8_t  readTempHum2(uint16_t* sensorData)
 128:../../core/drivers/SHT31/src/sht31.c **** {
 631              		.loc 1 128 0
 632              		.cfi_startproc
 633              		@ args = 0, pretend = 0, frame = 8
 634              		@ frame_needed = 0, uses_anonymous_args = 0
 635              	.LVL53:
 636 0000 10B5     		push	{r4, lr}
 637              	.LCFI24:
 638              		.cfi_def_cfa_offset 8
 639              		.cfi_offset 4, -8
 640              		.cfi_offset 14, -4
 641 0002 82B0     		sub	sp, sp, #8
 642              	.LCFI25:
 643              		.cfi_def_cfa_offset 16
 644 0004 0446     		mov	r4, r0
 129:../../core/drivers/SHT31/src/sht31.c ****   uint8_t readbuffer[6];
 130:../../core/drivers/SHT31/src/sht31.c **** 
 131:../../core/drivers/SHT31/src/sht31.c ****   writeCommand(SHT31_MEAS_HIGHREP);
 645              		.loc 1 131 0
 646 0006 4FF41050 		mov	r0, #9216
 647              	.LVL54:
 648 000a FFF7FEFF 		bl	writeCommand
 649              	.LVL55:
 132:../../core/drivers/SHT31/src/sht31.c ****   HAL_Delay(50);
 650              		.loc 1 132 0
 651 000e 3220     		movs	r0, #50
 652 0010 FFF7FEFF 		bl	HAL_Delay
 653              	.LVL56:
 133:../../core/drivers/SHT31/src/sht31.c ****   READ_REG_SHT31(readbuffer,6);
 654              		.loc 1 133 0
 655 0014 0621     		movs	r1, #6
 656 0016 6846     		mov	r0, sp
 657 0018 FFF7FEFF 		bl	READ_REG_SHT31
 658              	.LVL57:
 134:../../core/drivers/SHT31/src/sht31.c **** 
 135:../../core/drivers/SHT31/src/sht31.c **** 
 136:../../core/drivers/SHT31/src/sht31.c ****   uint16_t ST, SRH;
 137:../../core/drivers/SHT31/src/sht31.c ****   ST = readbuffer[0];
 659              		.loc 1 137 0
 660 001c 9DF80030 		ldrb	r3, [sp]	@ zero_extendqisi2
 661              	.LVL58:
 138:../../core/drivers/SHT31/src/sht31.c ****   ST <<= 8;
 139:../../core/drivers/SHT31/src/sht31.c ****   ST |= readbuffer[1];
 662              		.loc 1 139 0
 663 0020 9DF80120 		ldrb	r2, [sp, #1]	@ zero_extendqisi2
 664 0024 42EA0322 		orr	r2, r2, r3, lsl #8
 665              	.LVL59:
 140:../../core/drivers/SHT31/src/sht31.c **** 
 141:../../core/drivers/SHT31/src/sht31.c ****   SRH = readbuffer[3];
 666              		.loc 1 141 0
ARM GAS  /tmp/cc0G2d02.s 			page 15


 667 0028 9DF80310 		ldrb	r1, [sp, #3]	@ zero_extendqisi2
 668              	.LVL60:
 142:../../core/drivers/SHT31/src/sht31.c ****   SRH <<= 8;
 143:../../core/drivers/SHT31/src/sht31.c ****   SRH |= readbuffer[4];
 669              		.loc 1 143 0
 670 002c 9DF80430 		ldrb	r3, [sp, #4]	@ zero_extendqisi2
 671 0030 43EA0123 		orr	r3, r3, r1, lsl #8
 672              	.LVL61:
 144:../../core/drivers/SHT31/src/sht31.c **** 
 145:../../core/drivers/SHT31/src/sht31.c ****   sensorData[0]=ST;
 673              		.loc 1 145 0
 674 0034 2280     		strh	r2, [r4]	@ movhi
 146:../../core/drivers/SHT31/src/sht31.c **** 
 147:../../core/drivers/SHT31/src/sht31.c ****   sensorData[1]=SRH;
 675              		.loc 1 147 0
 676 0036 6380     		strh	r3, [r4, #2]	@ movhi
 148:../../core/drivers/SHT31/src/sht31.c **** 
 149:../../core/drivers/SHT31/src/sht31.c ****   return 1;
 150:../../core/drivers/SHT31/src/sht31.c **** }
 677              		.loc 1 150 0
 678 0038 0120     		movs	r0, #1
 679 003a 02B0     		add	sp, sp, #8
 680              	.LCFI26:
 681              		.cfi_def_cfa_offset 8
 682              		@ sp needed
 683 003c 10BD     		pop	{r4, pc}
 684              		.cfi_endproc
 685              	.LFE137:
 687              		.section	.text.crc8,"ax",%progbits
 688              		.align	1
 689              		.global	crc8
 690              		.syntax unified
 691              		.thumb
 692              		.thumb_func
 693              		.fpu fpv4-sp-d16
 695              	crc8:
 696              	.LFB138:
 151:../../core/drivers/SHT31/src/sht31.c **** 
 152:../../core/drivers/SHT31/src/sht31.c **** 
 153:../../core/drivers/SHT31/src/sht31.c **** 
 154:../../core/drivers/SHT31/src/sht31.c **** uint8_t  crc8(const uint8_t *data, int len)
 155:../../core/drivers/SHT31/src/sht31.c **** {
 697              		.loc 1 155 0
 698              		.cfi_startproc
 699              		@ args = 0, pretend = 0, frame = 0
 700              		@ frame_needed = 0, uses_anonymous_args = 0
 701              		@ link register save eliminated.
 702              	.LVL62:
 156:../../core/drivers/SHT31/src/sht31.c **** /*
 157:../../core/drivers/SHT31/src/sht31.c **** *
 158:../../core/drivers/SHT31/src/sht31.c ****  * CRC-8 formula from page 14 of SHT spec pdf
 159:../../core/drivers/SHT31/src/sht31.c ****  *
 160:../../core/drivers/SHT31/src/sht31.c ****  * Test data 0xBE, 0xEF should yield 0x92
 161:../../core/drivers/SHT31/src/sht31.c ****  *
 162:../../core/drivers/SHT31/src/sht31.c ****  * Initialization data 0xFF
 163:../../core/drivers/SHT31/src/sht31.c ****  * Polynomial 0x31 (x8 + x5 +x4 +1)
 164:../../core/drivers/SHT31/src/sht31.c ****  * Final XOR 0x00
ARM GAS  /tmp/cc0G2d02.s 			page 16


 165:../../core/drivers/SHT31/src/sht31.c ****  */
 166:../../core/drivers/SHT31/src/sht31.c **** /*
 167:../../core/drivers/SHT31/src/sht31.c ****   uint8_t POLYNOMIAL(0x31);
 168:../../core/drivers/SHT31/src/sht31.c **** 
 169:../../core/drivers/SHT31/src/sht31.c ****   uint8_t crc(0xFF);
 170:../../core/drivers/SHT31/src/sht31.c **** 
 171:../../core/drivers/SHT31/src/sht31.c ****   for ( int j = len; j; --j ) {
 172:../../core/drivers/SHT31/src/sht31.c ****       crc ^= *data++;
 173:../../core/drivers/SHT31/src/sht31.c **** 
 174:../../core/drivers/SHT31/src/sht31.c ****       for ( int i = 8; i; --i ) {
 175:../../core/drivers/SHT31/src/sht31.c **** 	crc = ( crc & 0x80 )
 176:../../core/drivers/SHT31/src/sht31.c **** 	  ? (crc << 1) ^ POLYNOMIAL
 177:../../core/drivers/SHT31/src/sht31.c **** 	  : (crc << 1);
 178:../../core/drivers/SHT31/src/sht31.c ****       }
 179:../../core/drivers/SHT31/src/sht31.c ****   }
 180:../../core/drivers/SHT31/src/sht31.c ****   return crc;
 181:../../core/drivers/SHT31/src/sht31.c ****   */
 182:../../core/drivers/SHT31/src/sht31.c **** 	return 1;
 183:../../core/drivers/SHT31/src/sht31.c **** }
 703              		.loc 1 183 0
 704 0000 0120     		movs	r0, #1
 705              	.LVL63:
 706 0002 7047     		bx	lr
 707              		.cfi_endproc
 708              	.LFE138:
 710              		.comm	temp,4,4
 711              		.comm	humidity,4,4
 712              		.comm	_i2caddr,1,1
 713              		.comm	SHThi2cLib,4,4
 714              		.text
 715              	.Letext0:
 716              		.file 2 "/usr/include/newlib/machine/_default_types.h"
 717              		.file 3 "/usr/include/newlib/sys/_stdint.h"
 718              		.file 4 "../../core/ST/CMSIS/Include/core_cm4.h"
 719              		.file 5 "../../core/ST/CMSIS/Device/ST/STM32L4xx/Include/system_stm32l4xx.h"
 720              		.file 6 "../../core/ST/CMSIS/Device/ST/STM32L4xx/Include/stm32l496xx.h"
 721              		.file 7 "../../core/ST/STM32L4xx_HAL_Driver/Inc/stm32l4xx_hal_def.h"
 722              		.file 8 "../../core/ST/STM32L4xx_HAL_Driver/Inc/stm32l4xx_hal_dma.h"
 723              		.file 9 "../../core/ST/STM32L4xx_HAL_Driver/Inc/stm32l4xx_hal_i2c.h"
 724              		.file 10 "../../core/ST/STM32L4xx_HAL_Driver/Inc/stm32l4xx_hal.h"
 725              		.file 11 "../../core/drivers/SHT31/inc/sht31.h"
 726              		.file 12 "/usr/include/newlib/sys/lock.h"
 727              		.file 13 "/usr/include/newlib/sys/_types.h"
 728              		.file 14 "/usr/lib/gcc/arm-none-eabi/6.3.1/include/stddef.h"
 729              		.file 15 "/usr/include/newlib/sys/reent.h"
 730              		.file 16 "/usr/include/newlib/math.h"
ARM GAS  /tmp/cc0G2d02.s 			page 17

