ARM GAS  C:\Users\Jola\AppData\Local\Temp\ccXX7Fxd.s 			page 1


   1              		.cpu cortex-m4
   2              		.eabi_attribute 27, 1
   3              		.eabi_attribute 28, 1
   4              		.eabi_attribute 20, 1
   5              		.eabi_attribute 21, 1
   6              		.eabi_attribute 23, 3
   7              		.eabi_attribute 24, 1
   8              		.eabi_attribute 25, 1
   9              		.eabi_attribute 26, 1
  10              		.eabi_attribute 30, 1
  11              		.eabi_attribute 34, 1
  12              		.eabi_attribute 18, 4
  13              		.file	"modem.c"
  14              		.text
  15              	.Ltext0:
  16              		.cfi_sections	.debug_frame
  17              		.section	.text.process_serial_frame,"ax",%progbits
  18              		.align	1
  19              		.syntax unified
  20              		.thumb
  21              		.thumb_func
  22              		.fpu fpv4-sp-d16
  24              	process_serial_frame:
  25              	.LFB127:
  26              		.file 1 "../../shields/Murata-dualstack/src/modem.c"
   1:../../shields/Murata-dualstack/src/modem.c **** /* * OSS-7 - An opensource implementation of the DASH7 Alliance Protocol for ultra
   2:../../shields/Murata-dualstack/src/modem.c ****  * lowpower wireless sensor communication
   3:../../shields/Murata-dualstack/src/modem.c ****  *
   4:../../shields/Murata-dualstack/src/modem.c ****  * Copyright 2015 University of Antwerp
   5:../../shields/Murata-dualstack/src/modem.c ****  *
   6:../../shields/Murata-dualstack/src/modem.c ****  * Licensed under the Apache License, Version 2.0 (the "License");
   7:../../shields/Murata-dualstack/src/modem.c ****  * you may not use this file except in compliance with the License.
   8:../../shields/Murata-dualstack/src/modem.c ****  * You may obtain a copy of the License at
   9:../../shields/Murata-dualstack/src/modem.c ****  *
  10:../../shields/Murata-dualstack/src/modem.c ****  *   http://www.apache.org/licenses/LICENSE-2.0
  11:../../shields/Murata-dualstack/src/modem.c ****  *
  12:../../shields/Murata-dualstack/src/modem.c ****  * Unless required by applicable law or agreed to in writing, software
  13:../../shields/Murata-dualstack/src/modem.c ****  * distributed under the License is distributed on an "AS IS" BASIS,
  14:../../shields/Murata-dualstack/src/modem.c ****  * WITHOUT WARRANTIES OR CONDITIONS OF ANY KIND, either express or implied.
  15:../../shields/Murata-dualstack/src/modem.c ****  * See the License for the specific language governing permissions and
  16:../../shields/Murata-dualstack/src/modem.c ****  * limitations under the License.
  17:../../shields/Murata-dualstack/src/modem.c ****  */
  18:../../shields/Murata-dualstack/src/modem.c **** 
  19:../../shields/Murata-dualstack/src/modem.c **** #include "modem.h"
  20:../../shields/Murata-dualstack/src/modem.c **** //#include "debug.h"
  21:../../shields/Murata-dualstack/src/modem.c **** //#include "log.h"
  22:../../shields/Murata-dualstack/src/modem.c **** #include "errors.h"
  23:../../shields/Murata-dualstack/src/modem.c **** #include "fifo.h"
  24:../../shields/Murata-dualstack/src/modem.c **** #include "alp.h"
  25:../../shields/Murata-dualstack/src/modem.c **** //#include "scheduler.h"
  26:../../shields/Murata-dualstack/src/modem.c **** //#include "timer.h"
  27:../../shields/Murata-dualstack/src/modem.c **** #include "d7ap.h"
  28:../../shields/Murata-dualstack/src/modem.c **** #include <stdio.h>
  29:../../shields/Murata-dualstack/src/modem.c **** #include <stdlib.h>
  30:../../shields/Murata-dualstack/src/modem.c **** //#include "platform.h"
  31:../../shields/Murata-dualstack/src/modem.c **** #include "modem_interface.h"
  32:../../shields/Murata-dualstack/src/modem.c **** #include "stm32l4xx_hal.h"
ARM GAS  C:\Users\Jola\AppData\Local\Temp\ccXX7Fxd.s 			page 2


  33:../../shields/Murata-dualstack/src/modem.c **** 
  34:../../shields/Murata-dualstack/src/modem.c **** #define RX_BUFFER_SIZE 256
  35:../../shields/Murata-dualstack/src/modem.c **** #define CMD_BUFFER_SIZE 256
  36:../../shields/Murata-dualstack/src/modem.c **** 
  37:../../shields/Murata-dualstack/src/modem.c **** #if defined(FRAMEWORK_LOG_ENABLED) && defined(FRAMEWORK_MODEM_LOG_ENABLED)
  38:../../shields/Murata-dualstack/src/modem.c ****   #define DPRINT(...) log_print_string(__VA_ARGS__)
  39:../../shields/Murata-dualstack/src/modem.c ****   #define DPRINT_DATA(...) log_print_data(__VA_ARGS__)
  40:../../shields/Murata-dualstack/src/modem.c **** #else
  41:../../shields/Murata-dualstack/src/modem.c ****     #define DPRINT(...)
  42:../../shields/Murata-dualstack/src/modem.c ****     #define DPRINT_DATA(...)
  43:../../shields/Murata-dualstack/src/modem.c **** #endif
  44:../../shields/Murata-dualstack/src/modem.c **** 
  45:../../shields/Murata-dualstack/src/modem.c **** 
  46:../../shields/Murata-dualstack/src/modem.c **** typedef struct {
  47:../../shields/Murata-dualstack/src/modem.c ****   uint8_t tag_id;
  48:../../shields/Murata-dualstack/src/modem.c ****   bool is_active;
  49:../../shields/Murata-dualstack/src/modem.c ****   fifo_t fifo;
  50:../../shields/Murata-dualstack/src/modem.c ****   uint8_t buffer[256];
  51:../../shields/Murata-dualstack/src/modem.c **** } command_t;
  52:../../shields/Murata-dualstack/src/modem.c **** 
  53:../../shields/Murata-dualstack/src/modem.c **** static modem_callbacks_t* callbacks;
  54:../../shields/Murata-dualstack/src/modem.c **** static uint8_t rx_buffer[RX_BUFFER_SIZE];
  55:../../shields/Murata-dualstack/src/modem.c **** static command_t command; // TODO only one active command supported for now
  56:../../shields/Murata-dualstack/src/modem.c **** static uint8_t next_tag_id = 0;
  57:../../shields/Murata-dualstack/src/modem.c **** static bool parsed_header = false;
  58:../../shields/Murata-dualstack/src/modem.c **** static uint8_t payload_len = 0;
  59:../../shields/Murata-dualstack/src/modem.c **** extern fifo_t rx_fifo;
  60:../../shields/Murata-dualstack/src/modem.c **** 
  61:../../shields/Murata-dualstack/src/modem.c **** static void process_serial_frame(fifo_t* fifo) {
  27              		.loc 1 61 0
  28              		.cfi_startproc
  29              		@ args = 0, pretend = 0, frame = 296
  30              		@ frame_needed = 0, uses_anonymous_args = 0
  31              	.LVL0:
  32 0000 F0B5     		push	{r4, r5, r6, r7, lr}
  33              	.LCFI0:
  34              		.cfi_def_cfa_offset 20
  35              		.cfi_offset 4, -20
  36              		.cfi_offset 5, -16
  37              		.cfi_offset 6, -12
  38              		.cfi_offset 7, -8
  39              		.cfi_offset 14, -4
  40 0002 CBB0     		sub	sp, sp, #300
  41              	.LCFI1:
  42              		.cfi_def_cfa_offset 320
  43 0004 0446     		mov	r4, r0
  44              	.LVL1:
  62:../../shields/Murata-dualstack/src/modem.c ****   bool command_completed = false;
  63:../../shields/Murata-dualstack/src/modem.c ****   bool completed_with_error = false;
  45              		.loc 1 63 0
  46 0006 0026     		movs	r6, #0
  62:../../shields/Murata-dualstack/src/modem.c ****   bool command_completed = false;
  47              		.loc 1 62 0
  48 0008 3746     		mov	r7, r6
  64:../../shields/Murata-dualstack/src/modem.c ****   while(fifo_get_size(fifo)) {
  49              		.loc 1 64 0
  50 000a 45E0     		b	.L2
ARM GAS  C:\Users\Jola\AppData\Local\Temp\ccXX7Fxd.s 			page 3


  51              	.LVL2:
  52              	.L8:
  53              	.LBB6:
  65:../../shields/Murata-dualstack/src/modem.c ****     alp_action_t action;
  66:../../shields/Murata-dualstack/src/modem.c ****     alp_parse_action(fifo, &action);
  67:../../shields/Murata-dualstack/src/modem.c **** 
  68:../../shields/Murata-dualstack/src/modem.c ****     switch(action.operation) {
  69:../../shields/Murata-dualstack/src/modem.c ****       case ALP_OP_RETURN_TAG:
  70:../../shields/Murata-dualstack/src/modem.c ****         if(action.tag_response.tag_id == command.tag_id) {
  54              		.loc 1 70 0
  55 000c 9DF81E10 		ldrb	r1, [sp, #30]	@ zero_extendqisi2
  56 0010 514B     		ldr	r3, .L20
  57 0012 1A78     		ldrb	r2, [r3]	@ zero_extendqisi2
  58 0014 9142     		cmp	r1, r2
  59 0016 04D1     		bne	.L9
  71:../../shields/Murata-dualstack/src/modem.c ****           command_completed = action.tag_response.completed;
  60              		.loc 1 71 0
  61 0018 9DF81C70 		ldrb	r7, [sp, #28]	@ zero_extendqisi2
  62              	.LVL3:
  72:../../shields/Murata-dualstack/src/modem.c ****           completed_with_error = action.tag_response.error;
  63              		.loc 1 72 0
  64 001c 9DF81D60 		ldrb	r6, [sp, #29]	@ zero_extendqisi2
  65              	.LVL4:
  66 0020 3AE0     		b	.L2
  67              	.L9:
  73:../../shields/Murata-dualstack/src/modem.c ****         } else {
  74:../../shields/Murata-dualstack/src/modem.c ****           printf("received resp with unexpected tag_id (%i vs %i)", action.tag_response.tag_id, com
  68              		.loc 1 74 0
  69 0022 4E48     		ldr	r0, .L20+4
  70 0024 FFF7FEFF 		bl	printf
  71              	.LVL5:
  72 0028 36E0     		b	.L2
  73              	.L4:
  75:../../shields/Murata-dualstack/src/modem.c ****           // TODO unsolicited responses
  76:../../shields/Murata-dualstack/src/modem.c ****         }
  77:../../shields/Murata-dualstack/src/modem.c ****         break;
  78:../../shields/Murata-dualstack/src/modem.c ****       case ALP_OP_WRITE_FILE_DATA:
  79:../../shields/Murata-dualstack/src/modem.c ****         if(callbacks->write_file_data_callback)
  74              		.loc 1 79 0
  75 002a 4D4B     		ldr	r3, .L20+8
  76 002c 1B68     		ldr	r3, [r3]
  77 002e DD68     		ldr	r5, [r3, #12]
  78 0030 002D     		cmp	r5, #0
  79 0032 31D0     		beq	.L2
  80:../../shields/Murata-dualstack/src/modem.c ****           callbacks->write_file_data_callback(action.file_data_operand.file_offset.file_id,
  80              		.loc 1 80 0
  81 0034 0AAB     		add	r3, sp, #40
  82 0036 099A     		ldr	r2, [sp, #36]
  83 0038 0899     		ldr	r1, [sp, #32]
  84 003a 9DF81C00 		ldrb	r0, [sp, #28]	@ zero_extendqisi2
  85 003e A847     		blx	r5
  86              	.LVL6:
  87 0040 2AE0     		b	.L2
  88              	.L6:
  81:../../shields/Murata-dualstack/src/modem.c ****                                                action.file_data_operand.file_offset.offset,
  82:../../shields/Murata-dualstack/src/modem.c ****                                                action.file_data_operand.provided_data_length,
  83:../../shields/Murata-dualstack/src/modem.c ****                                                action.file_data_operand.data);
ARM GAS  C:\Users\Jola\AppData\Local\Temp\ccXX7Fxd.s 			page 4


  84:../../shields/Murata-dualstack/src/modem.c ****         break;
  85:../../shields/Murata-dualstack/src/modem.c ****       case ALP_OP_RETURN_FILE_DATA:
  86:../../shields/Murata-dualstack/src/modem.c ****         if(callbacks->return_file_data_callback)
  89              		.loc 1 86 0
  90 0042 474B     		ldr	r3, .L20+8
  91 0044 1B68     		ldr	r3, [r3]
  92 0046 9D68     		ldr	r5, [r3, #8]
  93 0048 35B3     		cbz	r5, .L2
  87:../../shields/Murata-dualstack/src/modem.c ****           callbacks->return_file_data_callback(action.file_data_operand.file_offset.file_id,
  94              		.loc 1 87 0
  95 004a 0AAB     		add	r3, sp, #40
  96 004c 099A     		ldr	r2, [sp, #36]
  97 004e 0899     		ldr	r1, [sp, #32]
  98 0050 9DF81C00 		ldrb	r0, [sp, #28]	@ zero_extendqisi2
  99 0054 A847     		blx	r5
 100              	.LVL7:
 101 0056 1FE0     		b	.L2
 102              	.L7:
  88:../../shields/Murata-dualstack/src/modem.c ****                                                action.file_data_operand.file_offset.offset,
  89:../../shields/Murata-dualstack/src/modem.c ****                                                action.file_data_operand.provided_data_length,
  90:../../shields/Murata-dualstack/src/modem.c ****                                                action.file_data_operand.data);
  91:../../shields/Murata-dualstack/src/modem.c ****         break;
  92:../../shields/Murata-dualstack/src/modem.c ****       case ALP_OP_RETURN_STATUS:
  93:../../shields/Murata-dualstack/src/modem.c ****         if(action.status.type==ALP_ITF_ID_D7ASP)
 103              		.loc 1 93 0
 104 0058 9DF81C51 		ldrb	r5, [sp, #284]	@ zero_extendqisi2
 105 005c D72D     		cmp	r5, #215
 106 005e 07D0     		beq	.L18
 107              	.L11:
  94:../../shields/Murata-dualstack/src/modem.c ****         {
  95:../../shields/Murata-dualstack/src/modem.c ****           d7ap_session_result_t interface_status = *((d7ap_session_result_t*)action.status.data);
  96:../../shields/Murata-dualstack/src/modem.c ****           uint8_t addressee_len = d7ap_addressee_id_length(interface_status.addressee.ctrl.id_type)
  97:../../shields/Murata-dualstack/src/modem.c ****           //printf("received resp from: ");
  98:../../shields/Murata-dualstack/src/modem.c ****           //printf(interface_status.addressee.id, addressee_len);
  99:../../shields/Murata-dualstack/src/modem.c ****         }
 100:../../shields/Murata-dualstack/src/modem.c ****         if(callbacks->modem_interface_status_callback)
 108              		.loc 1 100 0
 109 0060 3F4B     		ldr	r3, .L20+8
 110 0062 1B68     		ldr	r3, [r3]
 111 0064 5B68     		ldr	r3, [r3, #4]
 112 0066 BBB1     		cbz	r3, .L2
 101:../../shields/Murata-dualstack/src/modem.c ****           callbacks->modem_interface_status_callback(action.status.type,&action.status.data);
 113              		.loc 1 101 0
 114 0068 07A9     		add	r1, sp, #28
 115 006a 2846     		mov	r0, r5
 116 006c 9847     		blx	r3
 117              	.LVL8:
 118 006e 13E0     		b	.L2
 119              	.L18:
 120              	.LBB7:
  95:../../shields/Murata-dualstack/src/modem.c ****           uint8_t addressee_len = d7ap_addressee_id_length(interface_status.addressee.ctrl.id_type)
 121              		.loc 1 95 0
 122 0070 EC46     		mov	ip, sp
 123 0072 0DF11C0E 		add	lr, sp, #28
 124 0076 BEE80F00 		ldmia	lr!, {r0, r1, r2, r3}
 125 007a ACE80F00 		stmia	ip!, {r0, r1, r2, r3}
 126 007e 9EE80300 		ldm	lr, {r0, r1}
ARM GAS  C:\Users\Jola\AppData\Local\Temp\ccXX7Fxd.s 			page 5


 127 0082 4CF8040B 		str	r0, [ip], #4
 128 0086 2CF8021B 		strh	r1, [ip], #2	@ movhi
 129 008a 090C     		lsrs	r1, r1, #16
 130 008c 8CF80010 		strb	r1, [ip]
 131              	.LVL9:
 132 0090 E6E7     		b	.L11
 133              	.L3:
 134              	.LBE7:
 102:../../shields/Murata-dualstack/src/modem.c ****         break;
 103:../../shields/Murata-dualstack/src/modem.c ****       default:
 104:../../shields/Murata-dualstack/src/modem.c ****         printf("unknown serial frame\r\n");
 135              		.loc 1 104 0
 136 0092 3448     		ldr	r0, .L20+12
 137 0094 FFF7FEFF 		bl	puts
 138              	.LVL10:
 139              	.L2:
 140              	.LBE6:
  64:../../shields/Murata-dualstack/src/modem.c ****     alp_action_t action;
 141              		.loc 1 64 0
 142 0098 2046     		mov	r0, r4
 143 009a FFF7FEFF 		bl	fifo_get_size
 144              	.LVL11:
 145 009e 0028     		cmp	r0, #0
 146 00a0 4CD0     		beq	.L19
 147              	.LBB8:
  66:../../shields/Murata-dualstack/src/modem.c **** 
 148              		.loc 1 66 0
 149 00a2 06A9     		add	r1, sp, #24
 150 00a4 2046     		mov	r0, r4
 151 00a6 FFF7FEFF 		bl	alp_parse_action
 152              	.LVL12:
  68:../../shields/Murata-dualstack/src/modem.c ****       case ALP_OP_RETURN_TAG:
 153              		.loc 1 68 0
 154 00aa 9DF81830 		ldrb	r3, [sp, #24]	@ zero_extendqisi2
 155 00ae 043B     		subs	r3, r3, #4
 156 00b0 1F2B     		cmp	r3, #31
 157 00b2 EED8     		bhi	.L3
 158 00b4 01A2     		adr	r2, .L5
 159 00b6 52F823F0 		ldr	pc, [r2, r3, lsl #2]
 160 00ba 00BF     		.p2align 2
 161              	.L5:
 162 00bc 2B000000 		.word	.L4+1
 163 00c0 93000000 		.word	.L3+1
 164 00c4 93000000 		.word	.L3+1
 165 00c8 93000000 		.word	.L3+1
 166 00cc 93000000 		.word	.L3+1
 167 00d0 93000000 		.word	.L3+1
 168 00d4 93000000 		.word	.L3+1
 169 00d8 93000000 		.word	.L3+1
 170 00dc 93000000 		.word	.L3+1
 171 00e0 93000000 		.word	.L3+1
 172 00e4 93000000 		.word	.L3+1
 173 00e8 93000000 		.word	.L3+1
 174 00ec 93000000 		.word	.L3+1
 175 00f0 93000000 		.word	.L3+1
 176 00f4 93000000 		.word	.L3+1
 177 00f8 93000000 		.word	.L3+1
ARM GAS  C:\Users\Jola\AppData\Local\Temp\ccXX7Fxd.s 			page 6


 178 00fc 93000000 		.word	.L3+1
 179 0100 93000000 		.word	.L3+1
 180 0104 93000000 		.word	.L3+1
 181 0108 93000000 		.word	.L3+1
 182 010c 93000000 		.word	.L3+1
 183 0110 93000000 		.word	.L3+1
 184 0114 93000000 		.word	.L3+1
 185 0118 93000000 		.word	.L3+1
 186 011c 93000000 		.word	.L3+1
 187 0120 93000000 		.word	.L3+1
 188 0124 93000000 		.word	.L3+1
 189 0128 93000000 		.word	.L3+1
 190 012c 43000000 		.word	.L6+1
 191 0130 93000000 		.word	.L3+1
 192 0134 59000000 		.word	.L7+1
 193 0138 0D000000 		.word	.L8+1
 194              		.p2align 1
 195              	.L19:
 196              	.LBE8:
 105:../../shields/Murata-dualstack/src/modem.c ****         //assert(false);
 106:../../shields/Murata-dualstack/src/modem.c ****     }
 107:../../shields/Murata-dualstack/src/modem.c ****   }
 108:../../shields/Murata-dualstack/src/modem.c **** 
 109:../../shields/Murata-dualstack/src/modem.c **** 
 110:../../shields/Murata-dualstack/src/modem.c ****   if(command_completed) {
 197              		.loc 1 110 0
 198 013c 57B1     		cbz	r7, .L1
 111:../../shields/Murata-dualstack/src/modem.c ****     DPRINT("LoRaWAN modem command with tag %i completed ", command.tag_id);
 112:../../shields/Murata-dualstack/src/modem.c ****     if(callbacks->command_completed_callback)
 199              		.loc 1 112 0
 200 013e 084B     		ldr	r3, .L20+8
 201 0140 1B68     		ldr	r3, [r3]
 202 0142 1B68     		ldr	r3, [r3]
 203 0144 1BB1     		cbz	r3, .L16
 113:../../shields/Murata-dualstack/src/modem.c ****       callbacks->command_completed_callback(completed_with_error,command.tag_id);
 204              		.loc 1 113 0
 205 0146 044A     		ldr	r2, .L20
 206 0148 1178     		ldrb	r1, [r2]	@ zero_extendqisi2
 207 014a 3046     		mov	r0, r6
 208 014c 9847     		blx	r3
 209              	.LVL13:
 210              	.L16:
 114:../../shields/Murata-dualstack/src/modem.c **** 
 115:../../shields/Murata-dualstack/src/modem.c ****     command.is_active = false;
 211              		.loc 1 115 0
 212 014e 024B     		ldr	r3, .L20
 213 0150 0022     		movs	r2, #0
 214 0152 5A70     		strb	r2, [r3, #1]
 215              	.L1:
 116:../../shields/Murata-dualstack/src/modem.c ****   }
 117:../../shields/Murata-dualstack/src/modem.c **** 
 118:../../shields/Murata-dualstack/src/modem.c **** }
 216              		.loc 1 118 0
 217 0154 4BB0     		add	sp, sp, #300
 218              	.LCFI2:
 219              		.cfi_def_cfa_offset 20
 220              		@ sp needed
ARM GAS  C:\Users\Jola\AppData\Local\Temp\ccXX7Fxd.s 			page 7


 221 0156 F0BD     		pop	{r4, r5, r6, r7, pc}
 222              	.LVL14:
 223              	.L21:
 224              		.align	2
 225              	.L20:
 226 0158 00000000 		.word	.LANCHOR0
 227 015c 00000000 		.word	.LC0
 228 0160 00000000 		.word	.LANCHOR1
 229 0164 64000000 		.word	.LC3
 230              		.cfi_endproc
 231              	.LFE127:
 233              		.section	.text.modem_cb_init,"ax",%progbits
 234              		.align	1
 235              		.global	modem_cb_init
 236              		.syntax unified
 237              		.thumb
 238              		.thumb_func
 239              		.fpu fpv4-sp-d16
 241              	modem_cb_init:
 242              	.LFB128:
 119:../../shields/Murata-dualstack/src/modem.c **** 
 120:../../shields/Murata-dualstack/src/modem.c **** void modem_cb_init(modem_callbacks_t* cbs)
 121:../../shields/Murata-dualstack/src/modem.c **** {
 243              		.loc 1 121 0
 244              		.cfi_startproc
 245              		@ args = 0, pretend = 0, frame = 0
 246              		@ frame_needed = 0, uses_anonymous_args = 0
 247              	.LVL15:
 248 0000 10B5     		push	{r4, lr}
 249              	.LCFI3:
 250              		.cfi_def_cfa_offset 8
 251              		.cfi_offset 4, -8
 252              		.cfi_offset 14, -4
 253 0002 0446     		mov	r4, r0
 122:../../shields/Murata-dualstack/src/modem.c ****     command.is_active = false;
 254              		.loc 1 122 0
 255 0004 064B     		ldr	r3, .L25
 256 0006 0022     		movs	r2, #0
 257 0008 5A70     		strb	r2, [r3, #1]
 123:../../shields/Murata-dualstack/src/modem.c ****     modem_interface_register_handler(&process_serial_frame, SERIAL_MESSAGE_TYPE_ALP_DATA);
 258              		.loc 1 123 0
 259 000a 0121     		movs	r1, #1
 260 000c 0548     		ldr	r0, .L25+4
 261              	.LVL16:
 262 000e FFF7FEFF 		bl	modem_interface_register_handler
 263              	.LVL17:
 124:../../shields/Murata-dualstack/src/modem.c ****     callbacks = cbs;
 264              		.loc 1 124 0
 265 0012 054B     		ldr	r3, .L25+8
 266 0014 1C60     		str	r4, [r3]
 125:../../shields/Murata-dualstack/src/modem.c ****     if(cbs->modem_rebooted_callback)
 267              		.loc 1 125 0
 268 0016 2069     		ldr	r0, [r4, #16]
 269 0018 08B1     		cbz	r0, .L22
 126:../../shields/Murata-dualstack/src/modem.c ****       modem_interface_set_target_rebooted_callback(cbs->modem_rebooted_callback);
 270              		.loc 1 126 0
 271 001a FFF7FEFF 		bl	modem_interface_set_target_rebooted_callback
ARM GAS  C:\Users\Jola\AppData\Local\Temp\ccXX7Fxd.s 			page 8


 272              	.LVL18:
 273              	.L22:
 127:../../shields/Murata-dualstack/src/modem.c **** }
 274              		.loc 1 127 0
 275 001e 10BD     		pop	{r4, pc}
 276              	.LVL19:
 277              	.L26:
 278              		.align	2
 279              	.L25:
 280 0020 00000000 		.word	.LANCHOR0
 281 0024 00000000 		.word	process_serial_frame
 282 0028 00000000 		.word	.LANCHOR1
 283              		.cfi_endproc
 284              	.LFE128:
 286              		.section	.text.modem_process_fifo,"ax",%progbits
 287              		.align	1
 288              		.global	modem_process_fifo
 289              		.syntax unified
 290              		.thumb
 291              		.thumb_func
 292              		.fpu fpv4-sp-d16
 294              	modem_process_fifo:
 295              	.LFB129:
 128:../../shields/Murata-dualstack/src/modem.c **** 
 129:../../shields/Murata-dualstack/src/modem.c **** uint8_t modem_process_fifo()
 130:../../shields/Murata-dualstack/src/modem.c **** {
 296              		.loc 1 130 0
 297              		.cfi_startproc
 298              		@ args = 0, pretend = 0, frame = 0
 299              		@ frame_needed = 0, uses_anonymous_args = 0
 300 0000 38B5     		push	{r3, r4, r5, lr}
 301              	.LCFI4:
 302              		.cfi_def_cfa_offset 16
 303              		.cfi_offset 3, -16
 304              		.cfi_offset 4, -12
 305              		.cfi_offset 5, -8
 306              		.cfi_offset 14, -4
 307              	.LVL20:
 131:../../shields/Murata-dualstack/src/modem.c ****   uint8_t retries = 0;
 132:../../shields/Murata-dualstack/src/modem.c ****   uint8_t status = 0;
 308              		.loc 1 132 0
 309 0002 0025     		movs	r5, #0
 131:../../shields/Murata-dualstack/src/modem.c ****   uint8_t retries = 0;
 310              		.loc 1 131 0
 311 0004 2C46     		mov	r4, r5
 133:../../shields/Murata-dualstack/src/modem.c ****   while(fifo_get_size(&rx_fifo) && retries < 50)
 312              		.loc 1 133 0
 313 0006 08E0     		b	.L28
 314              	.LVL21:
 315              	.L30:
 316              	.LBB9:
 134:../../shields/Murata-dualstack/src/modem.c ****   { 
 135:../../shields/Murata-dualstack/src/modem.c ****     status = (uint8_t)process_rx_fifo(NULL);
 317              		.loc 1 135 0
 318 0008 0020     		movs	r0, #0
 319 000a FFF7FEFF 		bl	process_rx_fifo
 320              	.LVL22:
ARM GAS  C:\Users\Jola\AppData\Local\Temp\ccXX7Fxd.s 			page 9


 321 000e C5B2     		uxtb	r5, r0
 322              	.LVL23:
 136:../../shields/Murata-dualstack/src/modem.c ****     HAL_Delay(50);
 323              		.loc 1 136 0
 324 0010 3220     		movs	r0, #50
 325 0012 FFF7FEFF 		bl	HAL_Delay
 326              	.LVL24:
 137:../../shields/Murata-dualstack/src/modem.c ****     retries++;
 327              		.loc 1 137 0
 328 0016 0134     		adds	r4, r4, #1
 329              	.LVL25:
 330 0018 E4B2     		uxtb	r4, r4
 331              	.LVL26:
 332              	.L28:
 333              	.LBE9:
 133:../../shields/Murata-dualstack/src/modem.c ****   { 
 334              		.loc 1 133 0
 335 001a 0448     		ldr	r0, .L32
 336 001c FFF7FEFF 		bl	fifo_get_size
 337              	.LVL27:
 338 0020 08B1     		cbz	r0, .L29
 133:../../shields/Murata-dualstack/src/modem.c ****   { 
 339              		.loc 1 133 0 is_stmt 0 discriminator 1
 340 0022 312C     		cmp	r4, #49
 341 0024 F0D9     		bls	.L30
 342              	.L29:
 138:../../shields/Murata-dualstack/src/modem.c ****   }
 139:../../shields/Murata-dualstack/src/modem.c ****   return status;
 140:../../shields/Murata-dualstack/src/modem.c **** }
 343              		.loc 1 140 0 is_stmt 1
 344 0026 2846     		mov	r0, r5
 345 0028 38BD     		pop	{r3, r4, r5, pc}
 346              	.LVL28:
 347              	.L33:
 348 002a 00BF     		.align	2
 349              	.L32:
 350 002c 00000000 		.word	rx_fifo
 351              		.cfi_endproc
 352              	.LFE129:
 354              		.section	.text.modem_reinit,"ax",%progbits
 355              		.align	1
 356              		.global	modem_reinit
 357              		.syntax unified
 358              		.thumb
 359              		.thumb_func
 360              		.fpu fpv4-sp-d16
 362              	modem_reinit:
 363              	.LFB130:
 141:../../shields/Murata-dualstack/src/modem.c **** 
 142:../../shields/Murata-dualstack/src/modem.c **** void modem_reinit() {
 364              		.loc 1 142 0
 365              		.cfi_startproc
 366              		@ args = 0, pretend = 0, frame = 0
 367              		@ frame_needed = 0, uses_anonymous_args = 0
 368              		@ link register save eliminated.
 143:../../shields/Murata-dualstack/src/modem.c ****   command.is_active = false;
 369              		.loc 1 143 0
ARM GAS  C:\Users\Jola\AppData\Local\Temp\ccXX7Fxd.s 			page 10


 370 0000 014B     		ldr	r3, .L35
 371 0002 0022     		movs	r2, #0
 372 0004 5A70     		strb	r2, [r3, #1]
 144:../../shields/Murata-dualstack/src/modem.c **** }
 373              		.loc 1 144 0
 374 0006 7047     		bx	lr
 375              	.L36:
 376              		.align	2
 377              	.L35:
 378 0008 00000000 		.word	.LANCHOR0
 379              		.cfi_endproc
 380              	.LFE130:
 382              		.section	.text.modem_send_ping,"ax",%progbits
 383              		.align	1
 384              		.global	modem_send_ping
 385              		.syntax unified
 386              		.thumb
 387              		.thumb_func
 388              		.fpu fpv4-sp-d16
 390              	modem_send_ping:
 391              	.LFB131:
 145:../../shields/Murata-dualstack/src/modem.c **** 
 146:../../shields/Murata-dualstack/src/modem.c **** void modem_send_ping() {
 392              		.loc 1 146 0
 393              		.cfi_startproc
 394              		@ args = 0, pretend = 0, frame = 8
 395              		@ frame_needed = 0, uses_anonymous_args = 0
 396 0000 00B5     		push	{lr}
 397              	.LCFI5:
 398              		.cfi_def_cfa_offset 4
 399              		.cfi_offset 14, -4
 400 0002 83B0     		sub	sp, sp, #12
 401              	.LCFI6:
 402              		.cfi_def_cfa_offset 16
 147:../../shields/Murata-dualstack/src/modem.c ****   uint8_t ping_request[1]={0x01};
 403              		.loc 1 147 0
 404 0004 0121     		movs	r1, #1
 405 0006 02A8     		add	r0, sp, #8
 406 0008 00F8041D 		strb	r1, [r0, #-4]!
 148:../../shields/Murata-dualstack/src/modem.c ****   modem_interface_transfer_bytes((uint8_t*) &ping_request, 1, SERIAL_MESSAGE_TYPE_PING_REQUEST);
 407              		.loc 1 148 0
 408 000c 0222     		movs	r2, #2
 409 000e FFF7FEFF 		bl	modem_interface_transfer_bytes
 410              	.LVL29:
 149:../../shields/Murata-dualstack/src/modem.c **** }
 411              		.loc 1 149 0
 412 0012 03B0     		add	sp, sp, #12
 413              	.LCFI7:
 414              		.cfi_def_cfa_offset 4
 415              		@ sp needed
 416 0014 5DF804FB 		ldr	pc, [sp], #4
 417              		.cfi_endproc
 418              	.LFE131:
 420              		.section	.text.modem_execute_raw_alp,"ax",%progbits
 421              		.align	1
 422              		.global	modem_execute_raw_alp
 423              		.syntax unified
ARM GAS  C:\Users\Jola\AppData\Local\Temp\ccXX7Fxd.s 			page 11


 424              		.thumb
 425              		.thumb_func
 426              		.fpu fpv4-sp-d16
 428              	modem_execute_raw_alp:
 429              	.LFB132:
 150:../../shields/Murata-dualstack/src/modem.c **** 
 151:../../shields/Murata-dualstack/src/modem.c **** bool modem_execute_raw_alp(uint8_t* alp, uint8_t len) {
 430              		.loc 1 151 0
 431              		.cfi_startproc
 432              		@ args = 0, pretend = 0, frame = 0
 433              		@ frame_needed = 0, uses_anonymous_args = 0
 434              	.LVL30:
 435 0000 08B5     		push	{r3, lr}
 436              	.LCFI8:
 437              		.cfi_def_cfa_offset 8
 438              		.cfi_offset 3, -8
 439              		.cfi_offset 14, -4
 152:../../shields/Murata-dualstack/src/modem.c ****   modem_interface_transfer_bytes(alp, len, SERIAL_MESSAGE_TYPE_ALP_DATA);
 440              		.loc 1 152 0
 441 0002 0122     		movs	r2, #1
 442 0004 FFF7FEFF 		bl	modem_interface_transfer_bytes
 443              	.LVL31:
 153:../../shields/Murata-dualstack/src/modem.c **** }
 444              		.loc 1 153 0
 445 0008 08BD     		pop	{r3, pc}
 446              		.cfi_endproc
 447              	.LFE132:
 449              		.section	.text.alloc_command,"ax",%progbits
 450              		.align	1
 451              		.global	alloc_command
 452              		.syntax unified
 453              		.thumb
 454              		.thumb_func
 455              		.fpu fpv4-sp-d16
 457              	alloc_command:
 458              	.LFB133:
 154:../../shields/Murata-dualstack/src/modem.c **** 
 155:../../shields/Murata-dualstack/src/modem.c **** bool alloc_command() {
 459              		.loc 1 155 0
 460              		.cfi_startproc
 461              		@ args = 0, pretend = 0, frame = 0
 462              		@ frame_needed = 0, uses_anonymous_args = 0
 463 0000 70B5     		push	{r4, r5, r6, lr}
 464              	.LCFI9:
 465              		.cfi_def_cfa_offset 16
 466              		.cfi_offset 4, -16
 467              		.cfi_offset 5, -12
 468              		.cfi_offset 6, -8
 469              		.cfi_offset 14, -4
 156:../../shields/Murata-dualstack/src/modem.c ****   if(command.is_active) {
 470              		.loc 1 156 0
 471 0002 0F4B     		ldr	r3, .L46
 472 0004 5B78     		ldrb	r3, [r3, #1]	@ zero_extendqisi2
 473 0006 ABB9     		cbnz	r3, .L45
 157:../../shields/Murata-dualstack/src/modem.c ****     printf("prev command still active");
 158:../../shields/Murata-dualstack/src/modem.c ****     return false;
 159:../../shields/Murata-dualstack/src/modem.c ****   }
ARM GAS  C:\Users\Jola\AppData\Local\Temp\ccXX7Fxd.s 			page 12


 160:../../shields/Murata-dualstack/src/modem.c **** 
 161:../../shields/Murata-dualstack/src/modem.c ****   command.is_active = true;
 474              		.loc 1 161 0
 475 0008 0D4D     		ldr	r5, .L46
 476 000a 0124     		movs	r4, #1
 477 000c 6C70     		strb	r4, [r5, #1]
 162:../../shields/Murata-dualstack/src/modem.c ****   fifo_init(&command.fifo, command.buffer, CMD_BUFFER_SIZE);
 478              		.loc 1 162 0
 479 000e 2E1D     		adds	r6, r5, #4
 480 0010 4FF48072 		mov	r2, #256
 481 0014 05F11401 		add	r1, r5, #20
 482 0018 3046     		mov	r0, r6
 483 001a FFF7FEFF 		bl	fifo_init
 484              	.LVL32:
 163:../../shields/Murata-dualstack/src/modem.c ****   command.tag_id = next_tag_id;
 485              		.loc 1 163 0
 486 001e 094B     		ldr	r3, .L46+4
 487 0020 1978     		ldrb	r1, [r3]	@ zero_extendqisi2
 488 0022 2970     		strb	r1, [r5]
 164:../../shields/Murata-dualstack/src/modem.c ****   next_tag_id++;
 489              		.loc 1 164 0
 490 0024 0A19     		adds	r2, r1, r4
 491 0026 1A70     		strb	r2, [r3]
 165:../../shields/Murata-dualstack/src/modem.c **** 
 166:../../shields/Murata-dualstack/src/modem.c ****   alp_append_tag_request_action(&command.fifo, command.tag_id, true);
 492              		.loc 1 166 0
 493 0028 2246     		mov	r2, r4
 494 002a 3046     		mov	r0, r6
 495 002c FFF7FEFF 		bl	alp_append_tag_request_action
 496              	.LVL33:
 167:../../shields/Murata-dualstack/src/modem.c ****   return true;
 497              		.loc 1 167 0
 498 0030 2046     		mov	r0, r4
 499              	.L43:
 168:../../shields/Murata-dualstack/src/modem.c **** }
 500              		.loc 1 168 0
 501 0032 70BD     		pop	{r4, r5, r6, pc}
 502              	.L45:
 157:../../shields/Murata-dualstack/src/modem.c ****     return false;
 503              		.loc 1 157 0
 504 0034 0448     		ldr	r0, .L46+8
 505 0036 FFF7FEFF 		bl	printf
 506              	.LVL34:
 158:../../shields/Murata-dualstack/src/modem.c ****   }
 507              		.loc 1 158 0
 508 003a 0020     		movs	r0, #0
 509 003c F9E7     		b	.L43
 510              	.L47:
 511 003e 00BF     		.align	2
 512              	.L46:
 513 0040 00000000 		.word	.LANCHOR0
 514 0044 00000000 		.word	.LANCHOR3
 515 0048 00000000 		.word	.LC4
 516              		.cfi_endproc
 517              	.LFE133:
 519              		.section	.text.modem_read_file,"ax",%progbits
 520              		.align	1
ARM GAS  C:\Users\Jola\AppData\Local\Temp\ccXX7Fxd.s 			page 13


 521              		.global	modem_read_file
 522              		.syntax unified
 523              		.thumb
 524              		.thumb_func
 525              		.fpu fpv4-sp-d16
 527              	modem_read_file:
 528              	.LFB134:
 169:../../shields/Murata-dualstack/src/modem.c **** 
 170:../../shields/Murata-dualstack/src/modem.c **** bool modem_read_file(uint8_t file_id, uint32_t offset, uint32_t size) {
 529              		.loc 1 170 0
 530              		.cfi_startproc
 531              		@ args = 0, pretend = 0, frame = 0
 532              		@ frame_needed = 0, uses_anonymous_args = 0
 533              	.LVL35:
 534 0000 2DE9F047 		push	{r4, r5, r6, r7, r8, r9, r10, lr}
 535              	.LCFI10:
 536              		.cfi_def_cfa_offset 32
 537              		.cfi_offset 4, -32
 538              		.cfi_offset 5, -28
 539              		.cfi_offset 6, -24
 540              		.cfi_offset 7, -20
 541              		.cfi_offset 8, -16
 542              		.cfi_offset 9, -12
 543              		.cfi_offset 10, -8
 544              		.cfi_offset 14, -4
 545 0004 82B0     		sub	sp, sp, #8
 546              	.LCFI11:
 547              		.cfi_def_cfa_offset 40
 548 0006 0546     		mov	r5, r0
 549 0008 0E46     		mov	r6, r1
 550 000a 1746     		mov	r7, r2
 171:../../shields/Murata-dualstack/src/modem.c ****   if(!alloc_command())
 551              		.loc 1 171 0
 552 000c FFF7FEFF 		bl	alloc_command
 553              	.LVL36:
 554 0010 0446     		mov	r4, r0
 555 0012 18B9     		cbnz	r0, .L51
 556              	.L49:
 172:../../shields/Murata-dualstack/src/modem.c ****     return false;
 173:../../shields/Murata-dualstack/src/modem.c **** 
 174:../../shields/Murata-dualstack/src/modem.c ****   alp_append_read_file_data_action(&command.fifo, file_id, offset, size, true, false);
 175:../../shields/Murata-dualstack/src/modem.c **** 
 176:../../shields/Murata-dualstack/src/modem.c ****   modem_interface_transfer_bytes(command.buffer, fifo_get_size(&command.fifo), SERIAL_MESSAGE_TYPE_
 177:../../shields/Murata-dualstack/src/modem.c **** 
 178:../../shields/Murata-dualstack/src/modem.c ****   return true;
 179:../../shields/Murata-dualstack/src/modem.c **** }
 557              		.loc 1 179 0
 558 0014 2046     		mov	r0, r4
 559 0016 02B0     		add	sp, sp, #8
 560              	.LCFI12:
 561              		.cfi_remember_state
 562              		.cfi_def_cfa_offset 32
 563              		@ sp needed
 564 0018 BDE8F087 		pop	{r4, r5, r6, r7, r8, r9, r10, pc}
 565              	.LVL37:
 566              	.L51:
 567              	.LCFI13:
ARM GAS  C:\Users\Jola\AppData\Local\Temp\ccXX7Fxd.s 			page 14


 568              		.cfi_restore_state
 174:../../shields/Murata-dualstack/src/modem.c **** 
 569              		.loc 1 174 0
 570 001c DFF83080 		ldr	r8, .L52
 571 0020 08F1040A 		add	r10, r8, #4
 572 0024 0023     		movs	r3, #0
 573 0026 0193     		str	r3, [sp, #4]
 574 0028 4FF00109 		mov	r9, #1
 575 002c CDF80090 		str	r9, [sp]
 576 0030 3B46     		mov	r3, r7
 577 0032 3246     		mov	r2, r6
 578 0034 2946     		mov	r1, r5
 579 0036 5046     		mov	r0, r10
 580 0038 FFF7FEFF 		bl	alp_append_read_file_data_action
 581              	.LVL38:
 176:../../shields/Murata-dualstack/src/modem.c **** 
 582              		.loc 1 176 0
 583 003c 5046     		mov	r0, r10
 584 003e FFF7FEFF 		bl	fifo_get_size
 585              	.LVL39:
 586 0042 4A46     		mov	r2, r9
 587 0044 C1B2     		uxtb	r1, r0
 588 0046 08F11400 		add	r0, r8, #20
 589 004a FFF7FEFF 		bl	modem_interface_transfer_bytes
 590              	.LVL40:
 178:../../shields/Murata-dualstack/src/modem.c **** }
 591              		.loc 1 178 0
 592 004e E1E7     		b	.L49
 593              	.L53:
 594              		.align	2
 595              	.L52:
 596 0050 00000000 		.word	.LANCHOR0
 597              		.cfi_endproc
 598              	.LFE134:
 600              		.section	.text.modem_write_file,"ax",%progbits
 601              		.align	1
 602              		.global	modem_write_file
 603              		.syntax unified
 604              		.thumb
 605              		.thumb_func
 606              		.fpu fpv4-sp-d16
 608              	modem_write_file:
 609              	.LFB135:
 180:../../shields/Murata-dualstack/src/modem.c **** 
 181:../../shields/Murata-dualstack/src/modem.c **** bool modem_write_file(uint8_t file_id, uint32_t offset, uint32_t size, uint8_t* data) {
 610              		.loc 1 181 0
 611              		.cfi_startproc
 612              		@ args = 0, pretend = 0, frame = 0
 613              		@ frame_needed = 0, uses_anonymous_args = 0
 614              	.LVL41:
 615 0000 2DE9F04F 		push	{r4, r5, r6, r7, r8, r9, r10, fp, lr}
 616              	.LCFI14:
 617              		.cfi_def_cfa_offset 36
 618              		.cfi_offset 4, -36
 619              		.cfi_offset 5, -32
 620              		.cfi_offset 6, -28
 621              		.cfi_offset 7, -24
ARM GAS  C:\Users\Jola\AppData\Local\Temp\ccXX7Fxd.s 			page 15


 622              		.cfi_offset 8, -20
 623              		.cfi_offset 9, -16
 624              		.cfi_offset 10, -12
 625              		.cfi_offset 11, -8
 626              		.cfi_offset 14, -4
 627 0004 85B0     		sub	sp, sp, #20
 628              	.LCFI15:
 629              		.cfi_def_cfa_offset 56
 630 0006 0546     		mov	r5, r0
 631 0008 0E46     		mov	r6, r1
 632 000a 1746     		mov	r7, r2
 633 000c 9846     		mov	r8, r3
 182:../../shields/Murata-dualstack/src/modem.c ****   if(!alloc_command())
 634              		.loc 1 182 0
 635 000e FFF7FEFF 		bl	alloc_command
 636              	.LVL42:
 637 0012 0446     		mov	r4, r0
 638 0014 18B9     		cbnz	r0, .L57
 639              	.L55:
 183:../../shields/Murata-dualstack/src/modem.c ****     return false;
 184:../../shields/Murata-dualstack/src/modem.c **** 
 185:../../shields/Murata-dualstack/src/modem.c ****   alp_append_write_file_data_action(&command.fifo, file_id, offset, size, data, true, false);
 186:../../shields/Murata-dualstack/src/modem.c **** 
 187:../../shields/Murata-dualstack/src/modem.c ****   modem_interface_transfer_bytes(command.buffer, fifo_get_size(&command.fifo), SERIAL_MESSAGE_TYPE_
 188:../../shields/Murata-dualstack/src/modem.c **** 
 189:../../shields/Murata-dualstack/src/modem.c ****   return true;
 190:../../shields/Murata-dualstack/src/modem.c **** }
 640              		.loc 1 190 0
 641 0016 2046     		mov	r0, r4
 642 0018 05B0     		add	sp, sp, #20
 643              	.LCFI16:
 644              		.cfi_remember_state
 645              		.cfi_def_cfa_offset 36
 646              		@ sp needed
 647 001a BDE8F08F 		pop	{r4, r5, r6, r7, r8, r9, r10, fp, pc}
 648              	.LVL43:
 649              	.L57:
 650              	.LCFI17:
 651              		.cfi_restore_state
 185:../../shields/Murata-dualstack/src/modem.c **** 
 652              		.loc 1 185 0
 653 001e DFF83890 		ldr	r9, .L58
 654 0022 09F1040B 		add	fp, r9, #4
 655 0026 0023     		movs	r3, #0
 656 0028 0293     		str	r3, [sp, #8]
 657 002a 4FF0010A 		mov	r10, #1
 658 002e CDF804A0 		str	r10, [sp, #4]
 659 0032 CDF80080 		str	r8, [sp]
 660 0036 3B46     		mov	r3, r7
 661 0038 3246     		mov	r2, r6
 662 003a 2946     		mov	r1, r5
 663 003c 5846     		mov	r0, fp
 664 003e FFF7FEFF 		bl	alp_append_write_file_data_action
 665              	.LVL44:
 187:../../shields/Murata-dualstack/src/modem.c **** 
 666              		.loc 1 187 0
 667 0042 5846     		mov	r0, fp
ARM GAS  C:\Users\Jola\AppData\Local\Temp\ccXX7Fxd.s 			page 16


 668 0044 FFF7FEFF 		bl	fifo_get_size
 669              	.LVL45:
 670 0048 5246     		mov	r2, r10
 671 004a C1B2     		uxtb	r1, r0
 672 004c 09F11400 		add	r0, r9, #20
 673 0050 FFF7FEFF 		bl	modem_interface_transfer_bytes
 674              	.LVL46:
 189:../../shields/Murata-dualstack/src/modem.c **** }
 675              		.loc 1 189 0
 676 0054 DFE7     		b	.L55
 677              	.L59:
 678 0056 00BF     		.align	2
 679              	.L58:
 680 0058 00000000 		.word	.LANCHOR0
 681              		.cfi_endproc
 682              	.LFE135:
 684              		.section	.text.modem_send_unsolicited_response,"ax",%progbits
 685              		.align	1
 686              		.global	modem_send_unsolicited_response
 687              		.syntax unified
 688              		.thumb
 689              		.thumb_func
 690              		.fpu fpv4-sp-d16
 692              	modem_send_unsolicited_response:
 693              	.LFB136:
 191:../../shields/Murata-dualstack/src/modem.c **** 
 192:../../shields/Murata-dualstack/src/modem.c **** bool modem_send_unsolicited_response(uint8_t file_id, uint32_t offset, uint32_t length, uint8_t* da
 193:../../shields/Murata-dualstack/src/modem.c ****                                      session_config_t* session_config) {
 694              		.loc 1 193 0
 695              		.cfi_startproc
 696              		@ args = 4, pretend = 0, frame = 0
 697              		@ frame_needed = 0, uses_anonymous_args = 0
 698              	.LVL47:
 699 0000 2DE9F047 		push	{r4, r5, r6, r7, r8, r9, r10, lr}
 700              	.LCFI18:
 701              		.cfi_def_cfa_offset 32
 702              		.cfi_offset 4, -32
 703              		.cfi_offset 5, -28
 704              		.cfi_offset 6, -24
 705              		.cfi_offset 7, -20
 706              		.cfi_offset 8, -16
 707              		.cfi_offset 9, -12
 708              		.cfi_offset 10, -8
 709              		.cfi_offset 14, -4
 710 0004 82B0     		sub	sp, sp, #8
 711              	.LCFI19:
 712              		.cfi_def_cfa_offset 40
 713 0006 0746     		mov	r7, r0
 714 0008 8846     		mov	r8, r1
 715 000a 9146     		mov	r9, r2
 716 000c 9A46     		mov	r10, r3
 194:../../shields/Murata-dualstack/src/modem.c ****   if(!alloc_command())
 717              		.loc 1 194 0
 718 000e FFF7FEFF 		bl	alloc_command
 719              	.LVL48:
 720 0012 0446     		mov	r4, r0
 721 0014 C8B1     		cbz	r0, .L61
ARM GAS  C:\Users\Jola\AppData\Local\Temp\ccXX7Fxd.s 			page 17


 195:../../shields/Murata-dualstack/src/modem.c ****     return false;
 196:../../shields/Murata-dualstack/src/modem.c **** 
 197:../../shields/Murata-dualstack/src/modem.c ****   if(session_config->interface_type==DASH7)
 722              		.loc 1 197 0
 723 0016 0A9B     		ldr	r3, [sp, #40]
 724 0018 1B78     		ldrb	r3, [r3]	@ zero_extendqisi2
 725 001a D3B1     		cbz	r3, .L66
 198:../../shields/Murata-dualstack/src/modem.c ****     alp_append_forward_action(&command.fifo, ALP_ITF_ID_D7ASP, (uint8_t *) &session_config->d7ap_se
 199:../../shields/Murata-dualstack/src/modem.c ****   else if(session_config->interface_type==LORAWAN_OTAA)
 726              		.loc 1 199 0
 727 001c 012B     		cmp	r3, #1
 728 001e 20D0     		beq	.L67
 200:../../shields/Murata-dualstack/src/modem.c ****     alp_append_forward_action(&command.fifo, ALP_ITF_ID_LORAWAN_OTAA, (uint8_t *) &session_config->
 201:../../shields/Murata-dualstack/src/modem.c ****   else if(session_config->interface_type==LORAWAN_ABP)
 729              		.loc 1 201 0
 730 0020 022B     		cmp	r3, #2
 731 0022 26D0     		beq	.L68
 732              	.L63:
 202:../../shields/Murata-dualstack/src/modem.c ****     alp_append_forward_action(&command.fifo, ALP_ITF_ID_LORAWAN_ABP, (uint8_t *) &session_config->l
 203:../../shields/Murata-dualstack/src/modem.c **** 
 204:../../shields/Murata-dualstack/src/modem.c ****   alp_append_return_file_data_action(&command.fifo, file_id, offset, length, data);
 733              		.loc 1 204 0
 734 0024 174D     		ldr	r5, .L69
 735 0026 2E1D     		adds	r6, r5, #4
 736 0028 CDF800A0 		str	r10, [sp]
 737 002c 4B46     		mov	r3, r9
 738 002e 4246     		mov	r2, r8
 739 0030 3946     		mov	r1, r7
 740 0032 3046     		mov	r0, r6
 741 0034 FFF7FEFF 		bl	alp_append_return_file_data_action
 742              	.LVL49:
 205:../../shields/Murata-dualstack/src/modem.c **** 
 206:../../shields/Murata-dualstack/src/modem.c ****   modem_interface_transfer_bytes(command.buffer, fifo_get_size(&command.fifo), SERIAL_MESSAGE_TYPE_
 743              		.loc 1 206 0
 744 0038 3046     		mov	r0, r6
 745 003a FFF7FEFF 		bl	fifo_get_size
 746              	.LVL50:
 747 003e 0122     		movs	r2, #1
 748 0040 C1B2     		uxtb	r1, r0
 749 0042 05F11400 		add	r0, r5, #20
 750 0046 FFF7FEFF 		bl	modem_interface_transfer_bytes
 751              	.LVL51:
 752              	.L61:
 207:../../shields/Murata-dualstack/src/modem.c ****   return true;
 208:../../shields/Murata-dualstack/src/modem.c **** }
 753              		.loc 1 208 0
 754 004a 2046     		mov	r0, r4
 755 004c 02B0     		add	sp, sp, #8
 756              	.LCFI20:
 757              		.cfi_remember_state
 758              		.cfi_def_cfa_offset 32
 759              		@ sp needed
 760 004e BDE8F087 		pop	{r4, r5, r6, r7, r8, r9, r10, pc}
 761              	.LVL52:
 762              	.L66:
 763              	.LCFI21:
 764              		.cfi_restore_state
ARM GAS  C:\Users\Jola\AppData\Local\Temp\ccXX7Fxd.s 			page 18


 198:../../shields/Murata-dualstack/src/modem.c ****   else if(session_config->interface_type==LORAWAN_OTAA)
 765              		.loc 1 198 0
 766 0052 0C23     		movs	r3, #12
 767 0054 0A9A     		ldr	r2, [sp, #40]
 768 0056 0432     		adds	r2, r2, #4
 769 0058 D721     		movs	r1, #215
 770 005a 0B48     		ldr	r0, .L69+4
 771 005c FFF7FEFF 		bl	alp_append_forward_action
 772              	.LVL53:
 773 0060 E0E7     		b	.L63
 774              	.L67:
 200:../../shields/Murata-dualstack/src/modem.c ****   else if(session_config->interface_type==LORAWAN_ABP)
 775              		.loc 1 200 0
 776 0062 2423     		movs	r3, #36
 777 0064 0A9A     		ldr	r2, [sp, #40]
 778 0066 0432     		adds	r2, r2, #4
 779 0068 0321     		movs	r1, #3
 780 006a 0748     		ldr	r0, .L69+4
 781 006c FFF7FEFF 		bl	alp_append_forward_action
 782              	.LVL54:
 783 0070 D8E7     		b	.L63
 784              	.L68:
 202:../../shields/Murata-dualstack/src/modem.c **** 
 785              		.loc 1 202 0
 786 0072 2C23     		movs	r3, #44
 787 0074 0A9A     		ldr	r2, [sp, #40]
 788 0076 0432     		adds	r2, r2, #4
 789 0078 0221     		movs	r1, #2
 790 007a 0348     		ldr	r0, .L69+4
 791 007c FFF7FEFF 		bl	alp_append_forward_action
 792              	.LVL55:
 793 0080 D0E7     		b	.L63
 794              	.L70:
 795 0082 00BF     		.align	2
 796              	.L69:
 797 0084 00000000 		.word	.LANCHOR0
 798 0088 04000000 		.word	.LANCHOR0+4
 799              		.cfi_endproc
 800              	.LFE136:
 802              		.section	.text.modem_send_raw_unsolicited_response,"ax",%progbits
 803              		.align	1
 804              		.global	modem_send_raw_unsolicited_response
 805              		.syntax unified
 806              		.thumb
 807              		.thumb_func
 808              		.fpu fpv4-sp-d16
 810              	modem_send_raw_unsolicited_response:
 811              	.LFB137:
 209:../../shields/Murata-dualstack/src/modem.c **** 
 210:../../shields/Murata-dualstack/src/modem.c **** bool modem_send_raw_unsolicited_response(uint8_t* alp_command, uint32_t length,
 211:../../shields/Murata-dualstack/src/modem.c ****                                          session_config_t* session_config) {
 812              		.loc 1 211 0
 813              		.cfi_startproc
 814              		@ args = 0, pretend = 0, frame = 0
 815              		@ frame_needed = 0, uses_anonymous_args = 0
 816              	.LVL56:
 817 0000 2DE9F041 		push	{r4, r5, r6, r7, r8, lr}
ARM GAS  C:\Users\Jola\AppData\Local\Temp\ccXX7Fxd.s 			page 19


 818              	.LCFI22:
 819              		.cfi_def_cfa_offset 24
 820              		.cfi_offset 4, -24
 821              		.cfi_offset 5, -20
 822              		.cfi_offset 6, -16
 823              		.cfi_offset 7, -12
 824              		.cfi_offset 8, -8
 825              		.cfi_offset 14, -4
 826 0004 0746     		mov	r7, r0
 827 0006 8846     		mov	r8, r1
 828 0008 1546     		mov	r5, r2
 212:../../shields/Murata-dualstack/src/modem.c ****   if(!alloc_command())
 829              		.loc 1 212 0
 830 000a FFF7FEFF 		bl	alloc_command
 831              	.LVL57:
 832 000e 0446     		mov	r4, r0
 833 0010 B0B1     		cbz	r0, .L72
 213:../../shields/Murata-dualstack/src/modem.c ****     return false;
 214:../../shields/Murata-dualstack/src/modem.c **** 
 215:../../shields/Murata-dualstack/src/modem.c ****    if(session_config->interface_type==DASH7)
 834              		.loc 1 215 0
 835 0012 2B78     		ldrb	r3, [r5]	@ zero_extendqisi2
 836 0014 BBB1     		cbz	r3, .L77
 216:../../shields/Murata-dualstack/src/modem.c ****     alp_append_forward_action(&command.fifo, ALP_ITF_ID_D7ASP, (uint8_t *) &session_config->d7ap_se
 217:../../shields/Murata-dualstack/src/modem.c ****   else if(session_config->interface_type==LORAWAN_OTAA)
 837              		.loc 1 217 0
 838 0016 012B     		cmp	r3, #1
 839 0018 1CD0     		beq	.L78
 218:../../shields/Murata-dualstack/src/modem.c ****     alp_append_forward_action(&command.fifo, ALP_ITF_ID_LORAWAN_OTAA, (uint8_t *) &session_config->
 219:../../shields/Murata-dualstack/src/modem.c ****   else if(session_config->interface_type==LORAWAN_ABP)
 840              		.loc 1 219 0
 841 001a 022B     		cmp	r3, #2
 842 001c 21D0     		beq	.L79
 843              	.L74:
 220:../../shields/Murata-dualstack/src/modem.c ****     alp_append_forward_action(&command.fifo, ALP_ITF_ID_LORAWAN_ABP, (uint8_t *) &session_config->l
 221:../../shields/Murata-dualstack/src/modem.c **** 
 222:../../shields/Murata-dualstack/src/modem.c ****   fifo_put(&command.fifo, alp_command, length);
 844              		.loc 1 222 0
 845 001e 144D     		ldr	r5, .L80
 846              	.LVL58:
 847 0020 2E1D     		adds	r6, r5, #4
 848 0022 1FFA88F2 		uxth	r2, r8
 849 0026 3946     		mov	r1, r7
 850 0028 3046     		mov	r0, r6
 851 002a FFF7FEFF 		bl	fifo_put
 852              	.LVL59:
 223:../../shields/Murata-dualstack/src/modem.c **** 
 224:../../shields/Murata-dualstack/src/modem.c ****   modem_interface_transfer_bytes(command.buffer, fifo_get_size(&command.fifo), SERIAL_MESSAGE_TYPE_
 853              		.loc 1 224 0
 854 002e 3046     		mov	r0, r6
 855 0030 FFF7FEFF 		bl	fifo_get_size
 856              	.LVL60:
 857 0034 0122     		movs	r2, #1
 858 0036 C1B2     		uxtb	r1, r0
 859 0038 05F11400 		add	r0, r5, #20
 860 003c FFF7FEFF 		bl	modem_interface_transfer_bytes
 861              	.LVL61:
ARM GAS  C:\Users\Jola\AppData\Local\Temp\ccXX7Fxd.s 			page 20


 862              	.L72:
 225:../../shields/Murata-dualstack/src/modem.c ****   return true;
 226:../../shields/Murata-dualstack/src/modem.c **** }
 863              		.loc 1 226 0
 864 0040 2046     		mov	r0, r4
 865 0042 BDE8F081 		pop	{r4, r5, r6, r7, r8, pc}
 866              	.LVL62:
 867              	.L77:
 216:../../shields/Murata-dualstack/src/modem.c ****   else if(session_config->interface_type==LORAWAN_OTAA)
 868              		.loc 1 216 0
 869 0046 0C23     		movs	r3, #12
 870 0048 2A1D     		adds	r2, r5, #4
 871 004a D721     		movs	r1, #215
 872 004c 0948     		ldr	r0, .L80+4
 873 004e FFF7FEFF 		bl	alp_append_forward_action
 874              	.LVL63:
 875 0052 E4E7     		b	.L74
 876              	.L78:
 218:../../shields/Murata-dualstack/src/modem.c ****   else if(session_config->interface_type==LORAWAN_ABP)
 877              		.loc 1 218 0
 878 0054 2423     		movs	r3, #36
 879 0056 2A1D     		adds	r2, r5, #4
 880 0058 0321     		movs	r1, #3
 881 005a 0648     		ldr	r0, .L80+4
 882 005c FFF7FEFF 		bl	alp_append_forward_action
 883              	.LVL64:
 884 0060 DDE7     		b	.L74
 885              	.L79:
 220:../../shields/Murata-dualstack/src/modem.c **** 
 886              		.loc 1 220 0
 887 0062 2C23     		movs	r3, #44
 888 0064 2A1D     		adds	r2, r5, #4
 889 0066 0221     		movs	r1, #2
 890 0068 0248     		ldr	r0, .L80+4
 891 006a FFF7FEFF 		bl	alp_append_forward_action
 892              	.LVL65:
 893 006e D6E7     		b	.L74
 894              	.L81:
 895              		.align	2
 896              	.L80:
 897 0070 00000000 		.word	.LANCHOR0
 898 0074 04000000 		.word	.LANCHOR0+4
 899              		.cfi_endproc
 900              	.LFE137:
 902              		.section	.text.modem_get_active_tag_id,"ax",%progbits
 903              		.align	1
 904              		.global	modem_get_active_tag_id
 905              		.syntax unified
 906              		.thumb
 907              		.thumb_func
 908              		.fpu fpv4-sp-d16
 910              	modem_get_active_tag_id:
 911              	.LFB138:
 227:../../shields/Murata-dualstack/src/modem.c **** 
 228:../../shields/Murata-dualstack/src/modem.c **** uint8_t modem_get_active_tag_id()
 229:../../shields/Murata-dualstack/src/modem.c **** {
 912              		.loc 1 229 0
ARM GAS  C:\Users\Jola\AppData\Local\Temp\ccXX7Fxd.s 			page 21


 913              		.cfi_startproc
 914              		@ args = 0, pretend = 0, frame = 0
 915              		@ frame_needed = 0, uses_anonymous_args = 0
 916              		@ link register save eliminated.
 230:../../shields/Murata-dualstack/src/modem.c ****   return next_tag_id;
 231:../../shields/Murata-dualstack/src/modem.c **** }
 917              		.loc 1 231 0
 918 0000 014B     		ldr	r3, .L83
 919 0002 1878     		ldrb	r0, [r3]	@ zero_extendqisi2
 920 0004 7047     		bx	lr
 921              	.L84:
 922 0006 00BF     		.align	2
 923              	.L83:
 924 0008 00000000 		.word	.LANCHOR3
 925              		.cfi_endproc
 926              	.LFE138:
 928              		.section	.bss.callbacks,"aw",%nobits
 929              		.align	2
 930              		.set	.LANCHOR1,. + 0
 933              	callbacks:
 934 0000 00000000 		.space	4
 935              		.section	.bss.command,"aw",%nobits
 936              		.align	2
 937              		.set	.LANCHOR0,. + 0
 940              	command:
 941 0000 00000000 		.space	276
 941      00000000 
 941      00000000 
 941      00000000 
 941      00000000 
 942              		.section	.bss.next_tag_id,"aw",%nobits
 943              		.set	.LANCHOR3,. + 0
 946              	next_tag_id:
 947 0000 00       		.space	1
 948              		.section	.rodata.__func__.5583,"a",%progbits
 949              		.align	2
 950              		.set	.LANCHOR2,. + 0
 953              	__func__.5583:
 954 0000 64376170 		.ascii	"d7ap_addressee_id_length\000"
 954      5F616464 
 954      72657373 
 954      65655F69 
 954      645F6C65 
 955              		.section	.rodata.alloc_command.str1.4,"aMS",%progbits,1
 956              		.align	2
 957              	.LC4:
 958 0000 70726576 		.ascii	"prev command still active\000"
 958      20636F6D 
 958      6D616E64 
 958      20737469 
 958      6C6C2061 
 959              		.section	.rodata.process_serial_frame.str1.4,"aMS",%progbits,1
 960              		.align	2
 961              	.LC0:
 962 0000 72656365 		.ascii	"received resp with unexpected tag_id (%i vs %i)\000"
 962      69766564 
 962      20726573 
ARM GAS  C:\Users\Jola\AppData\Local\Temp\ccXX7Fxd.s 			page 22


 962      70207769 
 962      74682075 
 963              	.LC1:
 964 0030 66616C73 		.ascii	"false\000"
 964      6500
 965 0036 0000     		.space	2
 966              	.LC2:
 967 0038 2E2E2F2E 		.ascii	"../../shields/Murata-dualstack/inc/d7ap.h\000"
 967      2E2F7368 
 967      69656C64 
 967      732F4D75 
 967      72617461 
 968 0062 0000     		.space	2
 969              	.LC3:
 970 0064 756E6B6E 		.ascii	"unknown serial frame\015\000"
 970      6F776E20 
 970      73657269 
 970      616C2066 
 970      72616D65 
 971              		.text
 972              	.Letext0:
 973              		.file 2 "c:\\program files (x86)\\gnu tools arm embedded\\7 2018-q2-update\\arm-none-eabi\\include
 974              		.file 3 "c:\\program files (x86)\\gnu tools arm embedded\\7 2018-q2-update\\arm-none-eabi\\include
 975              		.file 4 "../../shields/Murata-dualstack/inc/d7ap.h"
 976              		.file 5 "../../shields/Murata-dualstack/inc/lorawan_stack.h"
 977              		.file 6 "../../shields/Murata-dualstack/inc/fifo.h"
 978              		.file 7 "../../shields/Murata-dualstack/inc/alp.h"
 979              		.file 8 "../../core/ST/CMSIS/Include/core_cm4.h"
 980              		.file 9 "../../core/ST/CMSIS/Device/ST/STM32L4xx/Include/system_stm32l4xx.h"
 981              		.file 10 "../../core/ST/STM32L4xx_HAL_Driver/Inc/stm32l4xx_hal.h"
 982              		.file 11 "../../shields/Murata-dualstack/inc/modem_interface.h"
 983              		.file 12 "../../shields/Murata-dualstack/inc/modem.h"
 984              		.file 13 "c:\\program files (x86)\\gnu tools arm embedded\\7 2018-q2-update\\arm-none-eabi\\includ
 985              		.file 14 "c:\\program files (x86)\\gnu tools arm embedded\\7 2018-q2-update\\arm-none-eabi\\includ
 986              		.file 15 "c:\\program files (x86)\\gnu tools arm embedded\\7 2018-q2-update\\lib\\gcc\\arm-none-ea
 987              		.file 16 "c:\\program files (x86)\\gnu tools arm embedded\\7 2018-q2-update\\arm-none-eabi\\includ
 988              		.file 17 "c:\\program files (x86)\\gnu tools arm embedded\\7 2018-q2-update\\arm-none-eabi\\includ
 989              		.file 18 "c:\\program files (x86)\\gnu tools arm embedded\\7 2018-q2-update\\arm-none-eabi\\includ
 990              		.file 19 "c:\\program files (x86)\\gnu tools arm embedded\\7 2018-q2-update\\arm-none-eabi\\includ
 991              		.file 20 "<built-in>"
ARM GAS  C:\Users\Jola\AppData\Local\Temp\ccXX7Fxd.s 			page 23

