ARM GAS  C:\Users\Jola\AppData\Local\Temp\ccuKsSLy.s 			page 1


   1              		.cpu cortex-m4
   2              		.eabi_attribute 27, 1
   3              		.eabi_attribute 28, 1
   4              		.eabi_attribute 20, 1
   5              		.eabi_attribute 21, 1
   6              		.eabi_attribute 23, 3
   7              		.eabi_attribute 24, 1
   8              		.eabi_attribute 25, 1
   9              		.eabi_attribute 26, 1
  10              		.eabi_attribute 30, 1
  11              		.eabi_attribute 34, 1
  12              		.eabi_attribute 18, 4
  13              		.file	"murata.c"
  14              		.text
  15              	.Ltext0:
  16              		.cfi_sections	.debug_frame
  17              		.section	.text.on_modem_command_completed_callback,"ax",%progbits
  18              		.align	1
  19              		.global	on_modem_command_completed_callback
  20              		.syntax unified
  21              		.thumb
  22              		.thumb_func
  23              		.fpu fpv4-sp-d16
  25              	on_modem_command_completed_callback:
  26              	.LFB129:
  27              		.file 1 "../../shields/Murata-dualstack/src/murata.c"
   1:../../shields/Murata-dualstack/src/murata.c **** #include "platform.h"
   2:../../shields/Murata-dualstack/src/murata.c **** #include "murata.h"
   3:../../shields/Murata-dualstack/src/murata.c **** 
   4:../../shields/Murata-dualstack/src/murata.c **** uint8_t use_scheduler = 0;
   5:../../shields/Murata-dualstack/src/murata.c **** struct OCTA_header murataHeader;
   6:../../shields/Murata-dualstack/src/murata.c **** 
   7:../../shields/Murata-dualstack/src/murata.c **** session_config_t session_config_lora =
   8:../../shields/Murata-dualstack/src/murata.c ****     {
   9:../../shields/Murata-dualstack/src/murata.c ****         .interface_type = LORAWAN_OTAA,
  10:../../shields/Murata-dualstack/src/murata.c ****         .lorawan_session_config_otaa = {
  11:../../shields/Murata-dualstack/src/murata.c ****             .devEUI = { 0xFF, 0xFF, 0xFF, 0xFF, 0xFF, 0xFF, 0xFF, 0xFF },
  12:../../shields/Murata-dualstack/src/murata.c ****             .appEUI = LORAWAN_APP_EUI,
  13:../../shields/Murata-dualstack/src/murata.c ****             .appKey = LORAWAN_APP_KEY,
  14:../../shields/Murata-dualstack/src/murata.c ****             .request_ack = false,
  15:../../shields/Murata-dualstack/src/murata.c ****             .application_port = 1,
  16:../../shields/Murata-dualstack/src/murata.c ****             .adr_enabled = true,
  17:../../shields/Murata-dualstack/src/murata.c ****             .data_rate = 0}};
  18:../../shields/Murata-dualstack/src/murata.c **** 
  19:../../shields/Murata-dualstack/src/murata.c **** // change qos_resp_mode to SESSION_RESP_MODE_ALL if you want all gateways to receive your message
  20:../../shields/Murata-dualstack/src/murata.c **** // SESSION_RESP_MODE_PREFERRED to only communicate with one (the preferred) gateway
  21:../../shields/Murata-dualstack/src/murata.c **** session_config_t session_config_d7 = {
  22:../../shields/Murata-dualstack/src/murata.c ****   .interface_type = DASH7,
  23:../../shields/Murata-dualstack/src/murata.c ****   .d7ap_session_config = {
  24:../../shields/Murata-dualstack/src/murata.c ****     .qos = {
  25:../../shields/Murata-dualstack/src/murata.c ****         .qos_resp_mode = SESSION_RESP_MODE_PREFERRED, //SESSION_RESP_MODE_ALL,
  26:../../shields/Murata-dualstack/src/murata.c ****         .qos_retry_mode = SESSION_RETRY_MODE_NO
  27:../../shields/Murata-dualstack/src/murata.c ****     },
  28:../../shields/Murata-dualstack/src/murata.c ****     .dormant_timeout = 0,
  29:../../shields/Murata-dualstack/src/murata.c ****     .addressee = {
  30:../../shields/Murata-dualstack/src/murata.c ****         .ctrl = {
  31:../../shields/Murata-dualstack/src/murata.c ****             .nls_method = AES_NONE,
ARM GAS  C:\Users\Jola\AppData\Local\Temp\ccuKsSLy.s 			page 2


  32:../../shields/Murata-dualstack/src/murata.c ****             .id_type = ID_TYPE_NOID
  33:../../shields/Murata-dualstack/src/murata.c ****         },
  34:../../shields/Murata-dualstack/src/murata.c ****         .access_class = 0x01,
  35:../../shields/Murata-dualstack/src/murata.c ****         .id = {0},
  36:../../shields/Murata-dualstack/src/murata.c ****     },
  37:../../shields/Murata-dualstack/src/murata.c ****   }
  38:../../shields/Murata-dualstack/src/murata.c **** };
  39:../../shields/Murata-dualstack/src/murata.c **** 
  40:../../shields/Murata-dualstack/src/murata.c **** /* Init murata lorawan modem */
  41:../../shields/Murata-dualstack/src/murata.c **** modem_callbacks_t modem_callbacks = {
  42:../../shields/Murata-dualstack/src/murata.c ****     .command_completed_callback = &on_modem_command_completed_callback,
  43:../../shields/Murata-dualstack/src/murata.c ****     .return_file_data_callback = &on_modem_return_file_data_callback,
  44:../../shields/Murata-dualstack/src/murata.c ****     .write_file_data_callback = &on_modem_write_file_data_callback,
  45:../../shields/Murata-dualstack/src/murata.c ****     .modem_interface_status_callback = &on_modem_interface_status_callback,
  46:../../shields/Murata-dualstack/src/murata.c ****     .modem_rebooted_callback = &on_modem_reboot_callback,
  47:../../shields/Murata-dualstack/src/murata.c **** };
  48:../../shields/Murata-dualstack/src/murata.c **** 
  49:../../shields/Murata-dualstack/src/murata.c **** void on_modem_command_completed_callback(bool with_error, uint8_t tag_id)
  50:../../shields/Murata-dualstack/src/murata.c **** {
  28              		.loc 1 50 0
  29              		.cfi_startproc
  30              		@ args = 0, pretend = 0, frame = 0
  31              		@ frame_needed = 0, uses_anonymous_args = 0
  32              	.LVL0:
  33 0000 08B5     		push	{r3, lr}
  34              	.LCFI0:
  35              		.cfi_def_cfa_offset 8
  36              		.cfi_offset 3, -8
  37              		.cfi_offset 14, -4
  51:../../shields/Murata-dualstack/src/murata.c ****     printf("Murata modem command with tag %i completed (success = %i)\r\n", tag_id, !with_error);
  38              		.loc 1 51 0
  39 0002 80F00102 		eor	r2, r0, #1
  40 0006 0248     		ldr	r0, .L3
  41              	.LVL1:
  42 0008 FFF7FEFF 		bl	printf
  43              	.LVL2:
  52:../../shields/Murata-dualstack/src/murata.c **** }
  44              		.loc 1 52 0
  45 000c 08BD     		pop	{r3, pc}
  46              	.L4:
  47 000e 00BF     		.align	2
  48              	.L3:
  49 0010 00000000 		.word	.LC0
  50              		.cfi_endproc
  51              	.LFE129:
  53              		.section	.text.on_modem_return_file_data_callback,"ax",%progbits
  54              		.align	1
  55              		.global	on_modem_return_file_data_callback
  56              		.syntax unified
  57              		.thumb
  58              		.thumb_func
  59              		.fpu fpv4-sp-d16
  61              	on_modem_return_file_data_callback:
  62              	.LFB130:
  53:../../shields/Murata-dualstack/src/murata.c **** 
  54:../../shields/Murata-dualstack/src/murata.c **** void on_modem_return_file_data_callback(uint8_t file_id, uint32_t offset, uint32_t size, uint8_t *o
  55:../../shields/Murata-dualstack/src/murata.c **** {
ARM GAS  C:\Users\Jola\AppData\Local\Temp\ccuKsSLy.s 			page 3


  63              		.loc 1 55 0
  64              		.cfi_startproc
  65              		@ args = 0, pretend = 0, frame = 0
  66              		@ frame_needed = 0, uses_anonymous_args = 0
  67              	.LVL3:
  68 0000 00B5     		push	{lr}
  69              	.LCFI1:
  70              		.cfi_def_cfa_offset 4
  71              		.cfi_offset 14, -4
  72 0002 83B0     		sub	sp, sp, #12
  73              	.LCFI2:
  74              		.cfi_def_cfa_offset 16
  56:../../shields/Murata-dualstack/src/murata.c ****     printf("Murata modem return file data file %i offset %li size %li buffer %p\r\n", file_id, offs
  75              		.loc 1 56 0
  76 0004 0093     		str	r3, [sp]
  77 0006 1346     		mov	r3, r2
  78              	.LVL4:
  79 0008 0A46     		mov	r2, r1
  80              	.LVL5:
  81 000a 0146     		mov	r1, r0
  82              	.LVL6:
  83 000c 0248     		ldr	r0, .L7
  84              	.LVL7:
  85 000e FFF7FEFF 		bl	printf
  86              	.LVL8:
  57:../../shields/Murata-dualstack/src/murata.c **** }
  87              		.loc 1 57 0
  88 0012 03B0     		add	sp, sp, #12
  89              	.LCFI3:
  90              		.cfi_def_cfa_offset 4
  91              		@ sp needed
  92 0014 5DF804FB 		ldr	pc, [sp], #4
  93              	.L8:
  94              		.align	2
  95              	.L7:
  96 0018 00000000 		.word	.LC1
  97              		.cfi_endproc
  98              	.LFE130:
 100              		.section	.text.on_modem_write_file_data_callback,"ax",%progbits
 101              		.align	1
 102              		.global	on_modem_write_file_data_callback
 103              		.syntax unified
 104              		.thumb
 105              		.thumb_func
 106              		.fpu fpv4-sp-d16
 108              	on_modem_write_file_data_callback:
 109              	.LFB131:
  58:../../shields/Murata-dualstack/src/murata.c **** 
  59:../../shields/Murata-dualstack/src/murata.c **** void on_modem_write_file_data_callback(uint8_t file_id, uint32_t offset, uint32_t size, uint8_t *ou
  60:../../shields/Murata-dualstack/src/murata.c **** {
 110              		.loc 1 60 0
 111              		.cfi_startproc
 112              		@ args = 0, pretend = 0, frame = 0
 113              		@ frame_needed = 0, uses_anonymous_args = 0
 114              	.LVL9:
 115 0000 00B5     		push	{lr}
 116              	.LCFI4:
ARM GAS  C:\Users\Jola\AppData\Local\Temp\ccuKsSLy.s 			page 4


 117              		.cfi_def_cfa_offset 4
 118              		.cfi_offset 14, -4
 119 0002 83B0     		sub	sp, sp, #12
 120              	.LCFI5:
 121              		.cfi_def_cfa_offset 16
  61:../../shields/Murata-dualstack/src/murata.c ****     printf("Murata modem write file data file %i offset %li size %li buffer %p\r\n", file_id, offse
 122              		.loc 1 61 0
 123 0004 0093     		str	r3, [sp]
 124 0006 1346     		mov	r3, r2
 125              	.LVL10:
 126 0008 0A46     		mov	r2, r1
 127              	.LVL11:
 128 000a 0146     		mov	r1, r0
 129              	.LVL12:
 130 000c 0248     		ldr	r0, .L11
 131              	.LVL13:
 132 000e FFF7FEFF 		bl	printf
 133              	.LVL14:
  62:../../shields/Murata-dualstack/src/murata.c **** }
 134              		.loc 1 62 0
 135 0012 03B0     		add	sp, sp, #12
 136              	.LCFI6:
 137              		.cfi_def_cfa_offset 4
 138              		@ sp needed
 139 0014 5DF804FB 		ldr	pc, [sp], #4
 140              	.L12:
 141              		.align	2
 142              	.L11:
 143 0018 00000000 		.word	.LC2
 144              		.cfi_endproc
 145              	.LFE131:
 147              		.section	.text.on_modem_interface_status_callback,"ax",%progbits
 148              		.align	1
 149              		.global	on_modem_interface_status_callback
 150              		.syntax unified
 151              		.thumb
 152              		.thumb_func
 153              		.fpu fpv4-sp-d16
 155              	on_modem_interface_status_callback:
 156              	.LFB132:
  63:../../shields/Murata-dualstack/src/murata.c **** 
  64:../../shields/Murata-dualstack/src/murata.c **** void on_modem_interface_status_callback(alp_itf_id_t interface_type, uint8_t* data)
  65:../../shields/Murata-dualstack/src/murata.c **** {
 157              		.loc 1 65 0
 158              		.cfi_startproc
 159              		@ args = 0, pretend = 0, frame = 24
 160              		@ frame_needed = 0, uses_anonymous_args = 0
 161              	.LVL15:
 162 0000 F0B5     		push	{r4, r5, r6, r7, lr}
 163              	.LCFI7:
 164              		.cfi_def_cfa_offset 20
 165              		.cfi_offset 4, -20
 166              		.cfi_offset 5, -16
 167              		.cfi_offset 6, -12
 168              		.cfi_offset 7, -8
 169              		.cfi_offset 14, -4
 170 0002 8FB0     		sub	sp, sp, #60
ARM GAS  C:\Users\Jola\AppData\Local\Temp\ccuKsSLy.s 			page 5


 171              	.LCFI8:
 172              		.cfi_def_cfa_offset 80
 173 0004 0C46     		mov	r4, r1
  66:../../shields/Murata-dualstack/src/murata.c ****     if((interface_type==ALP_ITF_ID_LORAWAN_ABP)||(interface_type==ALP_ITF_ID_LORAWAN_OTAA))
 174              		.loc 1 66 0
 175 0006 831E     		subs	r3, r0, #2
 176 0008 DBB2     		uxtb	r3, r3
 177 000a 012B     		cmp	r3, #1
 178 000c 03D9     		bls	.L17
  67:../../shields/Murata-dualstack/src/murata.c ****     {
  68:../../shields/Murata-dualstack/src/murata.c ****         lorawan_session_result_t interface_status = *((lorawan_session_result_t*)data);
  69:../../shields/Murata-dualstack/src/murata.c ****         printf("LoRaWAN interface status: attemps = %d, error state = %d, duty cycle wait time = %d
  70:../../shields/Murata-dualstack/src/murata.c ****                                                                                                    
  71:../../shields/Murata-dualstack/src/murata.c ****                                                                                                    
  72:../../shields/Murata-dualstack/src/murata.c ****     }
  73:../../shields/Murata-dualstack/src/murata.c ****     else if(interface_type==ALP_ITF_ID_D7ASP)
 179              		.loc 1 73 0
 180 000e D728     		cmp	r0, #215
 181 0010 0AD0     		beq	.L18
 182              	.LVL16:
 183              	.L13:
  74:../../shields/Murata-dualstack/src/murata.c ****     {
  75:../../shields/Murata-dualstack/src/murata.c ****         d7ap_session_result_t interface_status = *((d7ap_session_result_t*)data);
  76:../../shields/Murata-dualstack/src/murata.c ****         printf("Dash7 interface status: channel.header =  %d, channel.center_freq_index = %d, rx_le
  77:../../shields/Murata-dualstack/src/murata.c ****                                 interface_status.channel.channel_header, 
  78:../../shields/Murata-dualstack/src/murata.c ****                                 interface_status.channel.center_freq_index, 
  79:../../shields/Murata-dualstack/src/murata.c ****                                 interface_status.rx_level,
  80:../../shields/Murata-dualstack/src/murata.c ****                                 interface_status.link_budget,
  81:../../shields/Murata-dualstack/src/murata.c ****                                 interface_status.link_quality,
  82:../../shields/Murata-dualstack/src/murata.c ****                                 interface_status.target_rx_level,
  83:../../shields/Murata-dualstack/src/murata.c ****                                 interface_status.fifo_token,
  84:../../shields/Murata-dualstack/src/murata.c ****                                 interface_status.seqnr,
  85:../../shields/Murata-dualstack/src/murata.c ****                                 interface_status.response_to,
  86:../../shields/Murata-dualstack/src/murata.c ****                                 interface_status.response_expected);
  87:../../shields/Murata-dualstack/src/murata.c ****     }
  88:../../shields/Murata-dualstack/src/murata.c **** 
  89:../../shields/Murata-dualstack/src/murata.c **** 
  90:../../shields/Murata-dualstack/src/murata.c **** }
 184              		.loc 1 90 0
 185 0012 0FB0     		add	sp, sp, #60
 186              	.LCFI9:
 187              		.cfi_remember_state
 188              		.cfi_def_cfa_offset 20
 189              		@ sp needed
 190 0014 F0BD     		pop	{r4, r5, r6, r7, pc}
 191              	.LVL17:
 192              	.L17:
 193              	.LCFI10:
 194              		.cfi_restore_state
 195              	.LBB2:
  68:../../shields/Murata-dualstack/src/murata.c ****         printf("LoRaWAN interface status: attemps = %d, error state = %d, duty cycle wait time = %d
 196              		.loc 1 68 0
 197 0016 0868     		ldr	r0, [r1]	@ unaligned
 198              	.LVL18:
  69:../../shields/Murata-dualstack/src/murata.c ****                                                                                                    
 199              		.loc 1 69 0
 200 0018 030C     		lsrs	r3, r0, #16
ARM GAS  C:\Users\Jola\AppData\Local\Temp\ccuKsSLy.s 			page 6


 201 001a C0F30722 		ubfx	r2, r0, #8, #8
 202 001e C1B2     		uxtb	r1, r0
 203              	.LVL19:
 204 0020 1748     		ldr	r0, .L19
 205 0022 FFF7FEFF 		bl	printf
 206              	.LVL20:
 207              	.LBE2:
 208 0026 F4E7     		b	.L13
 209              	.LVL21:
 210              	.L18:
 211              	.LBB3:
  75:../../shields/Murata-dualstack/src/murata.c ****         printf("Dash7 interface status: channel.header =  %d, channel.center_freq_index = %d, rx_le
 212              		.loc 1 75 0
 213 0028 08AD     		add	r5, sp, #32
 214 002a 0868     		ldr	r0, [r1]	@ unaligned
 215              	.LVL22:
 216 002c 4968     		ldr	r1, [r1, #4]	@ unaligned
 217              	.LVL23:
 218 002e A268     		ldr	r2, [r4, #8]	@ unaligned
 219 0030 E368     		ldr	r3, [r4, #12]	@ unaligned
 220 0032 0FC5     		stmia	r5!, {r0, r1, r2, r3}
 221 0034 A28A     		ldrh	r2, [r4, #20]	@ unaligned
 222 0036 A37D     		ldrb	r3, [r4, #22]	@ zero_extendqisi2
 223 0038 AA80     		strh	r2, [r5, #4]	@ unaligned
 224 003a AB71     		strb	r3, [r5, #6]
  77:../../shields/Murata-dualstack/src/murata.c ****                                 interface_status.channel.center_freq_index, 
 225              		.loc 1 77 0
 226 003c 9DF82010 		ldrb	r1, [sp, #32]	@ zero_extendqisi2
  78:../../shields/Murata-dualstack/src/murata.c ****                                 interface_status.rx_level,
 227              		.loc 1 78 0
 228 0040 BDF82220 		ldrh	r2, [sp, #34]
  79:../../shields/Murata-dualstack/src/murata.c ****                                 interface_status.link_budget,
 229              		.loc 1 79 0
 230 0044 9DF82430 		ldrb	r3, [sp, #36]	@ zero_extendqisi2
  80:../../shields/Murata-dualstack/src/murata.c ****                                 interface_status.link_quality,
 231              		.loc 1 80 0
 232 0048 9DF82500 		ldrb	r0, [sp, #37]	@ zero_extendqisi2
  81:../../shields/Murata-dualstack/src/murata.c ****                                 interface_status.target_rx_level,
 233              		.loc 1 81 0
 234 004c 9DF82640 		ldrb	r4, [sp, #38]	@ zero_extendqisi2
 235              	.LVL24:
  82:../../shields/Murata-dualstack/src/murata.c ****                                 interface_status.fifo_token,
 236              		.loc 1 82 0
 237 0050 9DF82750 		ldrb	r5, [sp, #39]	@ zero_extendqisi2
  83:../../shields/Murata-dualstack/src/murata.c ****                                 interface_status.seqnr,
 238              		.loc 1 83 0
 239 0054 9DF82960 		ldrb	r6, [sp, #41]	@ zero_extendqisi2
  84:../../shields/Murata-dualstack/src/murata.c ****                                 interface_status.response_to,
 240              		.loc 1 84 0
 241 0058 9DF82A70 		ldrb	r7, [sp, #42]	@ zero_extendqisi2
  85:../../shields/Murata-dualstack/src/murata.c ****                                 interface_status.response_expected);
 242              		.loc 1 85 0
 243 005c 9DF82BC0 		ldrb	ip, [sp, #43]	@ zero_extendqisi2
  86:../../shields/Murata-dualstack/src/murata.c ****     }
 244              		.loc 1 86 0
 245 0060 9DF82CE0 		ldrb	lr, [sp, #44]	@ zero_extendqisi2
  76:../../shields/Murata-dualstack/src/murata.c ****                                 interface_status.channel.channel_header, 
ARM GAS  C:\Users\Jola\AppData\Local\Temp\ccuKsSLy.s 			page 7


 246              		.loc 1 76 0
 247 0064 CDF818E0 		str	lr, [sp, #24]
 248 0068 CDF814C0 		str	ip, [sp, #20]
 249 006c 0497     		str	r7, [sp, #16]
 250 006e 0396     		str	r6, [sp, #12]
 251 0070 0295     		str	r5, [sp, #8]
 252 0072 0194     		str	r4, [sp, #4]
 253 0074 0090     		str	r0, [sp]
 254 0076 0348     		ldr	r0, .L19+4
 255 0078 FFF7FEFF 		bl	printf
 256              	.LVL25:
 257              	.LBE3:
 258              		.loc 1 90 0
 259 007c C9E7     		b	.L13
 260              	.L20:
 261 007e 00BF     		.align	2
 262              	.L19:
 263 0080 00000000 		.word	.LC3
 264 0084 58000000 		.word	.LC4
 265              		.cfi_endproc
 266              	.LFE132:
 268              		.section	.text.on_modem_reboot_callback,"ax",%progbits
 269              		.align	1
 270              		.global	on_modem_reboot_callback
 271              		.syntax unified
 272              		.thumb
 273              		.thumb_func
 274              		.fpu fpv4-sp-d16
 276              	on_modem_reboot_callback:
 277              	.LFB133:
  91:../../shields/Murata-dualstack/src/murata.c **** 
  92:../../shields/Murata-dualstack/src/murata.c **** void on_modem_reboot_callback(void)
  93:../../shields/Murata-dualstack/src/murata.c **** {
 278              		.loc 1 93 0
 279              		.cfi_startproc
 280              		@ args = 0, pretend = 0, frame = 0
 281              		@ frame_needed = 0, uses_anonymous_args = 0
 282 0000 08B5     		push	{r3, lr}
 283              	.LCFI11:
 284              		.cfi_def_cfa_offset 8
 285              		.cfi_offset 3, -8
 286              		.cfi_offset 14, -4
  94:../../shields/Murata-dualstack/src/murata.c ****     printf("Murata murata-dual modem has rebooted \r\n");
 287              		.loc 1 94 0
 288 0002 0348     		ldr	r0, .L23
 289 0004 FFF7FEFF 		bl	puts
 290              	.LVL26:
  95:../../shields/Murata-dualstack/src/murata.c ****     modem_reinit();
 291              		.loc 1 95 0
 292 0008 FFF7FEFF 		bl	modem_reinit
 293              	.LVL27:
  96:../../shields/Murata-dualstack/src/murata.c **** }
 294              		.loc 1 96 0
 295 000c 08BD     		pop	{r3, pc}
 296              	.L24:
 297 000e 00BF     		.align	2
 298              	.L23:
ARM GAS  C:\Users\Jola\AppData\Local\Temp\ccuKsSLy.s 			page 8


 299 0010 00000000 		.word	.LC5
 300              		.cfi_endproc
 301              	.LFE133:
 303              		.section	.text.Murata_Initialize,"ax",%progbits
 304              		.align	1
 305              		.global	Murata_Initialize
 306              		.syntax unified
 307              		.thumb
 308              		.thumb_func
 309              		.fpu fpv4-sp-d16
 311              	Murata_Initialize:
 312              	.LFB134:
  97:../../shields/Murata-dualstack/src/murata.c **** 
  98:../../shields/Murata-dualstack/src/murata.c **** //TODO: use_scheduler in makefiles
  99:../../shields/Murata-dualstack/src/murata.c **** uint8_t Murata_Initialize(uint64_t octa_UID, uint8_t use_RTOS)
 100:../../shields/Murata-dualstack/src/murata.c **** {    
 313              		.loc 1 100 0
 314              		.cfi_startproc
 315              		@ args = 0, pretend = 0, frame = 56
 316              		@ frame_needed = 0, uses_anonymous_args = 0
 317              	.LVL28:
 318 0000 F0B5     		push	{r4, r5, r6, r7, lr}
 319              	.LCFI12:
 320              		.cfi_def_cfa_offset 20
 321              		.cfi_offset 4, -20
 322              		.cfi_offset 5, -16
 323              		.cfi_offset 6, -12
 324              		.cfi_offset 7, -8
 325              		.cfi_offset 14, -4
 326 0002 97B0     		sub	sp, sp, #92
 327              	.LCFI13:
 328              		.cfi_def_cfa_offset 112
 329 0004 CDE91401 		strd	r0, [sp, #80]
 330 0008 1746     		mov	r7, r2
 101:../../shields/Murata-dualstack/src/murata.c ****     printf("***Initializing murata dualstack modem driver***\r\n");
 331              		.loc 1 101 0
 332 000a 2748     		ldr	r0, .L30
 333              	.LVL29:
 334 000c FFF7FEFF 		bl	puts
 335              	.LVL30:
 102:../../shields/Murata-dualstack/src/murata.c **** 
 103:../../shields/Murata-dualstack/src/murata.c ****     #ifndef MURATA_CONNECTOR
 104:../../shields/Murata-dualstack/src/murata.c ****         printf("No MURATA_CONNECTOR provided in Makefile\r\n");
 105:../../shields/Murata-dualstack/src/murata.c ****         return 1;
 106:../../shields/Murata-dualstack/src/murata.c ****     #else
 107:../../shields/Murata-dualstack/src/murata.c ****         murataHeader = platform_getHeader((uint8_t)MURATA_CONNECTOR);
 336              		.loc 1 107 0
 337 0010 264E     		ldr	r6, .L30+4
 338 0012 0121     		movs	r1, #1
 339 0014 08A8     		add	r0, sp, #32
 340 0016 FFF7FEFF 		bl	platform_getHeader
 341              	.LVL31:
 342 001a 3546     		mov	r5, r6
 343 001c 08AC     		add	r4, sp, #32
 344 001e 0FCC     		ldmia	r4!, {r0, r1, r2, r3}
 345 0020 0FC5     		stmia	r5!, {r0, r1, r2, r3}
 346 0022 0FCC     		ldmia	r4!, {r0, r1, r2, r3}
ARM GAS  C:\Users\Jola\AppData\Local\Temp\ccuKsSLy.s 			page 9


 347 0024 0FC5     		stmia	r5!, {r0, r1, r2, r3}
 348 0026 94E80700 		ldm	r4, {r0, r1, r2}
 349 002a 85E80700 		stm	r5, {r0, r1, r2}
 108:../../shields/Murata-dualstack/src/murata.c ****         if(!murataHeader.active)
 350              		.loc 1 108 0
 351 002e 96F82840 		ldrb	r4, [r6, #40]	@ zero_extendqisi2
 352 0032 002C     		cmp	r4, #0
 353 0034 33D0     		beq	.L29
 109:../../shields/Murata-dualstack/src/murata.c ****         {
 110:../../shields/Murata-dualstack/src/murata.c ****             printf("Invalid MURATA_CONNECTOR provided in Makefile\r\n");
 111:../../shields/Murata-dualstack/src/murata.c ****             return 0;  
 112:../../shields/Murata-dualstack/src/murata.c ****         }
 113:../../shields/Murata-dualstack/src/murata.c ****         else
 114:../../shields/Murata-dualstack/src/murata.c ****             printf("Murata on P%d, initializing UART\r\n", (uint8_t)MURATA_CONNECTOR);         
 354              		.loc 1 114 0
 355 0036 0121     		movs	r1, #1
 356 0038 1D48     		ldr	r0, .L30+8
 357 003a FFF7FEFF 		bl	printf
 358              	.LVL32:
 115:../../shields/Murata-dualstack/src/murata.c ****     #endif
 116:../../shields/Murata-dualstack/src/murata.c ****     #ifdef LORAWAN_APP_NAME
 117:../../shields/Murata-dualstack/src/murata.c ****         printf("Using LoRaWAN keys of %s application \r\n", LORAWAN_APP_NAME);
 359              		.loc 1 117 0
 360 003e 1D49     		ldr	r1, .L30+12
 361 0040 1D48     		ldr	r0, .L30+16
 362 0042 FFF7FEFF 		bl	printf
 363              	.LVL33:
 118:../../shields/Murata-dualstack/src/murata.c ****     #endif
 119:../../shields/Murata-dualstack/src/murata.c **** 
 120:../../shields/Murata-dualstack/src/murata.c ****     //copy OCTA UID into lorawan otaa DEV EUI
 121:../../shields/Murata-dualstack/src/murata.c ****     memcpy(session_config_lora.lorawan_session_config_otaa.devEUI, &octa_UID, sizeof(octa_UID));
 364              		.loc 1 121 0
 365 0046 1D4B     		ldr	r3, .L30+20
 366 0048 16AA     		add	r2, sp, #88
 367 004a 12E90300 		ldmdb	r2, {r0, r1}
 368 004e 83E80300 		stm	r3, {r0, r1}
 122:../../shields/Murata-dualstack/src/murata.c **** 
 123:../../shields/Murata-dualstack/src/murata.c ****     // Initialize UART peripheral with driver baudrate
 124:../../shields/Murata-dualstack/src/murata.c ****     platform_initialize_UART(murataHeader, MURATA_BAUDRATE);
 369              		.loc 1 124 0
 370 0052 164E     		ldr	r6, .L30+4
 371 0054 4FF4E133 		mov	r3, #115200
 372 0058 0793     		str	r3, [sp, #28]
 373 005a 6C46     		mov	r4, sp
 374 005c 06F11005 		add	r5, r6, #16
 375 0060 0FCD     		ldmia	r5!, {r0, r1, r2, r3}
 376 0062 0FC4     		stmia	r4!, {r0, r1, r2, r3}
 377 0064 95E80700 		ldm	r5, {r0, r1, r2}
 378 0068 84E80700 		stm	r4, {r0, r1, r2}
 379 006c 96E80F00 		ldm	r6, {r0, r1, r2, r3}
 380 0070 FFF7FEFF 		bl	platform_initialize_UART
 381              	.LVL34:
 125:../../shields/Murata-dualstack/src/murata.c **** 
 126:../../shields/Murata-dualstack/src/murata.c ****     murata_wakeup_pin = murataHeader.DIO1;
 382              		.loc 1 126 0
 383 0074 3269     		ldr	r2, [r6, #16]
 384 0076 124B     		ldr	r3, .L30+24
ARM GAS  C:\Users\Jola\AppData\Local\Temp\ccuKsSLy.s 			page 10


 385 0078 1A60     		str	r2, [r3]
 127:../../shields/Murata-dualstack/src/murata.c ****     murata_reset_pin = murataHeader.DIO6;
 386              		.loc 1 127 0
 387 007a 726A     		ldr	r2, [r6, #36]
 388 007c 114B     		ldr	r3, .L30+28
 389 007e 1A60     		str	r2, [r3]
 128:../../shields/Murata-dualstack/src/murata.c ****     
 129:../../shields/Murata-dualstack/src/murata.c ****     modem_interface_init(murataHeader.uartHandle);
 390              		.loc 1 129 0
 391 0080 7068     		ldr	r0, [r6, #4]
 392 0082 FFF7FEFF 		bl	modem_interface_init
 393              	.LVL35:
 130:../../shields/Murata-dualstack/src/murata.c ****     modem_cb_init(&modem_callbacks);
 394              		.loc 1 130 0
 395 0086 1048     		ldr	r0, .L30+32
 396 0088 FFF7FEFF 		bl	modem_cb_init
 397              	.LVL36:
 131:../../shields/Murata-dualstack/src/murata.c **** 
 132:../../shields/Murata-dualstack/src/murata.c ****     use_scheduler = use_RTOS;
 398              		.loc 1 132 0
 399 008c 0F4B     		ldr	r3, .L30+36
 400 008e 1F70     		strb	r7, [r3]
 133:../../shields/Murata-dualstack/src/murata.c **** 
 134:../../shields/Murata-dualstack/src/murata.c ****     printf("Murata module init OK \r\n\r\n");
 401              		.loc 1 134 0
 402 0090 0F48     		ldr	r0, .L30+40
 403 0092 FFF7FEFF 		bl	puts
 404              	.LVL37:
 135:../../shields/Murata-dualstack/src/murata.c ****     return 1;
 405              		.loc 1 135 0
 406 0096 0124     		movs	r4, #1
 407              	.L27:
 136:../../shields/Murata-dualstack/src/murata.c **** }
 408              		.loc 1 136 0
 409 0098 2046     		mov	r0, r4
 410 009a 17B0     		add	sp, sp, #92
 411              	.LCFI14:
 412              		.cfi_remember_state
 413              		.cfi_def_cfa_offset 20
 414              		@ sp needed
 415 009c F0BD     		pop	{r4, r5, r6, r7, pc}
 416              	.L29:
 417              	.LCFI15:
 418              		.cfi_restore_state
 110:../../shields/Murata-dualstack/src/murata.c ****             return 0;  
 419              		.loc 1 110 0
 420 009e 0D48     		ldr	r0, .L30+44
 421 00a0 FFF7FEFF 		bl	puts
 422              	.LVL38:
 111:../../shields/Murata-dualstack/src/murata.c ****         }
 423              		.loc 1 111 0
 424 00a4 F8E7     		b	.L27
 425              	.L31:
 426 00a6 00BF     		.align	2
 427              	.L30:
 428 00a8 00000000 		.word	.LC6
 429 00ac 00000000 		.word	murataHeader
ARM GAS  C:\Users\Jola\AppData\Local\Temp\ccuKsSLy.s 			page 11


 430 00b0 64000000 		.word	.LC8
 431 00b4 88000000 		.word	.LC9
 432 00b8 94000000 		.word	.LC10
 433 00bc 04000000 		.word	.LANCHOR0+4
 434 00c0 00000000 		.word	murata_wakeup_pin
 435 00c4 00000000 		.word	murata_reset_pin
 436 00c8 00000000 		.word	.LANCHOR1
 437 00cc 00000000 		.word	.LANCHOR2
 438 00d0 BC000000 		.word	.LC11
 439 00d4 34000000 		.word	.LC7
 440              		.cfi_endproc
 441              	.LFE134:
 443              		.section	.text.murata_wakeup,"ax",%progbits
 444              		.align	1
 445              		.global	murata_wakeup
 446              		.syntax unified
 447              		.thumb
 448              		.thumb_func
 449              		.fpu fpv4-sp-d16
 451              	murata_wakeup:
 452              	.LFB135:
 137:../../shields/Murata-dualstack/src/murata.c **** 
 138:../../shields/Murata-dualstack/src/murata.c **** void murata_wakeup(void)
 139:../../shields/Murata-dualstack/src/murata.c **** {
 453              		.loc 1 139 0
 454              		.cfi_startproc
 455              		@ args = 0, pretend = 0, frame = 0
 456              		@ frame_needed = 0, uses_anonymous_args = 0
 457 0000 08B5     		push	{r3, lr}
 458              	.LCFI16:
 459              		.cfi_def_cfa_offset 8
 460              		.cfi_offset 3, -8
 461              		.cfi_offset 14, -4
 140:../../shields/Murata-dualstack/src/murata.c ****     HAL_GPIO_WritePin(murata_wakeup_pin->PORT, murata_wakeup_pin->PIN, GPIO_PIN_SET);
 462              		.loc 1 140 0
 463 0002 044B     		ldr	r3, .L34
 464 0004 1B68     		ldr	r3, [r3]
 465 0006 0122     		movs	r2, #1
 466 0008 9988     		ldrh	r1, [r3, #4]
 467 000a 1868     		ldr	r0, [r3]
 468 000c FFF7FEFF 		bl	HAL_GPIO_WritePin
 469              	.LVL39:
 141:../../shields/Murata-dualstack/src/murata.c **** }
 470              		.loc 1 141 0
 471 0010 08BD     		pop	{r3, pc}
 472              	.L35:
 473 0012 00BF     		.align	2
 474              	.L34:
 475 0014 00000000 		.word	murata_wakeup_pin
 476              		.cfi_endproc
 477              	.LFE135:
 479              		.section	.text.murata_release,"ax",%progbits
 480              		.align	1
 481              		.global	murata_release
 482              		.syntax unified
 483              		.thumb
 484              		.thumb_func
ARM GAS  C:\Users\Jola\AppData\Local\Temp\ccuKsSLy.s 			page 12


 485              		.fpu fpv4-sp-d16
 487              	murata_release:
 488              	.LFB136:
 142:../../shields/Murata-dualstack/src/murata.c **** 
 143:../../shields/Murata-dualstack/src/murata.c **** void murata_release(void)
 144:../../shields/Murata-dualstack/src/murata.c **** {
 489              		.loc 1 144 0
 490              		.cfi_startproc
 491              		@ args = 0, pretend = 0, frame = 0
 492              		@ frame_needed = 0, uses_anonymous_args = 0
 493 0000 08B5     		push	{r3, lr}
 494              	.LCFI17:
 495              		.cfi_def_cfa_offset 8
 496              		.cfi_offset 3, -8
 497              		.cfi_offset 14, -4
 145:../../shields/Murata-dualstack/src/murata.c ****     HAL_GPIO_WritePin(murata_wakeup_pin->PORT, murata_wakeup_pin->PIN, GPIO_PIN_SET);
 498              		.loc 1 145 0
 499 0002 044B     		ldr	r3, .L38
 500 0004 1B68     		ldr	r3, [r3]
 501 0006 0122     		movs	r2, #1
 502 0008 9988     		ldrh	r1, [r3, #4]
 503 000a 1868     		ldr	r0, [r3]
 504 000c FFF7FEFF 		bl	HAL_GPIO_WritePin
 505              	.LVL40:
 146:../../shields/Murata-dualstack/src/murata.c **** }
 506              		.loc 1 146 0
 507 0010 08BD     		pop	{r3, pc}
 508              	.L39:
 509 0012 00BF     		.align	2
 510              	.L38:
 511 0014 00000000 		.word	murata_wakeup_pin
 512              		.cfi_endproc
 513              	.LFE136:
 515              		.section	.text.Murata_toggleResetPin,"ax",%progbits
 516              		.align	1
 517              		.global	Murata_toggleResetPin
 518              		.syntax unified
 519              		.thumb
 520              		.thumb_func
 521              		.fpu fpv4-sp-d16
 523              	Murata_toggleResetPin:
 524              	.LFB137:
 147:../../shields/Murata-dualstack/src/murata.c **** 
 148:../../shields/Murata-dualstack/src/murata.c **** void Murata_toggleResetPin(void)
 149:../../shields/Murata-dualstack/src/murata.c **** {
 525              		.loc 1 149 0
 526              		.cfi_startproc
 527              		@ args = 0, pretend = 0, frame = 0
 528              		@ frame_needed = 0, uses_anonymous_args = 0
 529 0000 10B5     		push	{r4, lr}
 530              	.LCFI18:
 531              		.cfi_def_cfa_offset 8
 532              		.cfi_offset 4, -8
 533              		.cfi_offset 14, -4
 150:../../shields/Murata-dualstack/src/murata.c ****     HAL_GPIO_WritePin(murata_reset_pin->PORT, murata_reset_pin->PIN, GPIO_PIN_RESET);
 534              		.loc 1 150 0
 535 0002 0A4C     		ldr	r4, .L42
ARM GAS  C:\Users\Jola\AppData\Local\Temp\ccuKsSLy.s 			page 13


 536 0004 2368     		ldr	r3, [r4]
 537 0006 0022     		movs	r2, #0
 538 0008 9988     		ldrh	r1, [r3, #4]
 539 000a 1868     		ldr	r0, [r3]
 540 000c FFF7FEFF 		bl	HAL_GPIO_WritePin
 541              	.LVL41:
 151:../../shields/Murata-dualstack/src/murata.c ****     HAL_Delay(50);
 542              		.loc 1 151 0
 543 0010 3220     		movs	r0, #50
 544 0012 FFF7FEFF 		bl	HAL_Delay
 545              	.LVL42:
 152:../../shields/Murata-dualstack/src/murata.c ****     HAL_GPIO_WritePin(murata_reset_pin->PORT, murata_reset_pin->PIN, GPIO_PIN_SET);
 546              		.loc 1 152 0
 547 0016 2368     		ldr	r3, [r4]
 548 0018 0122     		movs	r2, #1
 549 001a 9988     		ldrh	r1, [r3, #4]
 550 001c 1868     		ldr	r0, [r3]
 551 001e FFF7FEFF 		bl	HAL_GPIO_WritePin
 552              	.LVL43:
 153:../../shields/Murata-dualstack/src/murata.c ****     HAL_Delay(1000);
 553              		.loc 1 153 0
 554 0022 4FF47A70 		mov	r0, #1000
 555 0026 FFF7FEFF 		bl	HAL_Delay
 556              	.LVL44:
 154:../../shields/Murata-dualstack/src/murata.c **** }
 557              		.loc 1 154 0
 558 002a 10BD     		pop	{r4, pc}
 559              	.L43:
 560              		.align	2
 561              	.L42:
 562 002c 00000000 		.word	murata_reset_pin
 563              		.cfi_endproc
 564              	.LFE137:
 566              		.section	.text.Murata_SetProcessingThread,"ax",%progbits
 567              		.align	1
 568              		.global	Murata_SetProcessingThread
 569              		.syntax unified
 570              		.thumb
 571              		.thumb_func
 572              		.fpu fpv4-sp-d16
 574              	Murata_SetProcessingThread:
 575              	.LFB138:
 155:../../shields/Murata-dualstack/src/murata.c **** 
 156:../../shields/Murata-dualstack/src/murata.c **** uint8_t Murata_SetProcessingThread(osThreadId aThreadId)
 157:../../shields/Murata-dualstack/src/murata.c **** {
 576              		.loc 1 157 0
 577              		.cfi_startproc
 578              		@ args = 0, pretend = 0, frame = 0
 579              		@ frame_needed = 0, uses_anonymous_args = 0
 580              		@ link register save eliminated.
 581              	.LVL45:
 158:../../shields/Murata-dualstack/src/murata.c ****     threadToNotify = aThreadId;
 582              		.loc 1 158 0
 583 0000 014B     		ldr	r3, .L45
 584 0002 1860     		str	r0, [r3]
 159:../../shields/Murata-dualstack/src/murata.c ****     return 1;
 160:../../shields/Murata-dualstack/src/murata.c **** }
ARM GAS  C:\Users\Jola\AppData\Local\Temp\ccuKsSLy.s 			page 14


 585              		.loc 1 160 0
 586 0004 0120     		movs	r0, #1
 587              	.LVL46:
 588 0006 7047     		bx	lr
 589              	.L46:
 590              		.align	2
 591              	.L45:
 592 0008 00000000 		.word	threadToNotify
 593              		.cfi_endproc
 594              	.LFE138:
 596              		.section	.text.Murata_LoRaWAN_Join,"ax",%progbits
 597              		.align	1
 598              		.global	Murata_LoRaWAN_Join
 599              		.syntax unified
 600              		.thumb
 601              		.thumb_func
 602              		.fpu fpv4-sp-d16
 604              	Murata_LoRaWAN_Join:
 605              	.LFB139:
 161:../../shields/Murata-dualstack/src/murata.c **** 
 162:../../shields/Murata-dualstack/src/murata.c **** uint8_t Murata_LoRaWAN_Join(void)
 163:../../shields/Murata-dualstack/src/murata.c **** {
 606              		.loc 1 163 0
 607              		.cfi_startproc
 608              		@ args = 0, pretend = 0, frame = 0
 609              		@ frame_needed = 0, uses_anonymous_args = 0
 610 0000 10B5     		push	{r4, lr}
 611              	.LCFI19:
 612              		.cfi_def_cfa_offset 8
 613              		.cfi_offset 4, -8
 614              		.cfi_offset 14, -4
 615 0002 82B0     		sub	sp, sp, #8
 616              	.LCFI20:
 617              		.cfi_def_cfa_offset 16
 618              	.LVL47:
 164:../../shields/Murata-dualstack/src/murata.c ****     uint8_t status = 0;
 165:../../shields/Murata-dualstack/src/murata.c ****     status = modem_send_unsolicited_response(0x40, 0, 0, 0, &session_config_lora);
 619              		.loc 1 165 0
 620 0004 074B     		ldr	r3, .L49
 621 0006 0093     		str	r3, [sp]
 622 0008 0023     		movs	r3, #0
 623 000a 1A46     		mov	r2, r3
 624 000c 1946     		mov	r1, r3
 625 000e 4020     		movs	r0, #64
 626 0010 FFF7FEFF 		bl	modem_send_unsolicited_response
 627              	.LVL48:
 628 0014 0446     		mov	r4, r0
 629              	.LVL49:
 166:../../shields/Murata-dualstack/src/murata.c ****     printf("Joining the LoRaWAN Network\r\n");
 630              		.loc 1 166 0
 631 0016 0448     		ldr	r0, .L49+4
 632 0018 FFF7FEFF 		bl	puts
 633              	.LVL50:
 167:../../shields/Murata-dualstack/src/murata.c ****     return status;
 168:../../shields/Murata-dualstack/src/murata.c **** }
 634              		.loc 1 168 0
 635 001c 2046     		mov	r0, r4
ARM GAS  C:\Users\Jola\AppData\Local\Temp\ccuKsSLy.s 			page 15


 636 001e 02B0     		add	sp, sp, #8
 637              	.LCFI21:
 638              		.cfi_def_cfa_offset 8
 639              		@ sp needed
 640 0020 10BD     		pop	{r4, pc}
 641              	.LVL51:
 642              	.L50:
 643 0022 00BF     		.align	2
 644              	.L49:
 645 0024 00000000 		.word	.LANCHOR0
 646 0028 00000000 		.word	.LC12
 647              		.cfi_endproc
 648              	.LFE139:
 650              		.section	.text.Murata_LoRaWAN_Send,"ax",%progbits
 651              		.align	1
 652              		.global	Murata_LoRaWAN_Send
 653              		.syntax unified
 654              		.thumb
 655              		.thumb_func
 656              		.fpu fpv4-sp-d16
 658              	Murata_LoRaWAN_Send:
 659              	.LFB140:
 169:../../shields/Murata-dualstack/src/murata.c **** 
 170:../../shields/Murata-dualstack/src/murata.c **** uint8_t Murata_LoRaWAN_Send(uint8_t *buffer, uint8_t length)
 171:../../shields/Murata-dualstack/src/murata.c **** {
 660              		.loc 1 171 0
 661              		.cfi_startproc
 662              		@ args = 0, pretend = 0, frame = 0
 663              		@ frame_needed = 0, uses_anonymous_args = 0
 664              	.LVL52:
 665 0000 30B5     		push	{r4, r5, lr}
 666              	.LCFI22:
 667              		.cfi_def_cfa_offset 12
 668              		.cfi_offset 4, -12
 669              		.cfi_offset 5, -8
 670              		.cfi_offset 14, -4
 671 0002 83B0     		sub	sp, sp, #12
 672              	.LCFI23:
 673              		.cfi_def_cfa_offset 24
 674 0004 0C46     		mov	r4, r1
 675              	.LVL53:
 172:../../shields/Murata-dualstack/src/murata.c ****     uint8_t status = 0;
 173:../../shields/Murata-dualstack/src/murata.c ****     status = modem_send_unsolicited_response(0x40, 0, length, (uint8_t *)buffer, &session_config_lo
 676              		.loc 1 173 0
 677 0006 084B     		ldr	r3, .L53
 678 0008 0093     		str	r3, [sp]
 679 000a 0346     		mov	r3, r0
 680 000c 0A46     		mov	r2, r1
 681 000e 0021     		movs	r1, #0
 682              	.LVL54:
 683 0010 4020     		movs	r0, #64
 684              	.LVL55:
 685 0012 FFF7FEFF 		bl	modem_send_unsolicited_response
 686              	.LVL56:
 687 0016 0546     		mov	r5, r0
 688              	.LVL57:
 174:../../shields/Murata-dualstack/src/murata.c ****     printf("Sending LoRaWAN message with payload size %d\r\n", length);
ARM GAS  C:\Users\Jola\AppData\Local\Temp\ccuKsSLy.s 			page 16


 689              		.loc 1 174 0
 690 0018 2146     		mov	r1, r4
 691 001a 0448     		ldr	r0, .L53+4
 692 001c FFF7FEFF 		bl	printf
 693              	.LVL58:
 175:../../shields/Murata-dualstack/src/murata.c ****     return status;
 176:../../shields/Murata-dualstack/src/murata.c **** }
 694              		.loc 1 176 0
 695 0020 2846     		mov	r0, r5
 696 0022 03B0     		add	sp, sp, #12
 697              	.LCFI24:
 698              		.cfi_def_cfa_offset 12
 699              		@ sp needed
 700 0024 30BD     		pop	{r4, r5, pc}
 701              	.LVL59:
 702              	.L54:
 703 0026 00BF     		.align	2
 704              	.L53:
 705 0028 00000000 		.word	.LANCHOR0
 706 002c 00000000 		.word	.LC13
 707              		.cfi_endproc
 708              	.LFE140:
 710              		.section	.text.Murata_Dash7_Send,"ax",%progbits
 711              		.align	1
 712              		.global	Murata_Dash7_Send
 713              		.syntax unified
 714              		.thumb
 715              		.thumb_func
 716              		.fpu fpv4-sp-d16
 718              	Murata_Dash7_Send:
 719              	.LFB141:
 177:../../shields/Murata-dualstack/src/murata.c **** 
 178:../../shields/Murata-dualstack/src/murata.c **** 
 179:../../shields/Murata-dualstack/src/murata.c **** 
 180:../../shields/Murata-dualstack/src/murata.c **** uint8_t Murata_Dash7_Send(uint8_t *buffer, uint8_t length)
 181:../../shields/Murata-dualstack/src/murata.c **** {
 720              		.loc 1 181 0
 721              		.cfi_startproc
 722              		@ args = 0, pretend = 0, frame = 0
 723              		@ frame_needed = 0, uses_anonymous_args = 0
 724              	.LVL60:
 725 0000 30B5     		push	{r4, r5, lr}
 726              	.LCFI25:
 727              		.cfi_def_cfa_offset 12
 728              		.cfi_offset 4, -12
 729              		.cfi_offset 5, -8
 730              		.cfi_offset 14, -4
 731 0002 83B0     		sub	sp, sp, #12
 732              	.LCFI26:
 733              		.cfi_def_cfa_offset 24
 734 0004 0C46     		mov	r4, r1
 735              	.LVL61:
 182:../../shields/Murata-dualstack/src/murata.c ****     uint8_t status = 0;
 183:../../shields/Murata-dualstack/src/murata.c ****     status = modem_send_unsolicited_response(0x40, 0, length, (uint8_t *)buffer, &session_config_d7
 736              		.loc 1 183 0
 737 0006 084B     		ldr	r3, .L57
 738 0008 0093     		str	r3, [sp]
ARM GAS  C:\Users\Jola\AppData\Local\Temp\ccuKsSLy.s 			page 17


 739 000a 0346     		mov	r3, r0
 740 000c 0A46     		mov	r2, r1
 741 000e 0021     		movs	r1, #0
 742              	.LVL62:
 743 0010 4020     		movs	r0, #64
 744              	.LVL63:
 745 0012 FFF7FEFF 		bl	modem_send_unsolicited_response
 746              	.LVL64:
 747 0016 0546     		mov	r5, r0
 748              	.LVL65:
 184:../../shields/Murata-dualstack/src/murata.c ****     printf("Sending Dash7 message with payload size %d\r\n", length);
 749              		.loc 1 184 0
 750 0018 2146     		mov	r1, r4
 751 001a 0448     		ldr	r0, .L57+4
 752 001c FFF7FEFF 		bl	printf
 753              	.LVL66:
 185:../../shields/Murata-dualstack/src/murata.c ****     return status;
 186:../../shields/Murata-dualstack/src/murata.c **** }
 754              		.loc 1 186 0
 755 0020 2846     		mov	r0, r5
 756 0022 03B0     		add	sp, sp, #12
 757              	.LCFI27:
 758              		.cfi_def_cfa_offset 12
 759              		@ sp needed
 760 0024 30BD     		pop	{r4, r5, pc}
 761              	.LVL67:
 762              	.L58:
 763 0026 00BF     		.align	2
 764              	.L57:
 765 0028 00000000 		.word	.LANCHOR3
 766 002c 00000000 		.word	.LC14
 767              		.cfi_endproc
 768              	.LFE141:
 770              		.section	.text.Murata_process_fifo,"ax",%progbits
 771              		.align	1
 772              		.global	Murata_process_fifo
 773              		.syntax unified
 774              		.thumb
 775              		.thumb_func
 776              		.fpu fpv4-sp-d16
 778              	Murata_process_fifo:
 779              	.LFB142:
 187:../../shields/Murata-dualstack/src/murata.c **** 
 188:../../shields/Murata-dualstack/src/murata.c **** uint8_t Murata_process_fifo(void)
 189:../../shields/Murata-dualstack/src/murata.c **** {
 780              		.loc 1 189 0
 781              		.cfi_startproc
 782              		@ args = 0, pretend = 0, frame = 0
 783              		@ frame_needed = 0, uses_anonymous_args = 0
 784 0000 08B5     		push	{r3, lr}
 785              	.LCFI28:
 786              		.cfi_def_cfa_offset 8
 787              		.cfi_offset 3, -8
 788              		.cfi_offset 14, -4
 190:../../shields/Murata-dualstack/src/murata.c ****     return modem_process_fifo();
 789              		.loc 1 190 0
 790 0002 FFF7FEFF 		bl	modem_process_fifo
ARM GAS  C:\Users\Jola\AppData\Local\Temp\ccuKsSLy.s 			page 18


 791              	.LVL68:
 191:../../shields/Murata-dualstack/src/murata.c **** }
 792              		.loc 1 191 0
 793 0006 C0B2     		uxtb	r0, r0
 794 0008 08BD     		pop	{r3, pc}
 795              		.cfi_endproc
 796              	.LFE142:
 798              		.section	.text.Murata_rxCallback,"ax",%progbits
 799              		.align	1
 800              		.global	Murata_rxCallback
 801              		.syntax unified
 802              		.thumb
 803              		.thumb_func
 804              		.fpu fpv4-sp-d16
 806              	Murata_rxCallback:
 807              	.LFB143:
 192:../../shields/Murata-dualstack/src/murata.c **** 
 193:../../shields/Murata-dualstack/src/murata.c **** void Murata_rxCallback(void)
 194:../../shields/Murata-dualstack/src/murata.c **** {
 808              		.loc 1 194 0
 809              		.cfi_startproc
 810              		@ args = 0, pretend = 0, frame = 0
 811              		@ frame_needed = 0, uses_anonymous_args = 0
 812 0000 08B5     		push	{r3, lr}
 813              	.LCFI29:
 814              		.cfi_def_cfa_offset 8
 815              		.cfi_offset 3, -8
 816              		.cfi_offset 14, -4
 195:../../shields/Murata-dualstack/src/murata.c ****     uart_rx_cb();
 817              		.loc 1 195 0
 818 0002 FFF7FEFF 		bl	uart_rx_cb
 819              	.LVL69:
 196:../../shields/Murata-dualstack/src/murata.c ****     if(use_scheduler)
 820              		.loc 1 196 0
 821 0006 044B     		ldr	r3, .L65
 822 0008 1B78     		ldrb	r3, [r3]	@ zero_extendqisi2
 823 000a 03B9     		cbnz	r3, .L64
 824              	.L61:
 197:../../shields/Murata-dualstack/src/murata.c ****     {
 198:../../shields/Murata-dualstack/src/murata.c ****         //start rx processing thread
 199:../../shields/Murata-dualstack/src/murata.c ****         RTOS_Send_Notification(threadToNotify);
 200:../../shields/Murata-dualstack/src/murata.c ****     }
 201:../../shields/Murata-dualstack/src/murata.c **** }
 825              		.loc 1 201 0
 826 000c 08BD     		pop	{r3, pc}
 827              	.L64:
 199:../../shields/Murata-dualstack/src/murata.c ****     }
 828              		.loc 1 199 0
 829 000e 034B     		ldr	r3, .L65+4
 830 0010 1868     		ldr	r0, [r3]
 831 0012 FFF7FEFF 		bl	RTOS_Send_Notification
 832              	.LVL70:
 833              		.loc 1 201 0
 834 0016 F9E7     		b	.L61
 835              	.L66:
 836              		.align	2
 837              	.L65:
ARM GAS  C:\Users\Jola\AppData\Local\Temp\ccuKsSLy.s 			page 19


 838 0018 00000000 		.word	.LANCHOR2
 839 001c 00000000 		.word	threadToNotify
 840              		.cfi_endproc
 841              	.LFE143:
 843              		.global	modem_callbacks
 844              		.global	session_config_d7
 845              		.global	session_config_lora
 846              		.comm	murataHeader,44,4
 847              		.global	use_scheduler
 848              		.comm	threadToNotify,4,4
 849              		.comm	murata_reset_pin,4,4
 850              		.comm	murata_wakeup_pin,4,4
 851              		.comm	P3_header,44,4
 852              		.comm	P2_header,44,4
 853              		.comm	P1_header,44,4
 854              		.comm	FLASH_SPI,100,4
 855              		.comm	P3_SPI,100,4
 856              		.comm	P2_SPI,100,4
 857              		.comm	P1_SPI,100,4
 858              		.comm	P3_I2C,76,4
 859              		.comm	P2_I2C,76,4
 860              		.comm	P1_I2C,76,4
 861              		.comm	common_I2C,76,4
 862              		.comm	P3_UART,120,4
 863              		.comm	P2_UART,120,4
 864              		.comm	P1_UART,120,4
 865              		.comm	BLE_UART,120,4
 866              		.comm	USB_UART,120,4
 867              		.comm	hiwdg,16,4
 868              		.comm	P3_DIO6,8,4
 869              		.comm	P3_DIO5,8,4
 870              		.comm	P3_DIO4,8,4
 871              		.comm	P3_DIO3,8,4
 872              		.comm	P3_DIO2,8,4
 873              		.comm	P3_DIO1,8,4
 874              		.comm	P2_DIO6,8,4
 875              		.comm	P2_DIO5,8,4
 876              		.comm	P2_DIO4,8,4
 877              		.comm	P2_DIO3,8,4
 878              		.comm	P2_DIO2,8,4
 879              		.comm	P2_DIO1,8,4
 880              		.comm	P1_DIO6,8,4
 881              		.comm	P1_DIO5,8,4
 882              		.comm	P1_DIO4,8,4
 883              		.comm	P1_DIO3,8,4
 884              		.comm	P1_DIO2,8,4
 885              		.comm	P1_DIO1,8,4
 886              		.section	.bss.use_scheduler,"aw",%nobits
 887              		.set	.LANCHOR2,. + 0
 890              	use_scheduler:
 891 0000 00       		.space	1
 892              		.section	.data.modem_callbacks,"aw",%progbits
 893              		.align	2
 894              		.set	.LANCHOR1,. + 0
 897              	modem_callbacks:
 898 0000 00000000 		.word	on_modem_command_completed_callback
 899 0004 00000000 		.word	on_modem_interface_status_callback
ARM GAS  C:\Users\Jola\AppData\Local\Temp\ccuKsSLy.s 			page 20


 900 0008 00000000 		.word	on_modem_return_file_data_callback
 901 000c 00000000 		.word	on_modem_write_file_data_callback
 902 0010 00000000 		.word	on_modem_reboot_callback
 903              		.section	.data.session_config_d7,"aw",%progbits
 904              		.align	2
 905              		.set	.LANCHOR3,. + 0
 908              	session_config_d7:
 909 0000 00       		.byte	0
 910 0001 000000   		.space	3
 911 0004 06       		.byte	6
 912 0005 00       		.byte	0
 913 0006 10       		.byte	16
 914 0007 01       		.byte	1
 915 0008 00       		.byte	0
 916 0009 00000000 		.space	7
 916      000000
 917 0010 00000000 		.space	32
 917      00000000 
 917      00000000 
 917      00000000 
 917      00000000 
 918              		.section	.data.session_config_lora,"aw",%progbits
 919              		.align	2
 920              		.set	.LANCHOR0,. + 0
 923              	session_config_lora:
 924 0000 01       		.byte	1
 925 0001 000000   		.space	3
 926 0004 FF       		.byte	-1
 927 0005 FF       		.byte	-1
 928 0006 FF       		.byte	-1
 929 0007 FF       		.byte	-1
 930 0008 FF       		.byte	-1
 931 0009 FF       		.byte	-1
 932 000a FF       		.byte	-1
 933 000b FF       		.byte	-1
 934 000c 70       		.byte	112
 935 000d B3       		.byte	-77
 936 000e D5       		.byte	-43
 937 000f 7E       		.byte	126
 938 0010 D0       		.byte	-48
 939 0011 02       		.byte	2
 940 0012 37       		.byte	55
 941 0013 4D       		.byte	77
 942 0014 E1       		.byte	-31
 943 0015 1F       		.byte	31
 944 0016 02       		.byte	2
 945 0017 0D       		.byte	13
 946 0018 A3       		.byte	-93
 947 0019 CC       		.byte	-52
 948 001a FB       		.byte	-5
 949 001b 4D       		.byte	77
 950 001c 23       		.byte	35
 951 001d 18       		.byte	24
 952 001e C0       		.byte	-64
 953 001f A9       		.byte	-87
 954 0020 C4       		.byte	-60
 955 0021 00       		.byte	0
ARM GAS  C:\Users\Jola\AppData\Local\Temp\ccuKsSLy.s 			page 21


 956 0022 86       		.byte	-122
 957 0023 4A       		.byte	74
 958 0024 00       		.byte	0
 959 0025 01       		.byte	1
 960 0026 01       		.byte	1
 961 0027 00       		.byte	0
 962 0028 00000000 		.space	8
 962      00000000 
 963              		.section	.rodata.Murata_Dash7_Send.str1.4,"aMS",%progbits,1
 964              		.align	2
 965              	.LC14:
 966 0000 53656E64 		.ascii	"Sending Dash7 message with payload size %d\015\012\000"
 966      696E6720 
 966      44617368 
 966      37206D65 
 966      73736167 
 967              		.section	.rodata.Murata_Initialize.str1.4,"aMS",%progbits,1
 968              		.align	2
 969              	.LC6:
 970 0000 2A2A2A49 		.ascii	"***Initializing murata dualstack modem driver***\015"
 970      6E697469 
 970      616C697A 
 970      696E6720 
 970      6D757261 
 971 0031 00       		.ascii	"\000"
 972 0032 0000     		.space	2
 973              	.LC7:
 974 0034 496E7661 		.ascii	"Invalid MURATA_CONNECTOR provided in Makefile\015\000"
 974      6C696420 
 974      4D555241 
 974      54415F43 
 974      4F4E4E45 
 975 0063 00       		.space	1
 976              	.LC8:
 977 0064 4D757261 		.ascii	"Murata on P%d, initializing UART\015\012\000"
 977      7461206F 
 977      6E205025 
 977      642C2069 
 977      6E697469 
 978 0087 00       		.space	1
 979              	.LC9:
 980 0088 4C502049 		.ascii	"LP IoT Test\000"
 980      6F542054 
 980      65737400 
 981              	.LC10:
 982 0094 5573696E 		.ascii	"Using LoRaWAN keys of %s application \015\012\000"
 982      67204C6F 
 982      52615741 
 982      4E206B65 
 982      7973206F 
 983              	.LC11:
 984 00bc 4D757261 		.ascii	"Murata module init OK \015\012\015\000"
 984      7461206D 
 984      6F64756C 
 984      6520696E 
 984      6974204F 
 985              		.section	.rodata.Murata_LoRaWAN_Join.str1.4,"aMS",%progbits,1
ARM GAS  C:\Users\Jola\AppData\Local\Temp\ccuKsSLy.s 			page 22


 986              		.align	2
 987              	.LC12:
 988 0000 4A6F696E 		.ascii	"Joining the LoRaWAN Network\015\000"
 988      696E6720 
 988      74686520 
 988      4C6F5261 
 988      57414E20 
 989              		.section	.rodata.Murata_LoRaWAN_Send.str1.4,"aMS",%progbits,1
 990              		.align	2
 991              	.LC13:
 992 0000 53656E64 		.ascii	"Sending LoRaWAN message with payload size %d\015\012"
 992      696E6720 
 992      4C6F5261 
 992      57414E20 
 992      6D657373 
 993 002e 00       		.ascii	"\000"
 994              		.section	.rodata.on_modem_command_completed_callback.str1.4,"aMS",%progbits,1
 995              		.align	2
 996              	.LC0:
 997 0000 4D757261 		.ascii	"Murata modem command with tag %i completed (success"
 997      7461206D 
 997      6F64656D 
 997      20636F6D 
 997      6D616E64 
 998 0033 203D2025 		.ascii	" = %i)\015\012\000"
 998      69290D0A 
 998      00
 999              		.section	.rodata.on_modem_interface_status_callback.str1.4,"aMS",%progbits,1
 1000              		.align	2
 1001              	.LC3:
 1002 0000 4C6F5261 		.ascii	"LoRaWAN interface status: attemps = %d, error state"
 1002      57414E20 
 1002      696E7465 
 1002      72666163 
 1002      65207374 
 1003 0033 203D2025 		.ascii	" = %d, duty cycle wait time = %d \015\012\000"
 1003      642C2064 
 1003      75747920 
 1003      6379636C 
 1003      65207761 
 1004 0057 00       		.space	1
 1005              	.LC4:
 1006 0058 44617368 		.ascii	"Dash7 interface status: channel.header =  %d, chann"
 1006      3720696E 
 1006      74657266 
 1006      61636520 
 1006      73746174 
 1007 008b 656C2E63 		.ascii	"el.center_freq_index = %d, rx_level = %d, link_budg"
 1007      656E7465 
 1007      725F6672 
 1007      65715F69 
 1007      6E646578 
 1008 00be 6574203D 		.ascii	"et = %d, link_quality = %d, target_rx_level = %d, f"
 1008      2025642C 
 1008      206C696E 
 1008      6B5F7175 
 1008      616C6974 
ARM GAS  C:\Users\Jola\AppData\Local\Temp\ccuKsSLy.s 			page 23


 1009 00f1 69666F5F 		.ascii	"ifo_token = %d, seqnr = %d, response_to = %d, respo"
 1009      746F6B65 
 1009      6E203D20 
 1009      25642C20 
 1009      7365716E 
 1010 0124 6E73655F 		.ascii	"nse_expected = %d \015\012\000"
 1010      65787065 
 1010      63746564 
 1010      203D2025 
 1010      64200D0A 
 1011              		.section	.rodata.on_modem_reboot_callback.str1.4,"aMS",%progbits,1
 1012              		.align	2
 1013              	.LC5:
 1014 0000 4D757261 		.ascii	"Murata murata-dual modem has rebooted \015\000"
 1014      7461206D 
 1014      75726174 
 1014      612D6475 
 1014      616C206D 
 1015              		.section	.rodata.on_modem_return_file_data_callback.str1.4,"aMS",%progbits,1
 1016              		.align	2
 1017              	.LC1:
 1018 0000 4D757261 		.ascii	"Murata modem return file data file %i offset %li si"
 1018      7461206D 
 1018      6F64656D 
 1018      20726574 
 1018      75726E20 
 1019 0033 7A652025 		.ascii	"ze %li buffer %p\015\012\000"
 1019      6C692062 
 1019      75666665 
 1019      72202570 
 1019      0D0A00
 1020              		.section	.rodata.on_modem_write_file_data_callback.str1.4,"aMS",%progbits,1
 1021              		.align	2
 1022              	.LC2:
 1023 0000 4D757261 		.ascii	"Murata modem write file data file %i offset %li siz"
 1023      7461206D 
 1023      6F64656D 
 1023      20777269 
 1023      74652066 
 1024 0033 6520256C 		.ascii	"e %li buffer %p\015\012\000"
 1024      69206275 
 1024      66666572 
 1024      2025700D 
 1024      0A00
 1025              		.text
 1026              	.Letext0:
 1027              		.file 2 "c:\\program files (x86)\\gnu tools arm embedded\\7 2018-q2-update\\arm-none-eabi\\include
 1028              		.file 3 "c:\\program files (x86)\\gnu tools arm embedded\\7 2018-q2-update\\arm-none-eabi\\include
 1029              		.file 4 "../../core/ST/CMSIS/Include/core_cm4.h"
 1030              		.file 5 "../../core/ST/CMSIS/Device/ST/STM32L4xx/Include/system_stm32l4xx.h"
 1031              		.file 6 "../../core/ST/CMSIS/Device/ST/STM32L4xx/Include/stm32l496xx.h"
 1032              		.file 7 "../../core/ST/STM32L4xx_HAL_Driver/Inc/stm32l4xx_hal_def.h"
 1033              		.file 8 "../../core/ST/STM32L4xx_HAL_Driver/Inc/stm32l4xx_hal_gpio.h"
 1034              		.file 9 "../../core/ST/STM32L4xx_HAL_Driver/Inc/stm32l4xx_hal_dma.h"
 1035              		.file 10 "../../core/ST/STM32L4xx_HAL_Driver/Inc/stm32l4xx_hal_i2c.h"
 1036              		.file 11 "../../core/ST/STM32L4xx_HAL_Driver/Inc/stm32l4xx_hal_iwdg.h"
 1037              		.file 12 "../../core/ST/STM32L4xx_HAL_Driver/Inc/stm32l4xx_hal_spi.h"
ARM GAS  C:\Users\Jola\AppData\Local\Temp\ccuKsSLy.s 			page 24


 1038              		.file 13 "../../core/ST/STM32L4xx_HAL_Driver/Inc/stm32l4xx_hal_uart.h"
 1039              		.file 14 "../../core/ST/STM32L4xx_HAL_Driver/Inc/stm32l4xx_hal.h"
 1040              		.file 15 "../../core/ST/Middlewares/Third_Party/FreeRTOS/Source/include/task.h"
 1041              		.file 16 "../../core/ST/Middlewares/Third_Party/FreeRTOS/Source/CMSIS_RTOS/cmsis_os.h"
 1042              		.file 17 "../../core/platform/octa/inc/gpio.h"
 1043              		.file 18 "../../core/platform/octa/inc/iwdg.h"
 1044              		.file 19 "../../core/platform/octa/inc/uart.h"
 1045              		.file 20 "../../core/platform/octa/inc/i2c.h"
 1046              		.file 21 "../../core/platform/octa/inc/spi.h"
 1047              		.file 22 "../../core/platform/octa/inc/octa.h"
 1048              		.file 23 "../../shields/Murata-dualstack/inc/d7ap.h"
 1049              		.file 24 "../../shields/Murata-dualstack/inc/lorawan_stack.h"
 1050              		.file 25 "../../shields/Murata-dualstack/inc/alp.h"
 1051              		.file 26 "../../shields/Murata-dualstack/inc/modem_interface.h"
 1052              		.file 27 "../../shields/Murata-dualstack/inc/modem.h"
 1053              		.file 28 "../../shields/Murata-dualstack/inc/murata.h"
 1054              		.file 29 "<built-in>"
 1055              		.file 30 "../../core/platform/octa/inc/rtosmacros.h"
ARM GAS  C:\Users\Jola\AppData\Local\Temp\ccuKsSLy.s 			page 25

