ARM GAS  C:\Users\Jola\AppData\Local\Temp\ccDbcO8H.s 			page 1


   1              		.cpu cortex-m4
   2              		.eabi_attribute 27, 1
   3              		.eabi_attribute 28, 1
   4              		.eabi_attribute 20, 1
   5              		.eabi_attribute 21, 1
   6              		.eabi_attribute 23, 3
   7              		.eabi_attribute 24, 1
   8              		.eabi_attribute 25, 1
   9              		.eabi_attribute 26, 1
  10              		.eabi_attribute 30, 1
  11              		.eabi_attribute 34, 1
  12              		.eabi_attribute 18, 4
  13              		.file	"octa.c"
  14              		.text
  15              	.Ltext0:
  16              		.cfi_sections	.debug_frame
  17              		.section	.text.OCTA_NVIC_Initialize,"ax",%progbits
  18              		.align	1
  19              		.global	OCTA_NVIC_Initialize
  20              		.syntax unified
  21              		.thumb
  22              		.thumb_func
  23              		.fpu fpv4-sp-d16
  25              	OCTA_NVIC_Initialize:
  26              	.LFB128:
  27              		.file 1 "../../core/platform/octa/src/octa.c"
   1:../../core/platform/octa/src/octa.c **** #include "octa.h"
   2:../../core/platform/octa/src/octa.c **** 
   3:../../core/platform/octa/src/octa.c **** void OCTA_NVIC_Initialize(){
  28              		.loc 1 3 0
  29              		.cfi_startproc
  30              		@ args = 0, pretend = 0, frame = 0
  31              		@ frame_needed = 0, uses_anonymous_args = 0
  32 0000 08B5     		push	{r3, lr}
  33              	.LCFI0:
  34              		.cfi_def_cfa_offset 8
  35              		.cfi_offset 3, -8
  36              		.cfi_offset 14, -4
   4:../../core/platform/octa/src/octa.c **** 
   5:../../core/platform/octa/src/octa.c ****   /* EXTI5_IRQn interrupt configuration */
   6:../../core/platform/octa/src/octa.c ****   HAL_NVIC_SetPriority(23, 2, 0);
  37              		.loc 1 6 0
  38 0002 0022     		movs	r2, #0
  39 0004 0221     		movs	r1, #2
  40 0006 1720     		movs	r0, #23
  41 0008 FFF7FEFF 		bl	HAL_NVIC_SetPriority
  42              	.LVL0:
   7:../../core/platform/octa/src/octa.c ****   HAL_NVIC_EnableIRQ(23); // 23 is interrupt line 5 - 9
  43              		.loc 1 7 0
  44 000c 1720     		movs	r0, #23
  45 000e FFF7FEFF 		bl	HAL_NVIC_EnableIRQ
  46              	.LVL1:
   8:../../core/platform/octa/src/octa.c ****     
   9:../../core/platform/octa/src/octa.c **** //  HAL_NVIC_SetPriority(40, 0, 0);
  10:../../core/platform/octa/src/octa.c ****  // HAL_NVIC_EnableIRQ(40); // 23 is interrupt line 10 - 15
  11:../../core/platform/octa/src/octa.c **** 
  12:../../core/platform/octa/src/octa.c ****   HAL_NVIC_SetPriority(6, 0, 0);
ARM GAS  C:\Users\Jola\AppData\Local\Temp\ccDbcO8H.s 			page 2


  47              		.loc 1 12 0
  48 0012 0022     		movs	r2, #0
  49 0014 1146     		mov	r1, r2
  50 0016 0620     		movs	r0, #6
  51 0018 FFF7FEFF 		bl	HAL_NVIC_SetPriority
  52              	.LVL2:
  13:../../core/platform/octa/src/octa.c ****   HAL_NVIC_EnableIRQ(6); // 23 is interrupt line 0
  53              		.loc 1 13 0
  54 001c 0620     		movs	r0, #6
  55 001e FFF7FEFF 		bl	HAL_NVIC_EnableIRQ
  56              	.LVL3:
  14:../../core/platform/octa/src/octa.c **** 
  15:../../core/platform/octa/src/octa.c ****   //HAL_NVIC_SetPriority(7, 0, 0);
  16:../../core/platform/octa/src/octa.c ****   //HAL_NVIC_EnableIRQ(7); // 23 is interrupt line 1
  17:../../core/platform/octa/src/octa.c **** }
  57              		.loc 1 17 0
  58 0022 08BD     		pop	{r3, pc}
  59              		.cfi_endproc
  60              	.LFE128:
  62              		.section	.text.OCTA_Initialize_Common_Peripherals,"ax",%progbits
  63              		.align	1
  64              		.global	OCTA_Initialize_Common_Peripherals
  65              		.syntax unified
  66              		.thumb
  67              		.thumb_func
  68              		.fpu fpv4-sp-d16
  70              	OCTA_Initialize_Common_Peripherals:
  71              	.LFB130:
  18:../../core/platform/octa/src/octa.c **** void OCTA_Initialize_Platform(void)
  19:../../core/platform/octa/src/octa.c **** {
  20:../../core/platform/octa/src/octa.c ****     //GPIO, IWDG, USB_UART(Logging)
  21:../../core/platform/octa/src/octa.c ****     OCTA_Initialize_Common_Peripherals();
  22:../../core/platform/octa/src/octa.c ****     //P1 UART, I2C, SPI & GPIO handles
  23:../../core/platform/octa/src/octa.c ****     OCTA_Initialize_P1_Peripherals();
  24:../../core/platform/octa/src/octa.c ****     //P2 UART, I2C, SPI & GPIO handles
  25:../../core/platform/octa/src/octa.c ****     OCTA_Initialize_P2_Peripherals();
  26:../../core/platform/octa/src/octa.c ****     //P3 UART, I2C, SPI & GPIO handles
  27:../../core/platform/octa/src/octa.c ****     OCTA_Initialize_P3_Peripherals();
  28:../../core/platform/octa/src/octa.c ****     //Interupts
  29:../../core/platform/octa/src/octa.c ****     OCTA_NVIC_Initialize();
  30:../../core/platform/octa/src/octa.c **** }
  31:../../core/platform/octa/src/octa.c **** 
  32:../../core/platform/octa/src/octa.c **** void OCTA_Initialize_Common_Peripherals(void)
  33:../../core/platform/octa/src/octa.c **** {
  72              		.loc 1 33 0
  73              		.cfi_startproc
  74              		@ args = 0, pretend = 0, frame = 0
  75              		@ frame_needed = 0, uses_anonymous_args = 0
  76 0000 08B5     		push	{r3, lr}
  77              	.LCFI1:
  78              		.cfi_def_cfa_offset 8
  79              		.cfi_offset 3, -8
  80              		.cfi_offset 14, -4
  34:../../core/platform/octa/src/octa.c ****     OCTA_GPIO_Init();
  81              		.loc 1 34 0
  82 0002 FFF7FEFF 		bl	OCTA_GPIO_Init
  83              	.LVL4:
ARM GAS  C:\Users\Jola\AppData\Local\Temp\ccDbcO8H.s 			page 3


  35:../../core/platform/octa/src/octa.c ****     OCTA_IWDG_Init();
  84              		.loc 1 35 0
  85 0006 FFF7FEFF 		bl	OCTA_IWDG_Init
  86              	.LVL5:
  36:../../core/platform/octa/src/octa.c ****     FLASH_SPI_Init();
  87              		.loc 1 36 0
  88 000a FFF7FEFF 		bl	FLASH_SPI_Init
  89              	.LVL6:
  37:../../core/platform/octa/src/octa.c ****     common_I2C_Init();
  90              		.loc 1 37 0
  91 000e FFF7FEFF 		bl	common_I2C_Init
  92              	.LVL7:
  38:../../core/platform/octa/src/octa.c ****     P1_I2C_Init();
  93              		.loc 1 38 0
  94 0012 FFF7FEFF 		bl	P1_I2C_Init
  95              	.LVL8:
  39:../../core/platform/octa/src/octa.c ****     USB_UART_Init(115200);
  96              		.loc 1 39 0
  97 0016 4FF4E130 		mov	r0, #115200
  98 001a FFF7FEFF 		bl	USB_UART_Init
  99              	.LVL9:
  40:../../core/platform/octa/src/octa.c ****     #if USE_BOOTLOADER
  41:../../core/platform/octa/src/octa.c ****         printf("\r\nusing bootloader, initializing BLE UART\r\n");
  42:../../core/platform/octa/src/octa.c ****         BLE_UART_Init(115200); 
  43:../../core/platform/octa/src/octa.c ****         bootloader_initialize(&BLE_UART);     
  44:../../core/platform/octa/src/octa.c ****     #endif
  45:../../core/platform/octa/src/octa.c **** }
 100              		.loc 1 45 0
 101 001e 08BD     		pop	{r3, pc}
 102              		.cfi_endproc
 103              	.LFE130:
 105              		.section	.text.OCTA_Initialize_P1_Peripherals,"ax",%progbits
 106              		.align	1
 107              		.global	OCTA_Initialize_P1_Peripherals
 108              		.syntax unified
 109              		.thumb
 110              		.thumb_func
 111              		.fpu fpv4-sp-d16
 113              	OCTA_Initialize_P1_Peripherals:
 114              	.LFB131:
  46:../../core/platform/octa/src/octa.c **** 
  47:../../core/platform/octa/src/octa.c **** void OCTA_Initialize_P1_Peripherals(void)
  48:../../core/platform/octa/src/octa.c **** {
 115              		.loc 1 48 0
 116              		.cfi_startproc
 117              		@ args = 0, pretend = 0, frame = 0
 118              		@ frame_needed = 0, uses_anonymous_args = 0
 119              		@ link register save eliminated.
  49:../../core/platform/octa/src/octa.c ****     P1_header.number = 1;
 120              		.loc 1 49 0
 121 0000 0A4B     		ldr	r3, .L6
 122 0002 0122     		movs	r2, #1
 123 0004 1A70     		strb	r2, [r3]
  50:../../core/platform/octa/src/octa.c ****     P1_header.uartHandle = &P1_UART;
 124              		.loc 1 50 0
 125 0006 0A4A     		ldr	r2, .L6+4
 126 0008 5A60     		str	r2, [r3, #4]
ARM GAS  C:\Users\Jola\AppData\Local\Temp\ccDbcO8H.s 			page 4


  51:../../core/platform/octa/src/octa.c ****     P1_header.i2cHandle = &P1_I2C;
 127              		.loc 1 51 0
 128 000a 0A4A     		ldr	r2, .L6+8
 129 000c 9A60     		str	r2, [r3, #8]
  52:../../core/platform/octa/src/octa.c ****     P1_header.spiHandle = &P1_SPI;
 130              		.loc 1 52 0
 131 000e 0A4A     		ldr	r2, .L6+12
 132 0010 DA60     		str	r2, [r3, #12]
  53:../../core/platform/octa/src/octa.c ****     P1_header.DIO1 = &P1_DIO1;
 133              		.loc 1 53 0
 134 0012 0A4A     		ldr	r2, .L6+16
 135 0014 1A61     		str	r2, [r3, #16]
  54:../../core/platform/octa/src/octa.c ****     P1_header.DIO2 = &P1_DIO2;
 136              		.loc 1 54 0
 137 0016 0A4A     		ldr	r2, .L6+20
 138 0018 5A61     		str	r2, [r3, #20]
  55:../../core/platform/octa/src/octa.c ****     P1_header.DIO3 = &P1_DIO3;
 139              		.loc 1 55 0
 140 001a 0A4A     		ldr	r2, .L6+24
 141 001c 9A61     		str	r2, [r3, #24]
  56:../../core/platform/octa/src/octa.c ****     P1_header.DIO4 = &P1_DIO4;
 142              		.loc 1 56 0
 143 001e 0A4A     		ldr	r2, .L6+28
 144 0020 DA61     		str	r2, [r3, #28]
  57:../../core/platform/octa/src/octa.c ****     P1_header.DIO5 = &P1_DIO5;
 145              		.loc 1 57 0
 146 0022 0A4A     		ldr	r2, .L6+32
 147 0024 1A62     		str	r2, [r3, #32]
  58:../../core/platform/octa/src/octa.c ****     P1_header.DIO6 = &P1_DIO6;
 148              		.loc 1 58 0
 149 0026 0A4A     		ldr	r2, .L6+36
 150 0028 5A62     		str	r2, [r3, #36]
  59:../../core/platform/octa/src/octa.c **** }
 151              		.loc 1 59 0
 152 002a 7047     		bx	lr
 153              	.L7:
 154              		.align	2
 155              	.L6:
 156 002c 00000000 		.word	P1_header
 157 0030 00000000 		.word	P1_UART
 158 0034 00000000 		.word	P1_I2C
 159 0038 00000000 		.word	P1_SPI
 160 003c 00000000 		.word	P1_DIO1
 161 0040 00000000 		.word	P1_DIO2
 162 0044 00000000 		.word	P1_DIO3
 163 0048 00000000 		.word	P1_DIO4
 164 004c 00000000 		.word	P1_DIO5
 165 0050 00000000 		.word	P1_DIO6
 166              		.cfi_endproc
 167              	.LFE131:
 169              		.section	.text.OCTA_Initialize_P2_Peripherals,"ax",%progbits
 170              		.align	1
 171              		.global	OCTA_Initialize_P2_Peripherals
 172              		.syntax unified
 173              		.thumb
 174              		.thumb_func
 175              		.fpu fpv4-sp-d16
ARM GAS  C:\Users\Jola\AppData\Local\Temp\ccDbcO8H.s 			page 5


 177              	OCTA_Initialize_P2_Peripherals:
 178              	.LFB132:
  60:../../core/platform/octa/src/octa.c **** 
  61:../../core/platform/octa/src/octa.c **** void OCTA_Initialize_P2_Peripherals(void)
  62:../../core/platform/octa/src/octa.c **** {
 179              		.loc 1 62 0
 180              		.cfi_startproc
 181              		@ args = 0, pretend = 0, frame = 0
 182              		@ frame_needed = 0, uses_anonymous_args = 0
 183              		@ link register save eliminated.
  63:../../core/platform/octa/src/octa.c ****     P2_header.number = 2;
 184              		.loc 1 63 0
 185 0000 0A4B     		ldr	r3, .L9
 186 0002 0222     		movs	r2, #2
 187 0004 1A70     		strb	r2, [r3]
  64:../../core/platform/octa/src/octa.c ****     #if USE_BOOTLOADER
  65:../../core/platform/octa/src/octa.c ****         printf("\r\nusing bootloader, P2 UART unavailable\r\n");
  66:../../core/platform/octa/src/octa.c ****         P2_header.uartHandle = NULL;
  67:../../core/platform/octa/src/octa.c ****     #else
  68:../../core/platform/octa/src/octa.c ****         P2_header.uartHandle = &P2_UART;
 188              		.loc 1 68 0
 189 0006 0A4A     		ldr	r2, .L9+4
 190 0008 5A60     		str	r2, [r3, #4]
  69:../../core/platform/octa/src/octa.c ****     #endif
  70:../../core/platform/octa/src/octa.c ****     P2_header.i2cHandle = &P2_I2C;
 191              		.loc 1 70 0
 192 000a 0A4A     		ldr	r2, .L9+8
 193 000c 9A60     		str	r2, [r3, #8]
  71:../../core/platform/octa/src/octa.c ****     P2_header.spiHandle = &P2_SPI;
 194              		.loc 1 71 0
 195 000e 0A4A     		ldr	r2, .L9+12
 196 0010 DA60     		str	r2, [r3, #12]
  72:../../core/platform/octa/src/octa.c ****     P2_header.DIO1 = &P2_DIO1;
 197              		.loc 1 72 0
 198 0012 0A4A     		ldr	r2, .L9+16
 199 0014 1A61     		str	r2, [r3, #16]
  73:../../core/platform/octa/src/octa.c ****     P2_header.DIO2 = &P2_DIO2;
 200              		.loc 1 73 0
 201 0016 0A4A     		ldr	r2, .L9+20
 202 0018 5A61     		str	r2, [r3, #20]
  74:../../core/platform/octa/src/octa.c ****     P2_header.DIO3 = &P2_DIO3;
 203              		.loc 1 74 0
 204 001a 0A4A     		ldr	r2, .L9+24
 205 001c 9A61     		str	r2, [r3, #24]
  75:../../core/platform/octa/src/octa.c ****     P2_header.DIO4 = &P2_DIO4;
 206              		.loc 1 75 0
 207 001e 0A4A     		ldr	r2, .L9+28
 208 0020 DA61     		str	r2, [r3, #28]
  76:../../core/platform/octa/src/octa.c ****     P2_header.DIO5 = &P2_DIO5;
 209              		.loc 1 76 0
 210 0022 0A4A     		ldr	r2, .L9+32
 211 0024 1A62     		str	r2, [r3, #32]
  77:../../core/platform/octa/src/octa.c ****     P2_header.DIO6 = &P2_DIO6;
 212              		.loc 1 77 0
 213 0026 0A4A     		ldr	r2, .L9+36
 214 0028 5A62     		str	r2, [r3, #36]
  78:../../core/platform/octa/src/octa.c **** }
ARM GAS  C:\Users\Jola\AppData\Local\Temp\ccDbcO8H.s 			page 6


 215              		.loc 1 78 0
 216 002a 7047     		bx	lr
 217              	.L10:
 218              		.align	2
 219              	.L9:
 220 002c 00000000 		.word	P2_header
 221 0030 00000000 		.word	P2_UART
 222 0034 00000000 		.word	P2_I2C
 223 0038 00000000 		.word	P2_SPI
 224 003c 00000000 		.word	P2_DIO1
 225 0040 00000000 		.word	P2_DIO2
 226 0044 00000000 		.word	P2_DIO3
 227 0048 00000000 		.word	P2_DIO4
 228 004c 00000000 		.word	P2_DIO5
 229 0050 00000000 		.word	P2_DIO6
 230              		.cfi_endproc
 231              	.LFE132:
 233              		.section	.text.OCTA_Initialize_P3_Peripherals,"ax",%progbits
 234              		.align	1
 235              		.global	OCTA_Initialize_P3_Peripherals
 236              		.syntax unified
 237              		.thumb
 238              		.thumb_func
 239              		.fpu fpv4-sp-d16
 241              	OCTA_Initialize_P3_Peripherals:
 242              	.LFB133:
  79:../../core/platform/octa/src/octa.c **** 
  80:../../core/platform/octa/src/octa.c **** void OCTA_Initialize_P3_Peripherals(void)
  81:../../core/platform/octa/src/octa.c **** {
 243              		.loc 1 81 0
 244              		.cfi_startproc
 245              		@ args = 0, pretend = 0, frame = 0
 246              		@ frame_needed = 0, uses_anonymous_args = 0
 247              		@ link register save eliminated.
  82:../../core/platform/octa/src/octa.c ****     P3_header.number = 3;
 248              		.loc 1 82 0
 249 0000 0A4B     		ldr	r3, .L12
 250 0002 0322     		movs	r2, #3
 251 0004 1A70     		strb	r2, [r3]
  83:../../core/platform/octa/src/octa.c ****     P3_header.uartHandle = &P3_UART;
 252              		.loc 1 83 0
 253 0006 0A4A     		ldr	r2, .L12+4
 254 0008 5A60     		str	r2, [r3, #4]
  84:../../core/platform/octa/src/octa.c ****     P3_header.i2cHandle = &P3_I2C;
 255              		.loc 1 84 0
 256 000a 0A4A     		ldr	r2, .L12+8
 257 000c 9A60     		str	r2, [r3, #8]
  85:../../core/platform/octa/src/octa.c ****     P3_header.spiHandle = &P3_SPI;
 258              		.loc 1 85 0
 259 000e 0A4A     		ldr	r2, .L12+12
 260 0010 DA60     		str	r2, [r3, #12]
  86:../../core/platform/octa/src/octa.c ****     P3_header.DIO1 = &P3_DIO1;
 261              		.loc 1 86 0
 262 0012 0A4A     		ldr	r2, .L12+16
 263 0014 1A61     		str	r2, [r3, #16]
  87:../../core/platform/octa/src/octa.c ****     P3_header.DIO2 = &P3_DIO2;
 264              		.loc 1 87 0
ARM GAS  C:\Users\Jola\AppData\Local\Temp\ccDbcO8H.s 			page 7


 265 0016 0A4A     		ldr	r2, .L12+20
 266 0018 5A61     		str	r2, [r3, #20]
  88:../../core/platform/octa/src/octa.c ****     P3_header.DIO3 = &P3_DIO3;
 267              		.loc 1 88 0
 268 001a 0A4A     		ldr	r2, .L12+24
 269 001c 9A61     		str	r2, [r3, #24]
  89:../../core/platform/octa/src/octa.c ****     P3_header.DIO4 = &P3_DIO4;
 270              		.loc 1 89 0
 271 001e 0A4A     		ldr	r2, .L12+28
 272 0020 DA61     		str	r2, [r3, #28]
  90:../../core/platform/octa/src/octa.c ****     P3_header.DIO5 = &P3_DIO5;
 273              		.loc 1 90 0
 274 0022 0A4A     		ldr	r2, .L12+32
 275 0024 1A62     		str	r2, [r3, #32]
  91:../../core/platform/octa/src/octa.c ****     P3_header.DIO6 = &P3_DIO6;
 276              		.loc 1 91 0
 277 0026 0A4A     		ldr	r2, .L12+36
 278 0028 5A62     		str	r2, [r3, #36]
  92:../../core/platform/octa/src/octa.c **** }
 279              		.loc 1 92 0
 280 002a 7047     		bx	lr
 281              	.L13:
 282              		.align	2
 283              	.L12:
 284 002c 00000000 		.word	P3_header
 285 0030 00000000 		.word	P3_UART
 286 0034 00000000 		.word	P3_I2C
 287 0038 00000000 		.word	P3_SPI
 288 003c 00000000 		.word	P3_DIO1
 289 0040 00000000 		.word	P3_DIO2
 290 0044 00000000 		.word	P3_DIO3
 291 0048 00000000 		.word	P3_DIO4
 292 004c 00000000 		.word	P3_DIO5
 293 0050 00000000 		.word	P3_DIO6
 294              		.cfi_endproc
 295              	.LFE133:
 297              		.section	.text.OCTA_Initialize_Platform,"ax",%progbits
 298              		.align	1
 299              		.global	OCTA_Initialize_Platform
 300              		.syntax unified
 301              		.thumb
 302              		.thumb_func
 303              		.fpu fpv4-sp-d16
 305              	OCTA_Initialize_Platform:
 306              	.LFB129:
  19:../../core/platform/octa/src/octa.c ****     //GPIO, IWDG, USB_UART(Logging)
 307              		.loc 1 19 0
 308              		.cfi_startproc
 309              		@ args = 0, pretend = 0, frame = 0
 310              		@ frame_needed = 0, uses_anonymous_args = 0
 311 0000 08B5     		push	{r3, lr}
 312              	.LCFI2:
 313              		.cfi_def_cfa_offset 8
 314              		.cfi_offset 3, -8
 315              		.cfi_offset 14, -4
  21:../../core/platform/octa/src/octa.c ****     //P1 UART, I2C, SPI & GPIO handles
 316              		.loc 1 21 0
ARM GAS  C:\Users\Jola\AppData\Local\Temp\ccDbcO8H.s 			page 8


 317 0002 FFF7FEFF 		bl	OCTA_Initialize_Common_Peripherals
 318              	.LVL10:
  23:../../core/platform/octa/src/octa.c ****     //P2 UART, I2C, SPI & GPIO handles
 319              		.loc 1 23 0
 320 0006 FFF7FEFF 		bl	OCTA_Initialize_P1_Peripherals
 321              	.LVL11:
  25:../../core/platform/octa/src/octa.c ****     //P3 UART, I2C, SPI & GPIO handles
 322              		.loc 1 25 0
 323 000a FFF7FEFF 		bl	OCTA_Initialize_P2_Peripherals
 324              	.LVL12:
  27:../../core/platform/octa/src/octa.c ****     //Interupts
 325              		.loc 1 27 0
 326 000e FFF7FEFF 		bl	OCTA_Initialize_P3_Peripherals
 327              	.LVL13:
  29:../../core/platform/octa/src/octa.c **** }
 328              		.loc 1 29 0
 329 0012 FFF7FEFF 		bl	OCTA_NVIC_Initialize
 330              	.LVL14:
  30:../../core/platform/octa/src/octa.c **** 
 331              		.loc 1 30 0
 332 0016 08BD     		pop	{r3, pc}
 333              		.cfi_endproc
 334              	.LFE129:
 336              		.section	.text.get_UID,"ax",%progbits
 337              		.align	1
 338              		.global	get_UID
 339              		.syntax unified
 340              		.thumb
 341              		.thumb_func
 342              		.fpu fpv4-sp-d16
 344              	get_UID:
 345              	.LFB134:
  93:../../core/platform/octa/src/octa.c **** 
  94:../../core/platform/octa/src/octa.c **** uint64_t get_UID(void)
  95:../../core/platform/octa/src/octa.c **** {
 346              		.loc 1 95 0
 347              		.cfi_startproc
 348              		@ args = 0, pretend = 0, frame = 0
 349              		@ frame_needed = 0, uses_anonymous_args = 0
 350              		@ link register save eliminated.
 351 0000 70B4     		push	{r4, r5, r6}
 352              	.LCFI3:
 353              		.cfi_def_cfa_offset 12
 354              		.cfi_offset 4, -12
 355              		.cfi_offset 5, -8
 356              		.cfi_offset 6, -4
  96:../../core/platform/octa/src/octa.c ****     // Full 96 bits UID in an array
  97:../../core/platform/octa/src/octa.c ****     // uint32_t *uniqueID = (uint32_t*)UID_BASE;
  98:../../core/platform/octa/src/octa.c ****     // for(uint8_t i = 0; i < 12; i++){
  99:../../core/platform/octa/src/octa.c ****     //   UID[i] = (uint8_t)uniqueID[i];
 100:../../core/platform/octa/src/octa.c ****     // }
 101:../../core/platform/octa/src/octa.c ****     //return 64 bit mac address
 102:../../core/platform/octa/src/octa.c ****     return (*((uint64_t *)(UID_BASE)) << 32) + *((uint64_t *)(UID_BASE + 0x04U));
 357              		.loc 1 102 0
 358 0002 0025     		movs	r5, #0
 359 0004 044B     		ldr	r3, .L18
 360 0006 1E68     		ldr	r6, [r3]
ARM GAS  C:\Users\Jola\AppData\Local\Temp\ccDbcO8H.s 			page 9


 361 0008 044C     		ldr	r4, .L18+4
 362 000a 2268     		ldr	r2, [r4]
 363 000c 6368     		ldr	r3, [r4, #4]
 103:../../core/platform/octa/src/octa.c **** }
 364              		.loc 1 103 0
 365 000e A818     		adds	r0, r5, r2
 366 0010 46EB0301 		adc	r1, r6, r3
 367 0014 70BC     		pop	{r4, r5, r6}
 368              	.LCFI4:
 369              		.cfi_restore 6
 370              		.cfi_restore 5
 371              		.cfi_restore 4
 372              		.cfi_def_cfa_offset 0
 373 0016 7047     		bx	lr
 374              	.L19:
 375              		.align	2
 376              	.L18:
 377 0018 9075FF1F 		.word	536835472
 378 001c 9475FF1F 		.word	536835476
 379              		.cfi_endproc
 380              	.LFE134:
 382              		.section	.text.platform_initialize_UART,"ax",%progbits
 383              		.align	1
 384              		.global	platform_initialize_UART
 385              		.syntax unified
 386              		.thumb
 387              		.thumb_func
 388              		.fpu fpv4-sp-d16
 390              	platform_initialize_UART:
 391              	.LFB135:
 104:../../core/platform/octa/src/octa.c **** 
 105:../../core/platform/octa/src/octa.c **** void platform_initialize_UART(struct OCTA_header aHeader, uint32_t aBaudRate)
 106:../../core/platform/octa/src/octa.c **** {
 392              		.loc 1 106 0
 393              		.cfi_startproc
 394              		@ args = 48, pretend = 16, frame = 0
 395              		@ frame_needed = 0, uses_anonymous_args = 0
 396              	.LVL15:
 397 0000 84B0     		sub	sp, sp, #16
 398              	.LCFI5:
 399              		.cfi_def_cfa_offset 16
 400 0002 08B5     		push	{r3, lr}
 401              	.LCFI6:
 402              		.cfi_def_cfa_offset 24
 403              		.cfi_offset 3, -24
 404              		.cfi_offset 14, -20
 405 0004 0DF1080C 		add	ip, sp, #8
 406 0008 8CE80F00 		stm	ip, {r0, r1, r2, r3}
 107:../../core/platform/octa/src/octa.c ****     switch(aHeader.number)
 407              		.loc 1 107 0
 408 000c 9DF80830 		ldrb	r3, [sp, #8]	@ zero_extendqisi2
 409 0010 022B     		cmp	r3, #2
 410 0012 0BD0     		beq	.L22
 411 0014 032B     		cmp	r3, #3
 412 0016 0DD0     		beq	.L23
 413 0018 012B     		cmp	r3, #1
 414 001a 03D0     		beq	.L26
ARM GAS  C:\Users\Jola\AppData\Local\Temp\ccDbcO8H.s 			page 10


 415              	.L20:
 108:../../core/platform/octa/src/octa.c ****     {
 109:../../core/platform/octa/src/octa.c ****         case 1:
 110:../../core/platform/octa/src/octa.c ****             P1_UART_Init(aBaudRate);
 111:../../core/platform/octa/src/octa.c ****             break;
 112:../../core/platform/octa/src/octa.c ****         case 2:
 113:../../core/platform/octa/src/octa.c ****             P2_UART_Init(aBaudRate);
 114:../../core/platform/octa/src/octa.c ****             break;
 115:../../core/platform/octa/src/octa.c ****         case 3:
 116:../../core/platform/octa/src/octa.c ****             P3_UART_Init(aBaudRate);
 117:../../core/platform/octa/src/octa.c ****             break;
 118:../../core/platform/octa/src/octa.c ****         default:
 119:../../core/platform/octa/src/octa.c ****             break;
 120:../../core/platform/octa/src/octa.c ****     }
 121:../../core/platform/octa/src/octa.c **** }
 416              		.loc 1 121 0
 417 001c BDE80840 		pop	{r3, lr}
 418              	.LCFI7:
 419              		.cfi_remember_state
 420              		.cfi_restore 14
 421              		.cfi_restore 3
 422              		.cfi_def_cfa_offset 16
 423 0020 04B0     		add	sp, sp, #16
 424              	.LCFI8:
 425              		.cfi_def_cfa_offset 0
 426 0022 7047     		bx	lr
 427              	.L26:
 428              	.LCFI9:
 429              		.cfi_restore_state
 110:../../core/platform/octa/src/octa.c ****             break;
 430              		.loc 1 110 0
 431 0024 0D98     		ldr	r0, [sp, #52]
 432 0026 FFF7FEFF 		bl	P1_UART_Init
 433              	.LVL16:
 111:../../core/platform/octa/src/octa.c ****         case 2:
 434              		.loc 1 111 0
 435 002a F7E7     		b	.L20
 436              	.L22:
 113:../../core/platform/octa/src/octa.c ****             break;
 437              		.loc 1 113 0
 438 002c 0D98     		ldr	r0, [sp, #52]
 439 002e FFF7FEFF 		bl	P2_UART_Init
 440              	.LVL17:
 114:../../core/platform/octa/src/octa.c ****         case 3:
 441              		.loc 1 114 0
 442 0032 F3E7     		b	.L20
 443              	.L23:
 116:../../core/platform/octa/src/octa.c ****             break;
 444              		.loc 1 116 0
 445 0034 0D98     		ldr	r0, [sp, #52]
 446 0036 FFF7FEFF 		bl	P3_UART_Init
 447              	.LVL18:
 448              		.loc 1 121 0
 449 003a EFE7     		b	.L20
 450              		.cfi_endproc
 451              	.LFE135:
 453              		.section	.text.platform_initialize_I2C,"ax",%progbits
ARM GAS  C:\Users\Jola\AppData\Local\Temp\ccDbcO8H.s 			page 11


 454              		.align	1
 455              		.global	platform_initialize_I2C
 456              		.syntax unified
 457              		.thumb
 458              		.thumb_func
 459              		.fpu fpv4-sp-d16
 461              	platform_initialize_I2C:
 462              	.LFB136:
 122:../../core/platform/octa/src/octa.c **** 
 123:../../core/platform/octa/src/octa.c **** void platform_initialize_I2C(struct OCTA_header aHeader)
 124:../../core/platform/octa/src/octa.c **** {
 463              		.loc 1 124 0
 464              		.cfi_startproc
 465              		@ args = 44, pretend = 16, frame = 0
 466              		@ frame_needed = 0, uses_anonymous_args = 0
 467 0000 84B0     		sub	sp, sp, #16
 468              	.LCFI10:
 469              		.cfi_def_cfa_offset 16
 470 0002 08B5     		push	{r3, lr}
 471              	.LCFI11:
 472              		.cfi_def_cfa_offset 24
 473              		.cfi_offset 3, -24
 474              		.cfi_offset 14, -20
 475 0004 0DF1080C 		add	ip, sp, #8
 476 0008 8CE80F00 		stm	ip, {r0, r1, r2, r3}
 125:../../core/platform/octa/src/octa.c ****     switch(aHeader.number)
 477              		.loc 1 125 0
 478 000c 9DF80830 		ldrb	r3, [sp, #8]	@ zero_extendqisi2
 479 0010 022B     		cmp	r3, #2
 480 0012 0AD0     		beq	.L29
 481 0014 032B     		cmp	r3, #3
 482 0016 0BD0     		beq	.L30
 483 0018 012B     		cmp	r3, #1
 484 001a 03D0     		beq	.L33
 485              	.L27:
 126:../../core/platform/octa/src/octa.c ****     {
 127:../../core/platform/octa/src/octa.c ****         case 1:
 128:../../core/platform/octa/src/octa.c ****             P1_I2C_Init();
 129:../../core/platform/octa/src/octa.c ****             break;
 130:../../core/platform/octa/src/octa.c ****         case 2:
 131:../../core/platform/octa/src/octa.c ****             P2_I2C_Init();
 132:../../core/platform/octa/src/octa.c ****             break;
 133:../../core/platform/octa/src/octa.c ****         case 3:
 134:../../core/platform/octa/src/octa.c ****             P3_I2C_Init();
 135:../../core/platform/octa/src/octa.c ****             break;
 136:../../core/platform/octa/src/octa.c ****         default:
 137:../../core/platform/octa/src/octa.c ****             break;
 138:../../core/platform/octa/src/octa.c ****     }
 139:../../core/platform/octa/src/octa.c **** }
 486              		.loc 1 139 0
 487 001c BDE80840 		pop	{r3, lr}
 488              	.LCFI12:
 489              		.cfi_remember_state
 490              		.cfi_restore 14
 491              		.cfi_restore 3
 492              		.cfi_def_cfa_offset 16
 493 0020 04B0     		add	sp, sp, #16
ARM GAS  C:\Users\Jola\AppData\Local\Temp\ccDbcO8H.s 			page 12


 494              	.LCFI13:
 495              		.cfi_def_cfa_offset 0
 496 0022 7047     		bx	lr
 497              	.L33:
 498              	.LCFI14:
 499              		.cfi_restore_state
 128:../../core/platform/octa/src/octa.c ****             break;
 500              		.loc 1 128 0
 501 0024 FFF7FEFF 		bl	P1_I2C_Init
 502              	.LVL19:
 129:../../core/platform/octa/src/octa.c ****         case 2:
 503              		.loc 1 129 0
 504 0028 F8E7     		b	.L27
 505              	.L29:
 131:../../core/platform/octa/src/octa.c ****             break;
 506              		.loc 1 131 0
 507 002a FFF7FEFF 		bl	P2_I2C_Init
 508              	.LVL20:
 132:../../core/platform/octa/src/octa.c ****         case 3:
 509              		.loc 1 132 0
 510 002e F5E7     		b	.L27
 511              	.L30:
 134:../../core/platform/octa/src/octa.c ****             break;
 512              		.loc 1 134 0
 513 0030 FFF7FEFF 		bl	P3_I2C_Init
 514              	.LVL21:
 515              		.loc 1 139 0
 516 0034 F2E7     		b	.L27
 517              		.cfi_endproc
 518              	.LFE136:
 520              		.section	.text.platform_initialize_SPI,"ax",%progbits
 521              		.align	1
 522              		.global	platform_initialize_SPI
 523              		.syntax unified
 524              		.thumb
 525              		.thumb_func
 526              		.fpu fpv4-sp-d16
 528              	platform_initialize_SPI:
 529              	.LFB137:
 140:../../core/platform/octa/src/octa.c **** 
 141:../../core/platform/octa/src/octa.c **** void platform_initialize_SPI(struct OCTA_header aHeader)
 142:../../core/platform/octa/src/octa.c **** {
 530              		.loc 1 142 0
 531              		.cfi_startproc
 532              		@ args = 44, pretend = 16, frame = 0
 533              		@ frame_needed = 0, uses_anonymous_args = 0
 534 0000 84B0     		sub	sp, sp, #16
 535              	.LCFI15:
 536              		.cfi_def_cfa_offset 16
 537 0002 08B5     		push	{r3, lr}
 538              	.LCFI16:
 539              		.cfi_def_cfa_offset 24
 540              		.cfi_offset 3, -24
 541              		.cfi_offset 14, -20
 542 0004 0DF1080C 		add	ip, sp, #8
 543 0008 8CE80F00 		stm	ip, {r0, r1, r2, r3}
 143:../../core/platform/octa/src/octa.c ****     switch(aHeader.number)
ARM GAS  C:\Users\Jola\AppData\Local\Temp\ccDbcO8H.s 			page 13


 544              		.loc 1 143 0
 545 000c 9DF80830 		ldrb	r3, [sp, #8]	@ zero_extendqisi2
 546 0010 022B     		cmp	r3, #2
 547 0012 0AD0     		beq	.L36
 548 0014 032B     		cmp	r3, #3
 549 0016 0BD0     		beq	.L37
 550 0018 012B     		cmp	r3, #1
 551 001a 03D0     		beq	.L40
 552              	.L34:
 144:../../core/platform/octa/src/octa.c ****     {
 145:../../core/platform/octa/src/octa.c ****         case 1:
 146:../../core/platform/octa/src/octa.c ****             P1_SPI_Init();
 147:../../core/platform/octa/src/octa.c ****             break;
 148:../../core/platform/octa/src/octa.c ****         case 2:
 149:../../core/platform/octa/src/octa.c ****             P2_SPI_Init();
 150:../../core/platform/octa/src/octa.c ****             break;
 151:../../core/platform/octa/src/octa.c ****         case 3:
 152:../../core/platform/octa/src/octa.c ****             P3_SPI_Init();
 153:../../core/platform/octa/src/octa.c ****             break;
 154:../../core/platform/octa/src/octa.c ****         default:
 155:../../core/platform/octa/src/octa.c ****             break;
 156:../../core/platform/octa/src/octa.c ****     }
 157:../../core/platform/octa/src/octa.c **** }
 553              		.loc 1 157 0
 554 001c BDE80840 		pop	{r3, lr}
 555              	.LCFI17:
 556              		.cfi_remember_state
 557              		.cfi_restore 14
 558              		.cfi_restore 3
 559              		.cfi_def_cfa_offset 16
 560 0020 04B0     		add	sp, sp, #16
 561              	.LCFI18:
 562              		.cfi_def_cfa_offset 0
 563 0022 7047     		bx	lr
 564              	.L40:
 565              	.LCFI19:
 566              		.cfi_restore_state
 146:../../core/platform/octa/src/octa.c ****             break;
 567              		.loc 1 146 0
 568 0024 FFF7FEFF 		bl	P1_SPI_Init
 569              	.LVL22:
 147:../../core/platform/octa/src/octa.c ****         case 2:
 570              		.loc 1 147 0
 571 0028 F8E7     		b	.L34
 572              	.L36:
 149:../../core/platform/octa/src/octa.c ****             break;
 573              		.loc 1 149 0
 574 002a FFF7FEFF 		bl	P2_SPI_Init
 575              	.LVL23:
 150:../../core/platform/octa/src/octa.c ****         case 3:
 576              		.loc 1 150 0
 577 002e F5E7     		b	.L34
 578              	.L37:
 152:../../core/platform/octa/src/octa.c ****             break;
 579              		.loc 1 152 0
 580 0030 FFF7FEFF 		bl	P3_SPI_Init
 581              	.LVL24:
ARM GAS  C:\Users\Jola\AppData\Local\Temp\ccDbcO8H.s 			page 14


 582              		.loc 1 157 0
 583 0034 F2E7     		b	.L34
 584              		.cfi_endproc
 585              	.LFE137:
 587              		.section	.text.platform_getHeader,"ax",%progbits
 588              		.align	1
 589              		.global	platform_getHeader
 590              		.syntax unified
 591              		.thumb
 592              		.thumb_func
 593              		.fpu fpv4-sp-d16
 595              	platform_getHeader:
 596              	.LFB138:
 158:../../core/platform/octa/src/octa.c **** 
 159:../../core/platform/octa/src/octa.c **** struct OCTA_header platform_getHeader(uint8_t connector)
 160:../../core/platform/octa/src/octa.c **** {
 597              		.loc 1 160 0
 598              		.cfi_startproc
 599              		@ args = 0, pretend = 0, frame = 48
 600              		@ frame_needed = 0, uses_anonymous_args = 0
 601              	.LVL25:
 602 0000 70B5     		push	{r4, r5, r6, lr}
 603              	.LCFI20:
 604              		.cfi_def_cfa_offset 16
 605              		.cfi_offset 4, -16
 606              		.cfi_offset 5, -12
 607              		.cfi_offset 6, -8
 608              		.cfi_offset 14, -4
 609 0002 8CB0     		sub	sp, sp, #48
 610              	.LCFI21:
 611              		.cfi_def_cfa_offset 64
 612 0004 0546     		mov	r5, r0
 161:../../core/platform/octa/src/octa.c ****     switch (connector)
 613              		.loc 1 161 0
 614 0006 0229     		cmp	r1, #2
 615 0008 24D0     		beq	.L43
 616 000a 0329     		cmp	r1, #3
 617 000c 30D0     		beq	.L44
 618 000e 0129     		cmp	r1, #1
 619 0010 10D0     		beq	.L49
 620              	.LBB2:
 162:../../core/platform/octa/src/octa.c ****     {
 163:../../core/platform/octa/src/octa.c ****     case 1:
 164:../../core/platform/octa/src/octa.c ****         P1_header.active = 1;
 165:../../core/platform/octa/src/octa.c ****         return P1_header;
 166:../../core/platform/octa/src/octa.c ****     case 2:
 167:../../core/platform/octa/src/octa.c ****         P2_header.active = 1;
 168:../../core/platform/octa/src/octa.c ****         return P2_header;
 169:../../core/platform/octa/src/octa.c ****     case 3:
 170:../../core/platform/octa/src/octa.c ****         P3_header.active = 1;
 171:../../core/platform/octa/src/octa.c ****         return P3_header;
 172:../../core/platform/octa/src/octa.c ****     default:
 173:../../core/platform/octa/src/octa.c ****         //invalid connector
 174:../../core/platform/octa/src/octa.c ****         printf("Invalid connector\r\n");
 621              		.loc 1 174 0
 622 0012 1E48     		ldr	r0, .L50
 623              	.LVL26:
ARM GAS  C:\Users\Jola\AppData\Local\Temp\ccDbcO8H.s 			page 15


 624 0014 FFF7FEFF 		bl	puts
 625              	.LVL27:
 175:../../core/platform/octa/src/octa.c ****         struct OCTA_header invalid; 
 176:../../core/platform/octa/src/octa.c ****         invalid.active = 0;
 626              		.loc 1 176 0
 627 0018 0023     		movs	r3, #0
 628 001a 8DF82C30 		strb	r3, [sp, #44]
 177:../../core/platform/octa/src/octa.c ****         return invalid;
 629              		.loc 1 177 0
 630 001e 2C46     		mov	r4, r5
 631 0020 01AE     		add	r6, sp, #4
 632 0022 0FCE     		ldmia	r6!, {r0, r1, r2, r3}
 633 0024 0FC4     		stmia	r4!, {r0, r1, r2, r3}
 634 0026 0FCE     		ldmia	r6!, {r0, r1, r2, r3}
 635 0028 0FC4     		stmia	r4!, {r0, r1, r2, r3}
 636 002a 96E80700 		ldm	r6, {r0, r1, r2}
 637 002e 84E80700 		stm	r4, {r0, r1, r2}
 638 0032 0CE0     		b	.L41
 639              	.LVL28:
 640              	.L49:
 164:../../core/platform/octa/src/octa.c ****         return P1_header;
 641              		.loc 1 164 0
 642 0034 164C     		ldr	r4, .L50+4
 643 0036 0123     		movs	r3, #1
 644 0038 84F82830 		strb	r3, [r4, #40]
 165:../../core/platform/octa/src/octa.c ****     case 2:
 645              		.loc 1 165 0
 646 003c 0646     		mov	r6, r0
 647 003e 0FCC     		ldmia	r4!, {r0, r1, r2, r3}
 648              	.LVL29:
 649 0040 0FC6     		stmia	r6!, {r0, r1, r2, r3}
 650 0042 0FCC     		ldmia	r4!, {r0, r1, r2, r3}
 651 0044 0FC6     		stmia	r6!, {r0, r1, r2, r3}
 652 0046 94E80700 		ldm	r4, {r0, r1, r2}
 653 004a 86E80700 		stm	r6, {r0, r1, r2}
 654              	.L41:
 655              	.LBE2:
 178:../../core/platform/octa/src/octa.c ****     }
 179:../../core/platform/octa/src/octa.c **** }
 656              		.loc 1 179 0
 657 004e 2846     		mov	r0, r5
 658 0050 0CB0     		add	sp, sp, #48
 659              	.LCFI22:
 660              		.cfi_remember_state
 661              		.cfi_def_cfa_offset 16
 662              		@ sp needed
 663 0052 70BD     		pop	{r4, r5, r6, pc}
 664              	.LVL30:
 665              	.L43:
 666              	.LCFI23:
 667              		.cfi_restore_state
 668              	.LBB3:
 167:../../core/platform/octa/src/octa.c ****         return P2_header;
 669              		.loc 1 167 0
 670 0054 0F4C     		ldr	r4, .L50+8
 671 0056 0123     		movs	r3, #1
 672 0058 84F82830 		strb	r3, [r4, #40]
ARM GAS  C:\Users\Jola\AppData\Local\Temp\ccDbcO8H.s 			page 16


 168:../../core/platform/octa/src/octa.c ****     case 3:
 673              		.loc 1 168 0
 674 005c 0646     		mov	r6, r0
 675 005e 0FCC     		ldmia	r4!, {r0, r1, r2, r3}
 676              	.LVL31:
 677 0060 0FC6     		stmia	r6!, {r0, r1, r2, r3}
 678 0062 0FCC     		ldmia	r4!, {r0, r1, r2, r3}
 679 0064 0FC6     		stmia	r6!, {r0, r1, r2, r3}
 680 0066 94E80700 		ldm	r4, {r0, r1, r2}
 681 006a 86E80700 		stm	r6, {r0, r1, r2}
 682 006e EEE7     		b	.L41
 683              	.LVL32:
 684              	.L44:
 170:../../core/platform/octa/src/octa.c ****         return P3_header;
 685              		.loc 1 170 0
 686 0070 094C     		ldr	r4, .L50+12
 687 0072 0123     		movs	r3, #1
 688 0074 84F82830 		strb	r3, [r4, #40]
 171:../../core/platform/octa/src/octa.c ****     default:
 689              		.loc 1 171 0
 690 0078 0646     		mov	r6, r0
 691 007a 0FCC     		ldmia	r4!, {r0, r1, r2, r3}
 692              	.LVL33:
 693 007c 0FC6     		stmia	r6!, {r0, r1, r2, r3}
 694 007e 0FCC     		ldmia	r4!, {r0, r1, r2, r3}
 695 0080 0FC6     		stmia	r6!, {r0, r1, r2, r3}
 696 0082 94E80700 		ldm	r4, {r0, r1, r2}
 697 0086 86E80700 		stm	r6, {r0, r1, r2}
 698 008a E0E7     		b	.L41
 699              	.L51:
 700              		.align	2
 701              	.L50:
 702 008c 00000000 		.word	.LC0
 703 0090 00000000 		.word	P1_header
 704 0094 00000000 		.word	P2_header
 705 0098 00000000 		.word	P3_header
 706              	.LBE3:
 707              		.cfi_endproc
 708              	.LFE138:
 710              		.comm	P3_header,44,4
 711              		.comm	P2_header,44,4
 712              		.comm	P1_header,44,4
 713              		.comm	FLASH_SPI,100,4
 714              		.comm	P3_SPI,100,4
 715              		.comm	P2_SPI,100,4
 716              		.comm	P1_SPI,100,4
 717              		.comm	P3_I2C,76,4
 718              		.comm	P2_I2C,76,4
 719              		.comm	P1_I2C,76,4
 720              		.comm	common_I2C,76,4
 721              		.comm	P3_UART,120,4
 722              		.comm	P2_UART,120,4
 723              		.comm	P1_UART,120,4
 724              		.comm	BLE_UART,120,4
 725              		.comm	USB_UART,120,4
 726              		.comm	hiwdg,16,4
 727              		.comm	P3_DIO6,8,4
ARM GAS  C:\Users\Jola\AppData\Local\Temp\ccDbcO8H.s 			page 17


 728              		.comm	P3_DIO5,8,4
 729              		.comm	P3_DIO4,8,4
 730              		.comm	P3_DIO3,8,4
 731              		.comm	P3_DIO2,8,4
 732              		.comm	P3_DIO1,8,4
 733              		.comm	P2_DIO6,8,4
 734              		.comm	P2_DIO5,8,4
 735              		.comm	P2_DIO4,8,4
 736              		.comm	P2_DIO3,8,4
 737              		.comm	P2_DIO2,8,4
 738              		.comm	P2_DIO1,8,4
 739              		.comm	P1_DIO6,8,4
 740              		.comm	P1_DIO5,8,4
 741              		.comm	P1_DIO4,8,4
 742              		.comm	P1_DIO3,8,4
 743              		.comm	P1_DIO2,8,4
 744              		.comm	P1_DIO1,8,4
 745              		.section	.rodata.platform_getHeader.str1.4,"aMS",%progbits,1
 746              		.align	2
 747              	.LC0:
 748 0000 496E7661 		.ascii	"Invalid connector\015\000"
 748      6C696420 
 748      636F6E6E 
 748      6563746F 
 748      720D00
 749              		.text
 750              	.Letext0:
 751              		.file 2 "c:\\program files (x86)\\gnu tools arm embedded\\7 2018-q2-update\\arm-none-eabi\\include
 752              		.file 3 "c:\\program files (x86)\\gnu tools arm embedded\\7 2018-q2-update\\arm-none-eabi\\include
 753              		.file 4 "../../core/ST/CMSIS/Include/core_cm4.h"
 754              		.file 5 "../../core/ST/CMSIS/Device/ST/STM32L4xx/Include/system_stm32l4xx.h"
 755              		.file 6 "../../core/ST/CMSIS/Device/ST/STM32L4xx/Include/stm32l496xx.h"
 756              		.file 7 "../../core/ST/STM32L4xx_HAL_Driver/Inc/stm32l4xx_hal_def.h"
 757              		.file 8 "../../core/ST/STM32L4xx_HAL_Driver/Inc/stm32l4xx_hal_dma.h"
 758              		.file 9 "../../core/ST/STM32L4xx_HAL_Driver/Inc/stm32l4xx_hal_i2c.h"
 759              		.file 10 "../../core/ST/STM32L4xx_HAL_Driver/Inc/stm32l4xx_hal_iwdg.h"
 760              		.file 11 "../../core/ST/STM32L4xx_HAL_Driver/Inc/stm32l4xx_hal_spi.h"
 761              		.file 12 "../../core/ST/STM32L4xx_HAL_Driver/Inc/stm32l4xx_hal_uart.h"
 762              		.file 13 "../../core/ST/STM32L4xx_HAL_Driver/Inc/stm32l4xx_hal.h"
 763              		.file 14 "../../core/platform/octa/inc/gpio.h"
 764              		.file 15 "../../core/platform/octa/inc/iwdg.h"
 765              		.file 16 "../../core/platform/octa/inc/uart.h"
 766              		.file 17 "../../core/platform/octa/inc/i2c.h"
 767              		.file 18 "../../core/platform/octa/inc/spi.h"
 768              		.file 19 "../../core/platform/octa/inc/octa.h"
 769              		.file 20 "../../core/ST/STM32L4xx_HAL_Driver/Inc/stm32l4xx_hal_cortex.h"
 770              		.file 21 "<built-in>"
ARM GAS  C:\Users\Jola\AppData\Local\Temp\ccDbcO8H.s 			page 18

